

Microchip MPLAB XC8 Assembler V2.40 build 20220703182018 
                                                                                               Sat Nov 12 16:18:14 2022

Microchip MPLAB XC8 C Compiler v2.40 (Free license) build 20220703182018 Og1 
     1                           	processor	16F887
     2                           	pagewidth 120
     3                           	opt	flic
     4                           	psect	cinit,global,class=CODE,merge=1,delta=2
     5                           	psect	bssCOMMON,global,class=COMMON,space=1,delta=1,noexec
     6                           	psect	bssBANK1,global,class=BANK1,space=1,delta=1,noexec
     7                           	psect	cstackCOMMON,global,class=COMMON,space=1,delta=1,noexec
     8                           	psect	cstackBANK0,global,class=BANK0,space=1,delta=1,noexec
     9                           	psect	maintext,global,class=CODE,split=1,delta=2
    10                           	psect	text1,local,class=CODE,merge=1,delta=2
    11                           	psect	text2,local,class=CODE,merge=1,delta=2
    12                           	psect	text3,local,class=CODE,merge=1,delta=2
    13                           	psect	text4,local,class=CODE,merge=1,delta=2
    14                           	psect	text5,local,class=CODE,merge=1,delta=2
    15                           	psect	text6,local,class=CODE,merge=1,delta=2
    16                           	psect	text7,local,class=CODE,merge=1,delta=2
    17                           	psect	text8,local,class=CODE,merge=1,delta=2
    18                           	psect	text9,local,class=CODE,merge=1,delta=2
    19                           	psect	text10,local,class=CODE,merge=1,delta=2
    20                           	psect	text11,local,class=CODE,merge=1,delta=2
    21                           	psect	text12,local,class=CODE,merge=1,delta=2,group=1
    22                           	psect	text13,local,class=CODE,merge=1,delta=2,group=1
    23                           	psect	text14,local,class=CODE,merge=1,delta=2,group=1
    24                           	psect	text15,local,class=CODE,merge=1,delta=2,group=1
    25                           	psect	text16,local,class=CODE,merge=1,delta=2,group=1
    26                           	psect	text17,local,class=CODE,merge=1,delta=2
    27                           	psect	intentry,global,class=CODE,delta=2
    28                           	psect	idloc,global,abs,ovrld,class=IDLOC,space=5,delta=2,noexec
    29                           	psect	config,global,abs,ovrld,class=CONFIG,space=4,delta=2,noexec
    30                           	dabs	1,0x7E,2
    31     0000                     
    32                           ; Version 2.40
    33                           ; Generated 17/11/2021 GMT
    34                           ; 
    35                           ; Copyright © 2021, Microchip Technology Inc. and its subsidiaries ("Microchip")
    36                           ; All rights reserved.
    37                           ; 
    38                           ; This software is developed by Microchip Technology Inc. and its subsidiaries ("Microch
      +                          ip").
    39                           ; 
    40                           ; Redistribution and use in source and binary forms, with or without modification, are
    41                           ; permitted provided that the following conditions are met:
    42                           ; 
    43                           ;     1. Redistributions of source code must retain the above copyright notice, this lis
      +                          t of
    44                           ;        conditions and the following disclaimer.
    45                           ; 
    46                           ;     2. Redistributions in binary form must reproduce the above copyright notice, this 
      +                          list
    47                           ;        of conditions and the following disclaimer in the documentation and/or other
    48                           ;        materials provided with the distribution. Publication is not required when
    49                           ;        this file is used in an embedded application.
    50                           ; 
    51                           ;     3. Microchip's name may not be used to endorse or promote products derived from th
      +                          is
    52                           ;        software without specific prior written permission.
    53                           ; 
    54                           ; THIS SOFTWARE IS PROVIDED BY MICROCHIP "AS IS" AND ANY EXPRESS OR IMPLIED WARRANTIES,
    55                           ; INCLUDING, BUT NOT LIMITED TO, THE IMPLIED WARRANTIES OF MERCHANTABILITY AND FITNESS F
      +                          OR
    56                           ; PURPOSE ARE DISCLAIMED.  IN NO EVENT SHALL MICROCHIP BE LIABLE FOR ANY DIRECT, INDIREC
      +                          T,
    57                           ; INCIDENTAL, SPECIAL, EXEMPLARY, OR CONSEQUENTIAL DAMAGES (INCLUDING BUT NOT LIMITED TO
    58                           ; PROCUREMENT OF SUBSTITUTE GOODS OR SERVICES; LOSS OF USE, DATA OR PROFITS; OR BUSINESS
    59                           ; INTERRUPTION) HOWSOEVER CAUSED AND ON ANY THEORY OF LIABILITY, WHETHER IN CONTRACT, ST
      +                          RICT
    60                           ; LIABILITY, OR TORT (INCLUDING NEGLIGENCE OR OTHERWISE) ARISING IN ANY WAY OUT OF THE U
      +                          SE OF
    61                           ; THIS SOFTWARE, EVEN IF ADVISED OF THE POSSIBILITY OF SUCH DAMAGE.
    62                           ; 
    63                           ; 
    64                           ; Code-generator required, PIC16F887 Definitions
    65                           ; 
    66                           ; SFR Addresses
    67     0000                     	;# 
    68     0001                     	;# 
    69     0002                     	;# 
    70     0003                     	;# 
    71     0004                     	;# 
    72     0005                     	;# 
    73     0006                     	;# 
    74     0007                     	;# 
    75     0008                     	;# 
    76     0009                     	;# 
    77     000A                     	;# 
    78     000B                     	;# 
    79     000C                     	;# 
    80     000D                     	;# 
    81     000E                     	;# 
    82     000E                     	;# 
    83     000F                     	;# 
    84     0010                     	;# 
    85     0011                     	;# 
    86     0012                     	;# 
    87     0013                     	;# 
    88     0014                     	;# 
    89     0015                     	;# 
    90     0015                     	;# 
    91     0016                     	;# 
    92     0017                     	;# 
    93     0018                     	;# 
    94     0019                     	;# 
    95     001A                     	;# 
    96     001B                     	;# 
    97     001B                     	;# 
    98     001C                     	;# 
    99     001D                     	;# 
   100     001E                     	;# 
   101     001F                     	;# 
   102     0081                     	;# 
   103     0085                     	;# 
   104     0086                     	;# 
   105     0087                     	;# 
   106     0088                     	;# 
   107     0089                     	;# 
   108     008C                     	;# 
   109     008D                     	;# 
   110     008E                     	;# 
   111     008F                     	;# 
   112     0090                     	;# 
   113     0091                     	;# 
   114     0092                     	;# 
   115     0093                     	;# 
   116     0093                     	;# 
   117     0093                     	;# 
   118     0094                     	;# 
   119     0095                     	;# 
   120     0096                     	;# 
   121     0097                     	;# 
   122     0098                     	;# 
   123     0099                     	;# 
   124     009A                     	;# 
   125     009B                     	;# 
   126     009C                     	;# 
   127     009D                     	;# 
   128     009E                     	;# 
   129     009F                     	;# 
   130     0105                     	;# 
   131     0107                     	;# 
   132     0108                     	;# 
   133     0109                     	;# 
   134     010C                     	;# 
   135     010C                     	;# 
   136     010D                     	;# 
   137     010E                     	;# 
   138     010F                     	;# 
   139     0185                     	;# 
   140     0187                     	;# 
   141     0188                     	;# 
   142     0189                     	;# 
   143     018C                     	;# 
   144     018D                     	;# 
   145     0000                     	;# 
   146     0001                     	;# 
   147     0002                     	;# 
   148     0003                     	;# 
   149     0004                     	;# 
   150     0005                     	;# 
   151     0006                     	;# 
   152     0007                     	;# 
   153     0008                     	;# 
   154     0009                     	;# 
   155     000A                     	;# 
   156     000B                     	;# 
   157     000C                     	;# 
   158     000D                     	;# 
   159     000E                     	;# 
   160     000E                     	;# 
   161     000F                     	;# 
   162     0010                     	;# 
   163     0011                     	;# 
   164     0012                     	;# 
   165     0013                     	;# 
   166     0014                     	;# 
   167     0015                     	;# 
   168     0015                     	;# 
   169     0016                     	;# 
   170     0017                     	;# 
   171     0018                     	;# 
   172     0019                     	;# 
   173     001A                     	;# 
   174     001B                     	;# 
   175     001B                     	;# 
   176     001C                     	;# 
   177     001D                     	;# 
   178     001E                     	;# 
   179     001F                     	;# 
   180     0081                     	;# 
   181     0085                     	;# 
   182     0086                     	;# 
   183     0087                     	;# 
   184     0088                     	;# 
   185     0089                     	;# 
   186     008C                     	;# 
   187     008D                     	;# 
   188     008E                     	;# 
   189     008F                     	;# 
   190     0090                     	;# 
   191     0091                     	;# 
   192     0092                     	;# 
   193     0093                     	;# 
   194     0093                     	;# 
   195     0093                     	;# 
   196     0094                     	;# 
   197     0095                     	;# 
   198     0096                     	;# 
   199     0097                     	;# 
   200     0098                     	;# 
   201     0099                     	;# 
   202     009A                     	;# 
   203     009B                     	;# 
   204     009C                     	;# 
   205     009D                     	;# 
   206     009E                     	;# 
   207     009F                     	;# 
   208     0105                     	;# 
   209     0107                     	;# 
   210     0108                     	;# 
   211     0109                     	;# 
   212     010C                     	;# 
   213     010C                     	;# 
   214     010D                     	;# 
   215     010E                     	;# 
   216     010F                     	;# 
   217     0185                     	;# 
   218     0187                     	;# 
   219     0188                     	;# 
   220     0189                     	;# 
   221     018C                     	;# 
   222     018D                     	;# 
   223     0000                     	;# 
   224     0001                     	;# 
   225     0002                     	;# 
   226     0003                     	;# 
   227     0004                     	;# 
   228     0005                     	;# 
   229     0006                     	;# 
   230     0007                     	;# 
   231     0008                     	;# 
   232     0009                     	;# 
   233     000A                     	;# 
   234     000B                     	;# 
   235     000C                     	;# 
   236     000D                     	;# 
   237     000E                     	;# 
   238     000E                     	;# 
   239     000F                     	;# 
   240     0010                     	;# 
   241     0011                     	;# 
   242     0012                     	;# 
   243     0013                     	;# 
   244     0014                     	;# 
   245     0015                     	;# 
   246     0015                     	;# 
   247     0016                     	;# 
   248     0017                     	;# 
   249     0018                     	;# 
   250     0019                     	;# 
   251     001A                     	;# 
   252     001B                     	;# 
   253     001B                     	;# 
   254     001C                     	;# 
   255     001D                     	;# 
   256     001E                     	;# 
   257     001F                     	;# 
   258     0081                     	;# 
   259     0085                     	;# 
   260     0086                     	;# 
   261     0087                     	;# 
   262     0088                     	;# 
   263     0089                     	;# 
   264     008C                     	;# 
   265     008D                     	;# 
   266     008E                     	;# 
   267     008F                     	;# 
   268     0090                     	;# 
   269     0091                     	;# 
   270     0092                     	;# 
   271     0093                     	;# 
   272     0093                     	;# 
   273     0093                     	;# 
   274     0094                     	;# 
   275     0095                     	;# 
   276     0096                     	;# 
   277     0097                     	;# 
   278     0098                     	;# 
   279     0099                     	;# 
   280     009A                     	;# 
   281     009B                     	;# 
   282     009C                     	;# 
   283     009D                     	;# 
   284     009E                     	;# 
   285     009F                     	;# 
   286     0105                     	;# 
   287     0107                     	;# 
   288     0108                     	;# 
   289     0109                     	;# 
   290     010C                     	;# 
   291     010C                     	;# 
   292     010D                     	;# 
   293     010E                     	;# 
   294     010F                     	;# 
   295     0185                     	;# 
   296     0187                     	;# 
   297     0188                     	;# 
   298     0189                     	;# 
   299     018C                     	;# 
   300     018D                     	;# 
   301     001B                     _CCPR2L	set	27
   302     001D                     _CCP2CONbits	set	29
   303     0015                     _CCPR1L	set	21
   304     0017                     _CCP1CONbits	set	23
   305     001E                     _ADRESH	set	30
   306     0010                     _T1CONbits	set	16
   307     001D                     _CCP2CON	set	29
   308     0012                     _T2CONbits	set	18
   309     0017                     _CCP1CON	set	23
   310     001F                     _ADCON0bits	set	31
   311     0005                     _PORTAbits	set	5
   312     0008                     _PORTD	set	8
   313     0007                     _PORTC	set	7
   314     000E                     _TMR1L	set	14
   315     000F                     _TMR1H	set	15
   316     000C                     _PIR1bits	set	12
   317     0001                     _TMR0	set	1
   318     0007                     _PORTCbits	set	7
   319     000B                     _INTCONbits	set	11
   320     0066                     _ADIF	set	102
   321     0092                     _TMR2ON	set	146
   322     0061                     _TMR2IF	set	97
   323     008F                     _OSCCONbits	set	143
   324     009E                     _ADRESL	set	158
   325     008C                     _PIE1bits	set	140
   326     0081                     _OPTION_REGbits	set	129
   327     0092                     _PR2	set	146
   328     0087                     _TRISCbits	set	135
   329     009F                     _ADCON1bits	set	159
   330     0085                     _TRISAbits	set	133
   331     0088                     _TRISD	set	136
   332     0087                     _TRISC	set	135
   333     0086                     _TRISB	set	134
   334     0188                     _ANSELbits	set	392
   335     0189                     _ANSELH	set	393
   336                           
   337                           	psect	cinit
   338     000F                     start_initialization:	
   339                           ; #config settings
   340                           
   341     000F                     __initialization:
   342                           
   343                           ; Clear objects allocated to COMMON
   344     000F  01FB               	clrf	__pbssCOMMON& (0+127)
   345     0010  01FC               	clrf	(__pbssCOMMON+1)& (0+127)
   346                           
   347                           ; Clear objects allocated to BANK1
   348     0011  1683               	bsf	3,5	;RP0=1, select bank1
   349     0012  1303               	bcf	3,6	;RP1=0, select bank1
   350     0013  01A0               	clrf	__pbssBANK1& (0+127)
   351     0014  01A1               	clrf	(__pbssBANK1+1)& (0+127)
   352     0015  01A2               	clrf	(__pbssBANK1+2)& (0+127)
   353     0016  01A3               	clrf	(__pbssBANK1+3)& (0+127)
   354     0017  01A4               	clrf	(__pbssBANK1+4)& (0+127)
   355     0018  01A5               	clrf	(__pbssBANK1+5)& (0+127)
   356     0019  01A6               	clrf	(__pbssBANK1+6)& (0+127)
   357     001A  01A7               	clrf	(__pbssBANK1+7)& (0+127)
   358     001B  01A8               	clrf	(__pbssBANK1+8)& (0+127)
   359     001C  01A9               	clrf	(__pbssBANK1+9)& (0+127)
   360     001D                     end_of_initialization:	
   361                           ;End of C runtime variable initialization code
   362                           
   363     001D                     __end_of__initialization:
   364     001D  0183               	clrf	3
   365     001E  120A  118A  2FC0   	ljmp	_main	;jump to C main() function
   366                           
   367                           	psect	bssCOMMON
   368     007B                     __pbssCOMMON:
   369     007B                     _valADC:
   370     007B                     	ds	2
   371                           
   372                           	psect	bssBANK1
   373     00A0                     __pbssBANK1:
   374     00A0                     _HIGHpulse1:
   375     00A0                     	ds	2
   376     00A2                     _HIGHpulse:
   377     00A2                     	ds	2
   378     00A4                     _vPWMh:
   379     00A4                     	ds	2
   380     00A6                     _vPWMl:
   381     00A6                     	ds	2
   382     00A8                     _vPWM:
   383     00A8                     	ds	2
   384                           
   385                           	psect	cstackCOMMON
   386     0070                     __pcstackCOMMON:
   387     0070                     ?_setup:
   388     0070                     ?_setupINTOSC:	
   389                           ; 1 bytes @ 0x0
   390                           
   391     0070                     ?_setup_ADC:	
   392                           ; 1 bytes @ 0x0
   393                           
   394     0070                     ?_setup_PWM1:	
   395                           ; 1 bytes @ 0x0
   396                           
   397     0070                     ?_setup_PWM2:	
   398                           ; 1 bytes @ 0x0
   399                           
   400     0070                     ?_setupTMR0:	
   401                           ; 1 bytes @ 0x0
   402                           
   403     0070                     ?_setupTMR1:	
   404                           ; 1 bytes @ 0x0
   405                           
   406     0070                     ?_modomanual:	
   407                           ; 1 bytes @ 0x0
   408                           
   409     0070                     ?_isr:	
   410                           ; 1 bytes @ 0x0
   411                           
   412     0070                     ??_isr:	
   413                           ; 1 bytes @ 0x0
   414                           
   415     0070                     ?_main:	
   416                           ; 1 bytes @ 0x0
   417                           
   418     0070                     ?_PWMtmr0:	
   419                           ; 1 bytes @ 0x0
   420                           
   421     0070                     ?_PWMtmr1:	
   422                           ; 1 bytes @ 0x0
   423                           
   424     0070                     ?_mapeo:	
   425                           ; 1 bytes @ 0x0
   426                           
   427                           
   428                           ; 1 bytes @ 0x0
   429     0070                     	ds	11
   430                           
   431                           	psect	cstackBANK0
   432     0020                     __pcstackBANK0:
   433     0020                     ??_setup:
   434     0020                     ??_setupINTOSC:	
   435                           ; 1 bytes @ 0x0
   436                           
   437     0020                     ??_setup_ADC:	
   438                           ; 1 bytes @ 0x0
   439                           
   440     0020                     ??_setup_PWM1:	
   441                           ; 1 bytes @ 0x0
   442                           
   443     0020                     ??_setup_PWM2:	
   444                           ; 1 bytes @ 0x0
   445                           
   446     0020                     ??_setupTMR0:	
   447                           ; 1 bytes @ 0x0
   448                           
   449     0020                     ??_setupTMR1:	
   450                           ; 1 bytes @ 0x0
   451                           
   452     0020                     ?__Umul8_16:	
   453                           ; 1 bytes @ 0x0
   454                           
   455     0020                     ?___xxtofl:	
   456                           ; 2 bytes @ 0x0
   457                           
   458     0020                     setupINTOSC@IRCF:	
   459                           ; 4 bytes @ 0x0
   460                           
   461     0020                     __Umul8_16@multiplicand:	
   462                           ; 1 bytes @ 0x0
   463                           
   464     0020                     ___xxtofl@val:	
   465                           ; 1 bytes @ 0x0
   466                           
   467                           
   468                           ; 4 bytes @ 0x0
   469     0020                     	ds	2
   470     0022                     ??__Umul8_16:
   471                           
   472                           ; 1 bytes @ 0x2
   473     0022                     	ds	2
   474     0024                     ??___xxtofl:
   475     0024                     __Umul8_16@product:	
   476                           ; 1 bytes @ 0x4
   477                           
   478                           
   479                           ; 2 bytes @ 0x4
   480     0024                     	ds	2
   481     0026                     __Umul8_16@word_mpld:
   482                           
   483                           ; 2 bytes @ 0x6
   484     0026                     	ds	2
   485     0028                     __Umul8_16@multiplier:
   486     0028                     ___xxtofl@sign:	
   487                           ; 1 bytes @ 0x8
   488                           
   489                           
   490                           ; 1 bytes @ 0x8
   491     0028                     	ds	1
   492     0029                     ___xxtofl@exp:
   493                           
   494                           ; 1 bytes @ 0x9
   495     0029                     	ds	1
   496     002A                     ___xxtofl@arg:
   497                           
   498                           ; 4 bytes @ 0xA
   499     002A                     	ds	4
   500     002E                     ?___flmul:
   501     002E                     ___flmul@b:	
   502                           ; 4 bytes @ 0xE
   503                           
   504                           
   505                           ; 4 bytes @ 0xE
   506     002E                     	ds	4
   507     0032                     ___flmul@a:
   508                           
   509                           ; 4 bytes @ 0x12
   510     0032                     	ds	4
   511     0036                     ??___flmul:
   512                           
   513                           ; 1 bytes @ 0x16
   514     0036                     	ds	5
   515     003B                     ___flmul@sign:
   516                           
   517                           ; 1 bytes @ 0x1B
   518     003B                     	ds	1
   519     003C                     ___flmul@grs:
   520                           
   521                           ; 4 bytes @ 0x1C
   522     003C                     	ds	4
   523     0040                     ___flmul@aexp:
   524                           
   525                           ; 1 bytes @ 0x20
   526     0040                     	ds	1
   527     0041                     ___flmul@bexp:
   528                           
   529                           ; 1 bytes @ 0x21
   530     0041                     	ds	1
   531     0042                     ___flmul@prod:
   532                           
   533                           ; 4 bytes @ 0x22
   534     0042                     	ds	4
   535     0046                     ___flmul@temp:
   536                           
   537                           ; 2 bytes @ 0x26
   538     0046                     	ds	2
   539     0048                     ?___fladd:
   540     0048                     ___fladd@b:	
   541                           ; 4 bytes @ 0x28
   542                           
   543                           
   544                           ; 4 bytes @ 0x28
   545     0048                     	ds	4
   546     004C                     ___fladd@a:
   547                           
   548                           ; 4 bytes @ 0x2C
   549     004C                     	ds	4
   550     0050                     ??___fladd:
   551                           
   552                           ; 1 bytes @ 0x30
   553     0050                     	ds	8
   554     0058                     ___fladd@signs:
   555                           
   556                           ; 1 bytes @ 0x38
   557     0058                     	ds	1
   558     0059                     ___fladd@aexp:
   559                           
   560                           ; 1 bytes @ 0x39
   561     0059                     	ds	1
   562     005A                     ___fladd@bexp:
   563                           
   564                           ; 1 bytes @ 0x3A
   565     005A                     	ds	1
   566     005B                     ___fladd@grs:
   567                           
   568                           ; 1 bytes @ 0x3B
   569     005B                     	ds	1
   570     005C                     ?___fltol:
   571     005C                     ___fltol@f1:	
   572                           ; 4 bytes @ 0x3C
   573                           
   574                           
   575                           ; 4 bytes @ 0x3C
   576     005C                     	ds	4
   577     0060                     ??___fltol:
   578                           
   579                           ; 1 bytes @ 0x40
   580     0060                     	ds	4
   581     0064                     ___fltol@sign1:
   582                           
   583                           ; 1 bytes @ 0x44
   584     0064                     	ds	1
   585     0065                     ___fltol@exp1:
   586                           
   587                           ; 1 bytes @ 0x45
   588     0065                     	ds	1
   589     0066                     ??_PWMtmr0:
   590     0066                     ??_PWMtmr1:	
   591                           ; 1 bytes @ 0x46
   592                           
   593     0066                     ??_mapeo:	
   594                           ; 1 bytes @ 0x46
   595                           
   596                           
   597                           ; 1 bytes @ 0x46
   598     0066                     	ds	5
   599     006B                     ??_modomanual:
   600                           
   601                           ; 1 bytes @ 0x4B
   602     006B                     	ds	3
   603     006E                     ??_main:
   604                           
   605                           ; 1 bytes @ 0x4E
   606     006E                     	ds	1
   607                           
   608                           	psect	maintext
   609     07C0                     __pmaintext:	
   610 ;;
   611 ;;Main: autosize = 0, tempsize = 1, incstack = 0, save=0
   612 ;;
   613 ;; *************** function _main *****************
   614 ;; Defined at:
   615 ;;		line 105 in file "main.c"
   616 ;; Parameters:    Size  Location     Type
   617 ;;		None
   618 ;; Auto vars:     Size  Location     Type
   619 ;;		None
   620 ;; Return value:  Size  Location     Type
   621 ;;                  1    wreg      void 
   622 ;; Registers used:
   623 ;;		wreg, status,2, status,0, btemp+1, pclath, cstack
   624 ;; Tracked objects:
   625 ;;		On entry : B00/0
   626 ;;		On exit  : 0/0
   627 ;;		Unchanged: 0/0
   628 ;; Data sizes:     COMMON   BANK0   BANK1   BANK3   BANK2
   629 ;;      Params:         0       0       0       0       0
   630 ;;      Locals:         0       0       0       0       0
   631 ;;      Temps:          0       1       0       0       0
   632 ;;      Totals:         0       1       0       0       0
   633 ;;Total ram usage:        1 bytes
   634 ;; Hardware stack levels required when called: 5
   635 ;; This function calls:
   636 ;;		_modomanual
   637 ;;		_setup
   638 ;;		_setupINTOSC
   639 ;;		_setupTMR0
   640 ;;		_setupTMR1
   641 ;;		_setup_ADC
   642 ;;		_setup_PWM1
   643 ;;		_setup_PWM2
   644 ;; This function is called by:
   645 ;;		Startup code after reset
   646 ;; This function uses a non-reentrant model
   647 ;;
   648                           
   649     07C0                     _main:	
   650                           ;psect for function _main
   651                           
   652     07C0                     l1968:	
   653                           ;incstack = 0
   654                           ; Regs used in _main: [wreg+status,2+status,0+btemp+1+pclath+cstack]
   655                           
   656                           
   657                           ;main.c: 106:     setup();
   658     07C0  120A  158A  2504  120A  118A  	fcall	_setup
   659     07C5                     l1970:
   660                           
   661                           ;main.c: 107:     setupINTOSC(4);
   662     07C5  3004               	movlw	4
   663     07C6  120A  158A  25BB  120A  118A  	fcall	_setupINTOSC
   664     07CB                     l1972:
   665                           
   666                           ;main.c: 108:     setup_ADC();
   667     07CB  120A  158A  2583  120A  118A  	fcall	_setup_ADC
   668     07D0                     l1974:
   669                           
   670                           ;main.c: 109:     setup_PWM1();
   671     07D0  120A  158A  2545  120A  118A  	fcall	_setup_PWM1
   672     07D5                     l1976:
   673                           
   674                           ;main.c: 110:     setup_PWM2();
   675     07D5  120A  158A  2520  120A  118A  	fcall	_setup_PWM2
   676     07DA                     l1978:
   677                           
   678                           ;main.c: 111:     setupTMR0();
   679     07DA  120A  158A  2511  120A  118A  	fcall	_setupTMR0
   680     07DF                     l1980:
   681                           
   682                           ;main.c: 112:     setupTMR1();
   683     07DF  120A  158A  2532  120A  118A  	fcall	_setupTMR1
   684     07E4                     l1982:
   685                           
   686                           ;main.c: 113:     HIGHpulse = 241;
   687     07E4  30F1               	movlw	241
   688     07E5  1683               	bsf	3,5	;RP0=1, select bank1
   689     07E6  1303               	bcf	3,6	;RP1=0, select bank1
   690     07E7  00A2               	movwf	_HIGHpulse^(0+128)
   691     07E8  3000               	movlw	0
   692     07E9  00A3               	movwf	(_HIGHpulse^(0+128)+1)
   693     07EA                     l1984:
   694                           
   695                           ;main.c: 114:     HIGHpulse1 = 65411;
   696     07EA  3083               	movlw	131
   697     07EB  00A0               	movwf	_HIGHpulse1^(0+128)
   698     07EC  30FF               	movlw	255
   699     07ED  00A1               	movwf	(_HIGHpulse1^(0+128)+1)
   700     07EE                     l1986:
   701                           
   702                           ;main.c: 116:         modomanual();
   703     07EE  120A  118A  2678  120A  118A  	fcall	_modomanual
   704     07F3                     l1988:
   705                           
   706                           ;main.c: 117:         _delay((unsigned long)((1)*(1000000/4000.0)));
   707     07F3  3052               	movlw	82
   708     07F4  1283               	bcf	3,5	;RP0=0, select bank0
   709     07F5  1303               	bcf	3,6	;RP1=0, select bank0
   710     07F6  00EE               	movwf	??_main
   711     07F7                     u2677:
   712     07F7  0BEE               	decfsz	??_main,f
   713     07F8  2FF7               	goto	u2677
   714     07F9  0000               	nop
   715     07FA  2FEE               	goto	l1986
   716     07FB  120A  118A  280C   	ljmp	start
   717     07FE                     __end_of_main:
   718                           
   719                           	psect	text1
   720     0D20                     __ptext1:	
   721 ;; *************** function _setup_PWM2 *****************
   722 ;; Defined at:
   723 ;;		line 175 in file "main.c"
   724 ;; Parameters:    Size  Location     Type
   725 ;;		None
   726 ;; Auto vars:     Size  Location     Type
   727 ;;		None
   728 ;; Return value:  Size  Location     Type
   729 ;;                  1    wreg      void 
   730 ;; Registers used:
   731 ;;		wreg
   732 ;; Tracked objects:
   733 ;;		On entry : 0/0
   734 ;;		On exit  : 0/0
   735 ;;		Unchanged: 0/0
   736 ;; Data sizes:     COMMON   BANK0   BANK1   BANK3   BANK2
   737 ;;      Params:         0       0       0       0       0
   738 ;;      Locals:         0       0       0       0       0
   739 ;;      Temps:          0       0       0       0       0
   740 ;;      Totals:         0       0       0       0       0
   741 ;;Total ram usage:        0 bytes
   742 ;; Hardware stack levels used: 1
   743 ;; Hardware stack levels required when called: 1
   744 ;; This function calls:
   745 ;;		Nothing
   746 ;; This function is called by:
   747 ;;		_main
   748 ;; This function uses a non-reentrant model
   749 ;;
   750                           
   751     0D20                     _setup_PWM2:	
   752                           ;psect for function _setup_PWM2
   753                           
   754     0D20                     l1862:	
   755                           ;incstack = 0
   756                           ; Regs used in _setup_PWM2: [wreg]
   757                           
   758                           
   759                           ;main.c: 176:     TRISCbits.TRISC1 = 1;
   760     0D20  1683               	bsf	3,5	;RP0=1, select bank1
   761     0D21  1303               	bcf	3,6	;RP1=0, select bank1
   762     0D22  1487               	bsf	7,1	;volatile
   763     0D23                     l1864:
   764                           
   765                           ;main.c: 177:     PR2 = 254;
   766     0D23  30FE               	movlw	254
   767     0D24  0092               	movwf	18	;volatile
   768                           
   769                           ;main.c: 178:     CCP2CON = 0b00001100;
   770     0D25  300C               	movlw	12
   771     0D26  1283               	bcf	3,5	;RP0=0, select bank0
   772     0D27  1303               	bcf	3,6	;RP1=0, select bank0
   773     0D28  009D               	movwf	29	;volatile
   774     0D29                     l1866:
   775                           
   776                           ;main.c: 179:     TMR2IF = 0;
   777     0D29  108C               	bcf	12,1	;volatile
   778     0D2A                     l132:	
   779                           ;main.c: 180:     while(!TMR2IF);
   780                           
   781     0D2A  1C8C               	btfss	12,1	;volatile
   782     0D2B  2D2D               	goto	u2561
   783     0D2C  2D2E               	goto	u2560
   784     0D2D                     u2561:
   785     0D2D  2D2A               	goto	l132
   786     0D2E                     u2560:
   787     0D2E                     l134:
   788                           
   789                           ;main.c: 181:     TRISCbits.TRISC1 = 0;
   790     0D2E  1683               	bsf	3,5	;RP0=1, select bank1
   791     0D2F  1303               	bcf	3,6	;RP1=0, select bank1
   792     0D30  1087               	bcf	7,1	;volatile
   793     0D31                     l135:
   794     0D31  0008               	return
   795     0D32                     __end_of_setup_PWM2:
   796                           
   797                           	psect	text2
   798     0D45                     __ptext2:	
   799 ;; *************** function _setup_PWM1 *****************
   800 ;; Defined at:
   801 ;;		line 165 in file "main.c"
   802 ;; Parameters:    Size  Location     Type
   803 ;;		None
   804 ;; Auto vars:     Size  Location     Type
   805 ;;		None
   806 ;; Return value:  Size  Location     Type
   807 ;;                  1    wreg      void 
   808 ;; Registers used:
   809 ;;		wreg, status,2, status,0
   810 ;; Tracked objects:
   811 ;;		On entry : 0/0
   812 ;;		On exit  : 0/0
   813 ;;		Unchanged: 0/0
   814 ;; Data sizes:     COMMON   BANK0   BANK1   BANK3   BANK2
   815 ;;      Params:         0       0       0       0       0
   816 ;;      Locals:         0       0       0       0       0
   817 ;;      Temps:          0       0       0       0       0
   818 ;;      Totals:         0       0       0       0       0
   819 ;;Total ram usage:        0 bytes
   820 ;; Hardware stack levels used: 1
   821 ;; Hardware stack levels required when called: 1
   822 ;; This function calls:
   823 ;;		Nothing
   824 ;; This function is called by:
   825 ;;		_main
   826 ;; This function uses a non-reentrant model
   827 ;;
   828                           
   829     0D45                     _setup_PWM1:	
   830                           ;psect for function _setup_PWM1
   831                           
   832     0D45                     l1852:	
   833                           ;incstack = 0
   834                           ; Regs used in _setup_PWM1: [wreg+status,2+status,0]
   835                           
   836                           
   837                           ;main.c: 166:     TRISCbits.TRISC2 = 1;
   838     0D45  1683               	bsf	3,5	;RP0=1, select bank1
   839     0D46  1303               	bcf	3,6	;RP1=0, select bank1
   840     0D47  1507               	bsf	7,2	;volatile
   841     0D48                     l1854:
   842                           
   843                           ;main.c: 167:     PR2 = 254;
   844     0D48  30FE               	movlw	254
   845     0D49  0092               	movwf	18	;volatile
   846                           
   847                           ;main.c: 168:     CCP1CON = 0b00001100;
   848     0D4A  300C               	movlw	12
   849     0D4B  1283               	bcf	3,5	;RP0=0, select bank0
   850     0D4C  1303               	bcf	3,6	;RP1=0, select bank0
   851     0D4D  0097               	movwf	23	;volatile
   852     0D4E                     l1856:
   853                           
   854                           ;main.c: 169:     TMR2IF = 0;
   855     0D4E  108C               	bcf	12,1	;volatile
   856     0D4F                     l1858:
   857                           
   858                           ;main.c: 170:     T2CONbits.T2CKPS = 0b11;
   859     0D4F  3003               	movlw	3
   860     0D50  0492               	iorwf	18,f	;volatile
   861     0D51                     l1860:
   862                           
   863                           ;main.c: 171:     TMR2ON = 1;
   864     0D51  1512               	bsf	18,2	;volatile
   865     0D52                     l126:	
   866                           ;main.c: 172:     while(!TMR2IF);
   867                           
   868     0D52  1C8C               	btfss	12,1	;volatile
   869     0D53  2D55               	goto	u2551
   870     0D54  2D56               	goto	u2550
   871     0D55                     u2551:
   872     0D55  2D52               	goto	l126
   873     0D56                     u2550:
   874     0D56                     l128:
   875                           
   876                           ;main.c: 173:     TRISCbits.TRISC2 = 0;
   877     0D56  1683               	bsf	3,5	;RP0=1, select bank1
   878     0D57  1303               	bcf	3,6	;RP1=0, select bank1
   879     0D58  1107               	bcf	7,2	;volatile
   880     0D59                     l129:
   881     0D59  0008               	return
   882     0D5A                     __end_of_setup_PWM1:
   883                           
   884                           	psect	text3
   885     0D83                     __ptext3:	
   886 ;; *************** function _setup_ADC *****************
   887 ;; Defined at:
   888 ;;		line 134 in file "main.c"
   889 ;; Parameters:    Size  Location     Type
   890 ;;		None
   891 ;; Auto vars:     Size  Location     Type
   892 ;;		None
   893 ;; Return value:  Size  Location     Type
   894 ;;                  1    wreg      void 
   895 ;; Registers used:
   896 ;;		wreg
   897 ;; Tracked objects:
   898 ;;		On entry : 0/0
   899 ;;		On exit  : 0/0
   900 ;;		Unchanged: 0/0
   901 ;; Data sizes:     COMMON   BANK0   BANK1   BANK3   BANK2
   902 ;;      Params:         0       0       0       0       0
   903 ;;      Locals:         0       0       0       0       0
   904 ;;      Temps:          0       1       0       0       0
   905 ;;      Totals:         0       1       0       0       0
   906 ;;Total ram usage:        1 bytes
   907 ;; Hardware stack levels used: 1
   908 ;; Hardware stack levels required when called: 1
   909 ;; This function calls:
   910 ;;		Nothing
   911 ;; This function is called by:
   912 ;;		_main
   913 ;; This function uses a non-reentrant model
   914 ;;
   915                           
   916     0D83                     _setup_ADC:	
   917                           ;psect for function _setup_ADC
   918                           
   919     0D83                     l1848:	
   920                           ;incstack = 0
   921                           ; Regs used in _setup_ADC: [wreg]
   922                           
   923                           
   924                           ;main.c: 135:     PORTAbits.RA0 = 0;
   925     0D83  1283               	bcf	3,5	;RP0=0, select bank0
   926     0D84  1303               	bcf	3,6	;RP1=0, select bank0
   927     0D85  1005               	bcf	5,0	;volatile
   928                           
   929                           ;main.c: 136:     TRISAbits.TRISA0 = 1;
   930     0D86  1683               	bsf	3,5	;RP0=1, select bank1
   931     0D87  1303               	bcf	3,6	;RP1=0, select bank1
   932     0D88  1405               	bsf	5,0	;volatile
   933                           
   934                           ;main.c: 137:     ANSELbits.ANS0 = 1;
   935     0D89  1683               	bsf	3,5	;RP0=1, select bank3
   936     0D8A  1703               	bsf	3,6	;RP1=1, select bank3
   937     0D8B  1408               	bsf	8,0	;volatile
   938                           
   939                           ;main.c: 139:     PORTAbits.RA1 = 0;
   940     0D8C  1283               	bcf	3,5	;RP0=0, select bank0
   941     0D8D  1303               	bcf	3,6	;RP1=0, select bank0
   942     0D8E  1085               	bcf	5,1	;volatile
   943                           
   944                           ;main.c: 140:     TRISAbits.TRISA1 = 1;
   945     0D8F  1683               	bsf	3,5	;RP0=1, select bank1
   946     0D90  1303               	bcf	3,6	;RP1=0, select bank1
   947     0D91  1485               	bsf	5,1	;volatile
   948                           
   949                           ;main.c: 141:     ANSELbits.ANS1 = 1;
   950     0D92  1683               	bsf	3,5	;RP0=1, select bank3
   951     0D93  1703               	bsf	3,6	;RP1=1, select bank3
   952     0D94  1488               	bsf	8,1	;volatile
   953                           
   954                           ;main.c: 143:     PORTAbits.RA2 = 0;
   955     0D95  1283               	bcf	3,5	;RP0=0, select bank0
   956     0D96  1303               	bcf	3,6	;RP1=0, select bank0
   957     0D97  1105               	bcf	5,2	;volatile
   958                           
   959                           ;main.c: 144:     TRISAbits.TRISA2 = 1;
   960     0D98  1683               	bsf	3,5	;RP0=1, select bank1
   961     0D99  1303               	bcf	3,6	;RP1=0, select bank1
   962     0D9A  1505               	bsf	5,2	;volatile
   963                           
   964                           ;main.c: 145:     ANSELbits.ANS2 = 1;
   965     0D9B  1683               	bsf	3,5	;RP0=1, select bank3
   966     0D9C  1703               	bsf	3,6	;RP1=1, select bank3
   967     0D9D  1508               	bsf	8,2	;volatile
   968                           
   969                           ;main.c: 147:     PORTAbits.RA3 = 0;
   970     0D9E  1283               	bcf	3,5	;RP0=0, select bank0
   971     0D9F  1303               	bcf	3,6	;RP1=0, select bank0
   972     0DA0  1185               	bcf	5,3	;volatile
   973                           
   974                           ;main.c: 148:     TRISAbits.TRISA3 = 1;
   975     0DA1  1683               	bsf	3,5	;RP0=1, select bank1
   976     0DA2  1303               	bcf	3,6	;RP1=0, select bank1
   977     0DA3  1585               	bsf	5,3	;volatile
   978                           
   979                           ;main.c: 149:     ANSELbits.ANS3 = 1;
   980     0DA4  1683               	bsf	3,5	;RP0=1, select bank3
   981     0DA5  1703               	bsf	3,6	;RP1=1, select bank3
   982     0DA6  1588               	bsf	8,3	;volatile
   983                           
   984                           ;main.c: 151:     ADCON0bits.ADCS1 = 0;
   985     0DA7  1283               	bcf	3,5	;RP0=0, select bank0
   986     0DA8  1303               	bcf	3,6	;RP1=0, select bank0
   987     0DA9  139F               	bcf	31,7	;volatile
   988                           
   989                           ;main.c: 152:     ADCON0bits.ADCS0 = 1;
   990     0DAA  171F               	bsf	31,6	;volatile
   991                           
   992                           ;main.c: 154:     ADCON1bits.VCFG1 = 0;
   993     0DAB  1683               	bsf	3,5	;RP0=1, select bank1
   994     0DAC  1303               	bcf	3,6	;RP1=0, select bank1
   995     0DAD  129F               	bcf	31,5	;volatile
   996                           
   997                           ;main.c: 155:     ADCON1bits.VCFG0 = 0;
   998     0DAE  121F               	bcf	31,4	;volatile
   999                           
  1000                           ;main.c: 157:     ADCON1bits.ADFM = 0;
  1001     0DAF  139F               	bcf	31,7	;volatile
  1002                           
  1003                           ;main.c: 159:     ADCON0bits.ADON = 1;
  1004     0DB0  1283               	bcf	3,5	;RP0=0, select bank0
  1005     0DB1  1303               	bcf	3,6	;RP1=0, select bank0
  1006     0DB2  141F               	bsf	31,0	;volatile
  1007     0DB3                     l1850:
  1008                           
  1009                           ;main.c: 160:     _delay((unsigned long)((100)*(1000000/4000000.0)));
  1010     0DB3  3007               	movlw	7
  1011     0DB4  1283               	bcf	3,5	;RP0=0, select bank0
  1012     0DB5  1303               	bcf	3,6	;RP1=0, select bank0
  1013     0DB6  00A0               	movwf	??_setup_ADC
  1014     0DB7                     u2687:
  1015     0DB7  0BA0               	decfsz	??_setup_ADC,f
  1016     0DB8  2DB7               	goto	u2687
  1017     0DB9  0000               	nop
  1018     0DBA                     l123:
  1019     0DBA  0008               	return
  1020     0DBB                     __end_of_setup_ADC:
  1021                           
  1022                           	psect	text4
  1023     0D32                     __ptext4:	
  1024 ;; *************** function _setupTMR1 *****************
  1025 ;; Defined at:
  1026 ;;		line 199 in file "main.c"
  1027 ;; Parameters:    Size  Location     Type
  1028 ;;		None
  1029 ;; Auto vars:     Size  Location     Type
  1030 ;;		None
  1031 ;; Return value:  Size  Location     Type
  1032 ;;                  1    wreg      void 
  1033 ;; Registers used:
  1034 ;;		wreg, status,2, status,0
  1035 ;; Tracked objects:
  1036 ;;		On entry : 0/0
  1037 ;;		On exit  : 0/0
  1038 ;;		Unchanged: 0/0
  1039 ;; Data sizes:     COMMON   BANK0   BANK1   BANK3   BANK2
  1040 ;;      Params:         0       0       0       0       0
  1041 ;;      Locals:         0       0       0       0       0
  1042 ;;      Temps:          0       0       0       0       0
  1043 ;;      Totals:         0       0       0       0       0
  1044 ;;Total ram usage:        0 bytes
  1045 ;; Hardware stack levels used: 1
  1046 ;; Hardware stack levels required when called: 1
  1047 ;; This function calls:
  1048 ;;		Nothing
  1049 ;; This function is called by:
  1050 ;;		_main
  1051 ;; This function uses a non-reentrant model
  1052 ;;
  1053                           
  1054     0D32                     _setupTMR1:	
  1055                           ;psect for function _setupTMR1
  1056                           
  1057     0D32                     l1874:	
  1058                           ;incstack = 0
  1059                           ; Regs used in _setupTMR1: [wreg+status,2+status,0]
  1060                           
  1061                           
  1062                           ;main.c: 200:     T1CONbits.T1CKPS = 0;
  1063     0D32  30CF               	movlw	-49
  1064     0D33  1283               	bcf	3,5	;RP0=0, select bank0
  1065     0D34  1303               	bcf	3,6	;RP1=0, select bank0
  1066     0D35  0590               	andwf	16,f	;volatile
  1067     0D36                     l1876:
  1068                           
  1069                           ;main.c: 201:     T1CONbits.T1OSCEN = 0;
  1070     0D36  1190               	bcf	16,3	;volatile
  1071     0D37                     l1878:
  1072                           
  1073                           ;main.c: 202:     T1CONbits.TMR1CS = 0;
  1074     0D37  1090               	bcf	16,1	;volatile
  1075     0D38                     l1880:
  1076                           
  1077                           ;main.c: 203:     T1CONbits.TMR1ON = 1;
  1078     0D38  1410               	bsf	16,0	;volatile
  1079     0D39                     l1882:
  1080                           
  1081                           ;main.c: 205:     TMR1H = 0xEF;
  1082     0D39  30EF               	movlw	239
  1083     0D3A  008F               	movwf	15	;volatile
  1084     0D3B                     l1884:
  1085                           
  1086                           ;main.c: 206:     TMR1L = 0x82;
  1087     0D3B  3082               	movlw	130
  1088     0D3C  008E               	movwf	14	;volatile
  1089     0D3D                     l1886:
  1090                           
  1091                           ;main.c: 207:     INTCONbits.PEIE = 1;
  1092     0D3D  170B               	bsf	11,6	;volatile
  1093     0D3E                     l1888:
  1094                           
  1095                           ;main.c: 208:     PIE1bits.TMR1IE = 1;
  1096     0D3E  1683               	bsf	3,5	;RP0=1, select bank1
  1097     0D3F  1303               	bcf	3,6	;RP1=0, select bank1
  1098     0D40  140C               	bsf	12,0	;volatile
  1099     0D41                     l1890:
  1100                           
  1101                           ;main.c: 209:     PIR1bits.TMR1IF = 0;
  1102     0D41  1283               	bcf	3,5	;RP0=0, select bank0
  1103     0D42  1303               	bcf	3,6	;RP1=0, select bank0
  1104     0D43  100C               	bcf	12,0	;volatile
  1105     0D44                     l141:
  1106     0D44  0008               	return
  1107     0D45                     __end_of_setupTMR1:
  1108                           
  1109                           	psect	text5
  1110     0D11                     __ptext5:	
  1111 ;; *************** function _setupTMR0 *****************
  1112 ;; Defined at:
  1113 ;;		line 186 in file "main.c"
  1114 ;; Parameters:    Size  Location     Type
  1115 ;;		None
  1116 ;; Auto vars:     Size  Location     Type
  1117 ;;		None
  1118 ;; Return value:  Size  Location     Type
  1119 ;;                  1    wreg      void 
  1120 ;; Registers used:
  1121 ;;		wreg, status,2, status,0
  1122 ;; Tracked objects:
  1123 ;;		On entry : 0/0
  1124 ;;		On exit  : 0/0
  1125 ;;		Unchanged: 0/0
  1126 ;; Data sizes:     COMMON   BANK0   BANK1   BANK3   BANK2
  1127 ;;      Params:         0       0       0       0       0
  1128 ;;      Locals:         0       0       0       0       0
  1129 ;;      Temps:          0       0       0       0       0
  1130 ;;      Totals:         0       0       0       0       0
  1131 ;;Total ram usage:        0 bytes
  1132 ;; Hardware stack levels used: 1
  1133 ;; Hardware stack levels required when called: 1
  1134 ;; This function calls:
  1135 ;;		Nothing
  1136 ;; This function is called by:
  1137 ;;		_main
  1138 ;; This function uses a non-reentrant model
  1139 ;;
  1140                           
  1141     0D11                     _setupTMR0:	
  1142                           ;psect for function _setupTMR0
  1143                           
  1144     0D11                     l1868:	
  1145                           ;incstack = 0
  1146                           ; Regs used in _setupTMR0: [wreg+status,2+status,0]
  1147                           
  1148                           
  1149                           ;main.c: 187:     INTCONbits.GIE = 1;
  1150     0D11  178B               	bsf	11,7	;volatile
  1151                           
  1152                           ;main.c: 188:     INTCONbits.T0IE = 1;
  1153     0D12  168B               	bsf	11,5	;volatile
  1154                           
  1155                           ;main.c: 189:     INTCONbits.T0IF = 0;
  1156     0D13  110B               	bcf	11,2	;volatile
  1157                           
  1158                           ;main.c: 191:     OPTION_REGbits.T0CS = 0;
  1159     0D14  1683               	bsf	3,5	;RP0=1, select bank1
  1160     0D15  1303               	bcf	3,6	;RP1=0, select bank1
  1161     0D16  1281               	bcf	1,5	;volatile
  1162                           
  1163                           ;main.c: 192:     OPTION_REGbits.PSA = 0;
  1164     0D17  1181               	bcf	1,3	;volatile
  1165     0D18                     l1870:
  1166                           
  1167                           ;main.c: 193:     OPTION_REGbits.PS = 0b011;
  1168     0D18  0801               	movf	1,w	;volatile
  1169     0D19  39F8               	andlw	-8
  1170     0D1A  3803               	iorlw	3
  1171     0D1B  0081               	movwf	1	;volatile
  1172     0D1C                     l1872:
  1173                           
  1174                           ;main.c: 194:     TMR0 = 0;
  1175     0D1C  1283               	bcf	3,5	;RP0=0, select bank0
  1176     0D1D  1303               	bcf	3,6	;RP1=0, select bank0
  1177     0D1E  0181               	clrf	1	;volatile
  1178     0D1F                     l138:
  1179     0D1F  0008               	return
  1180     0D20                     __end_of_setupTMR0:
  1181                           
  1182                           	psect	text6
  1183     0DBB                     __ptext6:	
  1184 ;; *************** function _setupINTOSC *****************
  1185 ;; Defined at:
  1186 ;;		line 10 in file "oscilador.c"
  1187 ;; Parameters:    Size  Location     Type
  1188 ;;  IRCF            1    wreg     unsigned char 
  1189 ;; Auto vars:     Size  Location     Type
  1190 ;;  IRCF            1    0[BANK0 ] unsigned char 
  1191 ;; Return value:  Size  Location     Type
  1192 ;;                  1    wreg      void 
  1193 ;; Registers used:
  1194 ;;		wreg, status,2, status,0
  1195 ;; Tracked objects:
  1196 ;;		On entry : 0/0
  1197 ;;		On exit  : 0/0
  1198 ;;		Unchanged: 0/0
  1199 ;; Data sizes:     COMMON   BANK0   BANK1   BANK3   BANK2
  1200 ;;      Params:         0       0       0       0       0
  1201 ;;      Locals:         0       1       0       0       0
  1202 ;;      Temps:          0       0       0       0       0
  1203 ;;      Totals:         0       1       0       0       0
  1204 ;;Total ram usage:        1 bytes
  1205 ;; Hardware stack levels used: 1
  1206 ;; Hardware stack levels required when called: 1
  1207 ;; This function calls:
  1208 ;;		Nothing
  1209 ;; This function is called by:
  1210 ;;		_main
  1211 ;; This function uses a non-reentrant model
  1212 ;;
  1213                           
  1214     0DBB                     _setupINTOSC:	
  1215                           ;psect for function _setupINTOSC
  1216                           
  1217                           
  1218                           ;incstack = 0
  1219                           ; Regs used in _setupINTOSC: [wreg+status,2+status,0]
  1220                           ;setupINTOSC@IRCF stored from wreg
  1221     0DBB  1283               	bcf	3,5	;RP0=0, select bank0
  1222     0DBC  1303               	bcf	3,6	;RP1=0, select bank0
  1223     0DBD  00A0               	movwf	setupINTOSC@IRCF
  1224     0DBE                     l1828:
  1225                           
  1226                           ;oscilador.c: 11:     if (IRCF == 7){
  1227     0DBE  3007               	movlw	7
  1228     0DBF  0620               	xorwf	setupINTOSC@IRCF,w
  1229     0DC0  1D03               	btfss	3,2
  1230     0DC1  2DC3               	goto	u2471
  1231     0DC2  2DC4               	goto	u2470
  1232     0DC3                     u2471:
  1233     0DC3  2DC8               	goto	l170
  1234     0DC4                     u2470:
  1235     0DC4                     l1830:
  1236                           
  1237                           ;oscilador.c: 12:         OSCCONbits.IRCF = 0b111;
  1238     0DC4  3070               	movlw	112
  1239     0DC5  1683               	bsf	3,5	;RP0=1, select bank1
  1240     0DC6  1303               	bcf	3,6	;RP1=0, select bank1
  1241     0DC7  048F               	iorwf	15,f	;volatile
  1242     0DC8                     l170:	
  1243                           ;oscilador.c: 13:     }
  1244                           
  1245                           
  1246                           ;oscilador.c: 14:     if (IRCF == 6){
  1247     0DC8  3006               	movlw	6
  1248     0DC9  1283               	bcf	3,5	;RP0=0, select bank0
  1249     0DCA  0620               	xorwf	setupINTOSC@IRCF,w
  1250     0DCB  1D03               	btfss	3,2
  1251     0DCC  2DCE               	goto	u2481
  1252     0DCD  2DCF               	goto	u2480
  1253     0DCE                     u2481:
  1254     0DCE  2DD5               	goto	l171
  1255     0DCF                     u2480:
  1256     0DCF                     l1832:
  1257                           
  1258                           ;oscilador.c: 15:         OSCCONbits.IRCF = 0b110;
  1259     0DCF  1683               	bsf	3,5	;RP0=1, select bank1
  1260     0DD0  1303               	bcf	3,6	;RP1=0, select bank1
  1261     0DD1  080F               	movf	15,w	;volatile
  1262     0DD2  398F               	andlw	-113
  1263     0DD3  3860               	iorlw	96
  1264     0DD4  008F               	movwf	15	;volatile
  1265     0DD5                     l171:	
  1266                           ;oscilador.c: 16:     }
  1267                           
  1268                           
  1269                           ;oscilador.c: 17:     if (IRCF == 5){
  1270     0DD5  3005               	movlw	5
  1271     0DD6  1283               	bcf	3,5	;RP0=0, select bank0
  1272     0DD7  0620               	xorwf	setupINTOSC@IRCF,w
  1273     0DD8  1D03               	btfss	3,2
  1274     0DD9  2DDB               	goto	u2491
  1275     0DDA  2DDC               	goto	u2490
  1276     0DDB                     u2491:
  1277     0DDB  2DE2               	goto	l172
  1278     0DDC                     u2490:
  1279     0DDC                     l1834:
  1280                           
  1281                           ;oscilador.c: 18:         OSCCONbits.IRCF = 0b101;
  1282     0DDC  1683               	bsf	3,5	;RP0=1, select bank1
  1283     0DDD  1303               	bcf	3,6	;RP1=0, select bank1
  1284     0DDE  080F               	movf	15,w	;volatile
  1285     0DDF  398F               	andlw	-113
  1286     0DE0  3850               	iorlw	80
  1287     0DE1  008F               	movwf	15	;volatile
  1288     0DE2                     l172:	
  1289                           ;oscilador.c: 19:     }
  1290                           
  1291                           
  1292                           ;oscilador.c: 20:     if (IRCF == 4){
  1293     0DE2  3004               	movlw	4
  1294     0DE3  1283               	bcf	3,5	;RP0=0, select bank0
  1295     0DE4  0620               	xorwf	setupINTOSC@IRCF,w
  1296     0DE5  1D03               	btfss	3,2
  1297     0DE6  2DE8               	goto	u2501
  1298     0DE7  2DE9               	goto	u2500
  1299     0DE8                     u2501:
  1300     0DE8  2DEF               	goto	l173
  1301     0DE9                     u2500:
  1302     0DE9                     l1836:
  1303                           
  1304                           ;oscilador.c: 21:         OSCCONbits.IRCF = 0b100;
  1305     0DE9  1683               	bsf	3,5	;RP0=1, select bank1
  1306     0DEA  1303               	bcf	3,6	;RP1=0, select bank1
  1307     0DEB  080F               	movf	15,w	;volatile
  1308     0DEC  398F               	andlw	-113
  1309     0DED  3840               	iorlw	64
  1310     0DEE  008F               	movwf	15	;volatile
  1311     0DEF                     l173:	
  1312                           ;oscilador.c: 22:     }
  1313                           
  1314                           
  1315                           ;oscilador.c: 23:     if (IRCF == 3){
  1316     0DEF  3003               	movlw	3
  1317     0DF0  1283               	bcf	3,5	;RP0=0, select bank0
  1318     0DF1  0620               	xorwf	setupINTOSC@IRCF,w
  1319     0DF2  1D03               	btfss	3,2
  1320     0DF3  2DF5               	goto	u2511
  1321     0DF4  2DF6               	goto	u2510
  1322     0DF5                     u2511:
  1323     0DF5  2DFC               	goto	l174
  1324     0DF6                     u2510:
  1325     0DF6                     l1838:
  1326                           
  1327                           ;oscilador.c: 24:         OSCCONbits.IRCF = 0b011;
  1328     0DF6  1683               	bsf	3,5	;RP0=1, select bank1
  1329     0DF7  1303               	bcf	3,6	;RP1=0, select bank1
  1330     0DF8  080F               	movf	15,w	;volatile
  1331     0DF9  398F               	andlw	-113
  1332     0DFA  3830               	iorlw	48
  1333     0DFB  008F               	movwf	15	;volatile
  1334     0DFC                     l174:	
  1335                           ;oscilador.c: 25:     }
  1336                           
  1337                           
  1338                           ;oscilador.c: 26:     if (IRCF == 2){
  1339     0DFC  3002               	movlw	2
  1340     0DFD  1283               	bcf	3,5	;RP0=0, select bank0
  1341     0DFE  0620               	xorwf	setupINTOSC@IRCF,w
  1342     0DFF  1D03               	btfss	3,2
  1343     0E00  2E02               	goto	u2521
  1344     0E01  2E03               	goto	u2520
  1345     0E02                     u2521:
  1346     0E02  2E09               	goto	l175
  1347     0E03                     u2520:
  1348     0E03                     l1840:
  1349                           
  1350                           ;oscilador.c: 27:         OSCCONbits.IRCF = 0b010;
  1351     0E03  1683               	bsf	3,5	;RP0=1, select bank1
  1352     0E04  1303               	bcf	3,6	;RP1=0, select bank1
  1353     0E05  080F               	movf	15,w	;volatile
  1354     0E06  398F               	andlw	-113
  1355     0E07  3820               	iorlw	32
  1356     0E08  008F               	movwf	15	;volatile
  1357     0E09                     l175:	
  1358                           ;oscilador.c: 28:     }
  1359                           
  1360                           
  1361                           ;oscilador.c: 29:     if (IRCF == 1){
  1362     0E09  1283               	bcf	3,5	;RP0=0, select bank0
  1363     0E0A  0320               	decf	setupINTOSC@IRCF,w
  1364     0E0B  1D03               	btfss	3,2
  1365     0E0C  2E0E               	goto	u2531
  1366     0E0D  2E0F               	goto	u2530
  1367     0E0E                     u2531:
  1368     0E0E  2E15               	goto	l176
  1369     0E0F                     u2530:
  1370     0E0F                     l1842:
  1371                           
  1372                           ;oscilador.c: 30:         OSCCONbits.IRCF = 0b001;
  1373     0E0F  1683               	bsf	3,5	;RP0=1, select bank1
  1374     0E10  1303               	bcf	3,6	;RP1=0, select bank1
  1375     0E11  080F               	movf	15,w	;volatile
  1376     0E12  398F               	andlw	-113
  1377     0E13  3810               	iorlw	16
  1378     0E14  008F               	movwf	15	;volatile
  1379     0E15                     l176:	
  1380                           ;oscilador.c: 31:     }
  1381                           
  1382                           
  1383                           ;oscilador.c: 32:     if (IRCF == 0){
  1384     0E15  1283               	bcf	3,5	;RP0=0, select bank0
  1385     0E16  0820               	movf	setupINTOSC@IRCF,w
  1386     0E17  1D03               	btfss	3,2
  1387     0E18  2E1A               	goto	u2541
  1388     0E19  2E1B               	goto	u2540
  1389     0E1A                     u2541:
  1390     0E1A  2E1F               	goto	l1846
  1391     0E1B                     u2540:
  1392     0E1B                     l1844:
  1393                           
  1394                           ;oscilador.c: 33:         OSCCONbits.IRCF = 0b000;
  1395     0E1B  308F               	movlw	-113
  1396     0E1C  1683               	bsf	3,5	;RP0=1, select bank1
  1397     0E1D  1303               	bcf	3,6	;RP1=0, select bank1
  1398     0E1E  058F               	andwf	15,f	;volatile
  1399     0E1F                     l1846:
  1400                           
  1401                           ;oscilador.c: 36:     OSCCONbits.SCS = 1;
  1402     0E1F  1683               	bsf	3,5	;RP0=1, select bank1
  1403     0E20  1303               	bcf	3,6	;RP1=0, select bank1
  1404     0E21  140F               	bsf	15,0	;volatile
  1405     0E22                     l178:
  1406     0E22  0008               	return
  1407     0E23                     __end_of_setupINTOSC:
  1408                           
  1409                           	psect	text7
  1410     0D04                     __ptext7:	
  1411 ;; *************** function _setup *****************
  1412 ;; Defined at:
  1413 ;;		line 123 in file "main.c"
  1414 ;; Parameters:    Size  Location     Type
  1415 ;;		None
  1416 ;; Auto vars:     Size  Location     Type
  1417 ;;		None
  1418 ;; Return value:  Size  Location     Type
  1419 ;;                  1    wreg      void 
  1420 ;; Registers used:
  1421 ;;		status,2
  1422 ;; Tracked objects:
  1423 ;;		On entry : 0/0
  1424 ;;		On exit  : 0/0
  1425 ;;		Unchanged: 0/0
  1426 ;; Data sizes:     COMMON   BANK0   BANK1   BANK3   BANK2
  1427 ;;      Params:         0       0       0       0       0
  1428 ;;      Locals:         0       0       0       0       0
  1429 ;;      Temps:          0       0       0       0       0
  1430 ;;      Totals:         0       0       0       0       0
  1431 ;;Total ram usage:        0 bytes
  1432 ;; Hardware stack levels used: 1
  1433 ;; Hardware stack levels required when called: 1
  1434 ;; This function calls:
  1435 ;;		Nothing
  1436 ;; This function is called by:
  1437 ;;		_main
  1438 ;; This function uses a non-reentrant model
  1439 ;;
  1440                           
  1441     0D04                     _setup:	
  1442                           ;psect for function _setup
  1443                           
  1444     0D04                     l1826:	
  1445                           ;incstack = 0
  1446                           ; Regs used in _setup: [status,2]
  1447                           
  1448                           
  1449                           ;main.c: 124:     ANSELH = 0;
  1450     0D04  1683               	bsf	3,5	;RP0=1, select bank3
  1451     0D05  1703               	bsf	3,6	;RP1=1, select bank3
  1452     0D06  0189               	clrf	9	;volatile
  1453                           
  1454                           ;main.c: 125:     TRISB = 0;
  1455     0D07  1683               	bsf	3,5	;RP0=1, select bank1
  1456     0D08  1303               	bcf	3,6	;RP1=0, select bank1
  1457     0D09  0186               	clrf	6	;volatile
  1458                           
  1459                           ;main.c: 126:     TRISC = 0;
  1460     0D0A  0187               	clrf	7	;volatile
  1461                           
  1462                           ;main.c: 127:     TRISD = 0;
  1463     0D0B  0188               	clrf	8	;volatile
  1464                           
  1465                           ;main.c: 128:     PORTC = 0;
  1466     0D0C  1283               	bcf	3,5	;RP0=0, select bank0
  1467     0D0D  1303               	bcf	3,6	;RP1=0, select bank0
  1468     0D0E  0187               	clrf	7	;volatile
  1469                           
  1470                           ;main.c: 129:     PORTD = 0;
  1471     0D0F  0188               	clrf	8	;volatile
  1472     0D10                     l120:
  1473     0D10  0008               	return
  1474     0D11                     __end_of_setup:
  1475                           
  1476                           	psect	text8
  1477     0678                     __ptext8:	
  1478 ;; *************** function _modomanual *****************
  1479 ;; Defined at:
  1480 ;;		line 244 in file "main.c"
  1481 ;; Parameters:    Size  Location     Type
  1482 ;;		None
  1483 ;; Auto vars:     Size  Location     Type
  1484 ;;		None
  1485 ;; Return value:  Size  Location     Type
  1486 ;;                  1    wreg      void 
  1487 ;; Registers used:
  1488 ;;		wreg, status,2, status,0, btemp+1, pclath, cstack
  1489 ;; Tracked objects:
  1490 ;;		On entry : 0/0
  1491 ;;		On exit  : 0/0
  1492 ;;		Unchanged: 0/0
  1493 ;; Data sizes:     COMMON   BANK0   BANK1   BANK3   BANK2
  1494 ;;      Params:         0       0       0       0       0
  1495 ;;      Locals:         0       0       0       0       0
  1496 ;;      Temps:          0       3       0       0       0
  1497 ;;      Totals:         0       3       0       0       0
  1498 ;;Total ram usage:        3 bytes
  1499 ;; Hardware stack levels used: 1
  1500 ;; Hardware stack levels required when called: 4
  1501 ;; This function calls:
  1502 ;;		_PWMtmr0
  1503 ;;		_PWMtmr1
  1504 ;;		_mapeo
  1505 ;; This function is called by:
  1506 ;;		_main
  1507 ;; This function uses a non-reentrant model
  1508 ;;
  1509                           
  1510     0678                     _modomanual:	
  1511                           ;psect for function _modomanual
  1512                           
  1513     0678                     l1892:	
  1514                           ;incstack = 0
  1515                           ; Regs used in _modomanual: [wreg+status,2+status,0+btemp+1+pclath+cstack]
  1516                           
  1517                           
  1518                           ;main.c: 246:     ADCON0bits.CHS = 0b0000;
  1519     0678  30C3               	movlw	-61
  1520     0679  1283               	bcf	3,5	;RP0=0, select bank0
  1521     067A  1303               	bcf	3,6	;RP1=0, select bank0
  1522     067B  059F               	andwf	31,f	;volatile
  1523     067C                     l1894:
  1524                           
  1525                           ;main.c: 247:     _delay((unsigned long)((100)*(1000000/4000000.0)));
  1526     067C  3007               	movlw	7
  1527     067D  1283               	bcf	3,5	;RP0=0, select bank0
  1528     067E  1303               	bcf	3,6	;RP1=0, select bank0
  1529     067F  00EB               	movwf	??_modomanual
  1530     0680                     u2697:
  1531     0680  0BEB               	decfsz	??_modomanual,f
  1532     0681  2E80               	goto	u2697
  1533     0682  0000               	nop
  1534     0683                     l1896:
  1535                           
  1536                           ;main.c: 248:     ADCON0bits.GO = 1;
  1537     0683  1283               	bcf	3,5	;RP0=0, select bank0
  1538     0684  1303               	bcf	3,6	;RP1=0, select bank0
  1539     0685  149F               	bsf	31,1	;volatile
  1540     0686                     l153:	
  1541                           ;main.c: 249:     while (ADCON0bits.GO == 1);
  1542                           
  1543     0686  189F               	btfsc	31,1	;volatile
  1544     0687  2E89               	goto	u2571
  1545     0688  2E8A               	goto	u2570
  1546     0689                     u2571:
  1547     0689  2E86               	goto	l153
  1548     068A                     u2570:
  1549     068A                     l155:
  1550                           
  1551                           ;main.c: 250:     ADIF = 0;
  1552     068A  130C               	bcf	12,6	;volatile
  1553     068B                     l1898:
  1554                           
  1555                           ;main.c: 252:     mapeo();
  1556     068B  120A  118A  2727  120A  118A  	fcall	_mapeo
  1557     0690                     l1900:
  1558                           
  1559                           ;main.c: 254:     CCP1CONbits.DC1B = vPWMl;
  1560     0690  1683               	bsf	3,5	;RP0=1, select bank1
  1561     0691  1303               	bcf	3,6	;RP1=0, select bank1
  1562     0692  0826               	movf	_vPWMl^(0+128),w
  1563     0693  1283               	bcf	3,5	;RP0=0, select bank0
  1564     0694  1303               	bcf	3,6	;RP1=0, select bank0
  1565     0695  00EB               	movwf	??_modomanual
  1566     0696  0EEB               	swapf	??_modomanual,f
  1567     0697  0817               	movf	23,w	;volatile
  1568     0698  066B               	xorwf	??_modomanual,w
  1569     0699  39CF               	andlw	-49
  1570     069A  066B               	xorwf	??_modomanual,w
  1571     069B  0097               	movwf	23	;volatile
  1572     069C                     l1902:
  1573                           
  1574                           ;main.c: 256:     CCPR1L = vPWMh;
  1575     069C  1683               	bsf	3,5	;RP0=1, select bank1
  1576     069D  1303               	bcf	3,6	;RP1=0, select bank1
  1577     069E  0824               	movf	_vPWMh^(0+128),w
  1578     069F  1283               	bcf	3,5	;RP0=0, select bank0
  1579     06A0  1303               	bcf	3,6	;RP1=0, select bank0
  1580     06A1  0095               	movwf	21	;volatile
  1581     06A2                     l1904:
  1582                           
  1583                           ;main.c: 259:     ADCON0bits.CHS = 0b0001;
  1584     06A2  081F               	movf	31,w	;volatile
  1585     06A3  39C3               	andlw	-61
  1586     06A4  3804               	iorlw	4
  1587     06A5  009F               	movwf	31	;volatile
  1588     06A6                     l1906:
  1589                           
  1590                           ;main.c: 260:     _delay((unsigned long)((100)*(1000000/4000000.0)));
  1591     06A6  3007               	movlw	7
  1592     06A7  1283               	bcf	3,5	;RP0=0, select bank0
  1593     06A8  1303               	bcf	3,6	;RP1=0, select bank0
  1594     06A9  00EB               	movwf	??_modomanual
  1595     06AA                     u2707:
  1596     06AA  0BEB               	decfsz	??_modomanual,f
  1597     06AB  2EAA               	goto	u2707
  1598     06AC  0000               	nop
  1599     06AD                     l1908:
  1600                           
  1601                           ;main.c: 261:     ADCON0bits.GO = 1;
  1602     06AD  1283               	bcf	3,5	;RP0=0, select bank0
  1603     06AE  1303               	bcf	3,6	;RP1=0, select bank0
  1604     06AF  149F               	bsf	31,1	;volatile
  1605     06B0                     l156:	
  1606                           ;main.c: 262:     while (ADCON0bits.GO == 1);
  1607                           
  1608     06B0  189F               	btfsc	31,1	;volatile
  1609     06B1  2EB3               	goto	u2581
  1610     06B2  2EB4               	goto	u2580
  1611     06B3                     u2581:
  1612     06B3  2EB0               	goto	l156
  1613     06B4                     u2580:
  1614     06B4                     l158:
  1615                           
  1616                           ;main.c: 263:     ADIF = 0;
  1617     06B4  130C               	bcf	12,6	;volatile
  1618     06B5                     l1910:
  1619                           
  1620                           ;main.c: 265:     mapeo();
  1621     06B5  120A  118A  2727  120A  118A  	fcall	_mapeo
  1622     06BA                     l1912:
  1623                           
  1624                           ;main.c: 267:     CCP2CONbits.DC2B0 = vPWMl & 0x01;
  1625     06BA  1683               	bsf	3,5	;RP0=1, select bank1
  1626     06BB  1303               	bcf	3,6	;RP1=0, select bank1
  1627     06BC  0826               	movf	_vPWMl^(0+128),w
  1628     06BD  3901               	andlw	1
  1629     06BE  1283               	bcf	3,5	;RP0=0, select bank0
  1630     06BF  1303               	bcf	3,6	;RP1=0, select bank0
  1631     06C0  00EB               	movwf	??_modomanual
  1632     06C1  0EEB               	swapf	??_modomanual,f
  1633     06C2  081D               	movf	29,w	;volatile
  1634     06C3  066B               	xorwf	??_modomanual,w
  1635     06C4  39EF               	andlw	-17
  1636     06C5  066B               	xorwf	??_modomanual,w
  1637     06C6  009D               	movwf	29	;volatile
  1638     06C7                     l1914:
  1639                           
  1640                           ;main.c: 268:     CCP2CONbits.DC2B1 = ((vPWMl & 0x02) >> 1);
  1641     06C7  1683               	bsf	3,5	;RP0=1, select bank1
  1642     06C8  1303               	bcf	3,6	;RP1=0, select bank1
  1643     06C9  0827               	movf	(_vPWMl+1)^(0+128),w
  1644     06CA  1283               	bcf	3,5	;RP0=0, select bank0
  1645     06CB  1303               	bcf	3,6	;RP1=0, select bank0
  1646     06CC  00EC               	movwf	??_modomanual+1
  1647     06CD  1683               	bsf	3,5	;RP0=1, select bank1
  1648     06CE  1303               	bcf	3,6	;RP1=0, select bank1
  1649     06CF  0826               	movf	_vPWMl^(0+128),w
  1650     06D0  1283               	bcf	3,5	;RP0=0, select bank0
  1651     06D1  1303               	bcf	3,6	;RP1=0, select bank0
  1652     06D2  00EB               	movwf	??_modomanual
  1653     06D3  1003               	clrc
  1654     06D4  0CEC               	rrf	??_modomanual+1,f
  1655     06D5  0CEB               	rrf	??_modomanual,f
  1656     06D6  086B               	movf	??_modomanual,w
  1657     06D7  3901               	andlw	1
  1658     06D8  00ED               	movwf	??_modomanual+2
  1659     06D9  0EED               	swapf	??_modomanual+2,f
  1660     06DA  0DED               	rlf	??_modomanual+2,f
  1661     06DB  081D               	movf	29,w	;volatile
  1662     06DC  066D               	xorwf	??_modomanual+2,w
  1663     06DD  39DF               	andlw	-33
  1664     06DE  066D               	xorwf	??_modomanual+2,w
  1665     06DF  009D               	movwf	29	;volatile
  1666     06E0                     l1916:
  1667                           
  1668                           ;main.c: 270:     CCPR2L = vPWMh;
  1669     06E0  1683               	bsf	3,5	;RP0=1, select bank1
  1670     06E1  1303               	bcf	3,6	;RP1=0, select bank1
  1671     06E2  0824               	movf	_vPWMh^(0+128),w
  1672     06E3  1283               	bcf	3,5	;RP0=0, select bank0
  1673     06E4  1303               	bcf	3,6	;RP1=0, select bank0
  1674     06E5  009B               	movwf	27	;volatile
  1675     06E6                     l1918:
  1676                           
  1677                           ;main.c: 273:     ADCON0bits.CHS = 0b0010;
  1678     06E6  081F               	movf	31,w	;volatile
  1679     06E7  39C3               	andlw	-61
  1680     06E8  3808               	iorlw	8
  1681     06E9  009F               	movwf	31	;volatile
  1682     06EA                     l1920:
  1683                           
  1684                           ;main.c: 274:     _delay((unsigned long)((100)*(1000000/4000000.0)));
  1685     06EA  3007               	movlw	7
  1686     06EB  1283               	bcf	3,5	;RP0=0, select bank0
  1687     06EC  1303               	bcf	3,6	;RP1=0, select bank0
  1688     06ED  00EB               	movwf	??_modomanual
  1689     06EE                     u2717:
  1690     06EE  0BEB               	decfsz	??_modomanual,f
  1691     06EF  2EEE               	goto	u2717
  1692     06F0  0000               	nop
  1693     06F1                     l1922:
  1694                           
  1695                           ;main.c: 275:     ADCON0bits.GO = 1;
  1696     06F1  1283               	bcf	3,5	;RP0=0, select bank0
  1697     06F2  1303               	bcf	3,6	;RP1=0, select bank0
  1698     06F3  149F               	bsf	31,1	;volatile
  1699     06F4                     l159:	
  1700                           ;main.c: 276:     while (ADCON0bits.GO == 1);
  1701                           
  1702     06F4  189F               	btfsc	31,1	;volatile
  1703     06F5  2EF7               	goto	u2591
  1704     06F6  2EF8               	goto	u2590
  1705     06F7                     u2591:
  1706     06F7  2EF4               	goto	l159
  1707     06F8                     u2590:
  1708     06F8                     l161:
  1709                           
  1710                           ;main.c: 277:     ADIF = 0;
  1711     06F8  130C               	bcf	12,6	;volatile
  1712     06F9                     l1924:
  1713                           
  1714                           ;main.c: 278:     PWMtmr0();
  1715     06F9  120A  158A  2696  120A  118A  	fcall	_PWMtmr0
  1716     06FE                     l1926:
  1717                           
  1718                           ;main.c: 279:     _delay((unsigned long)((100)*(1000000/4000000.0)));
  1719     06FE  3007               	movlw	7
  1720     06FF  1283               	bcf	3,5	;RP0=0, select bank0
  1721     0700  1303               	bcf	3,6	;RP1=0, select bank0
  1722     0701  00EB               	movwf	??_modomanual
  1723     0702                     u2727:
  1724     0702  0BEB               	decfsz	??_modomanual,f
  1725     0703  2F02               	goto	u2727
  1726     0704  0000               	nop
  1727     0705                     l1928:
  1728                           
  1729                           ;main.c: 282:     ADCON0bits.CHS = 0b0011;
  1730     0705  1283               	bcf	3,5	;RP0=0, select bank0
  1731     0706  1303               	bcf	3,6	;RP1=0, select bank0
  1732     0707  081F               	movf	31,w	;volatile
  1733     0708  39C3               	andlw	-61
  1734     0709  380C               	iorlw	12
  1735     070A  009F               	movwf	31	;volatile
  1736     070B                     l1930:
  1737                           
  1738                           ;main.c: 283:     _delay((unsigned long)((100)*(1000000/4000000.0)));
  1739     070B  3007               	movlw	7
  1740     070C  1283               	bcf	3,5	;RP0=0, select bank0
  1741     070D  1303               	bcf	3,6	;RP1=0, select bank0
  1742     070E  00EB               	movwf	??_modomanual
  1743     070F                     u2737:
  1744     070F  0BEB               	decfsz	??_modomanual,f
  1745     0710  2F0F               	goto	u2737
  1746     0711  0000               	nop
  1747     0712                     l1932:
  1748                           
  1749                           ;main.c: 284:     ADCON0bits.GO = 1;
  1750     0712  1283               	bcf	3,5	;RP0=0, select bank0
  1751     0713  1303               	bcf	3,6	;RP1=0, select bank0
  1752     0714  149F               	bsf	31,1	;volatile
  1753     0715                     l162:	
  1754                           ;main.c: 285:     while (ADCON0bits.GO == 1);
  1755                           
  1756     0715  189F               	btfsc	31,1	;volatile
  1757     0716  2F18               	goto	u2601
  1758     0717  2F19               	goto	u2600
  1759     0718                     u2601:
  1760     0718  2F15               	goto	l162
  1761     0719                     u2600:
  1762     0719                     l164:
  1763                           
  1764                           ;main.c: 286:     ADIF = 0;
  1765     0719  130C               	bcf	12,6	;volatile
  1766     071A                     l1934:
  1767                           
  1768                           ;main.c: 287:     PWMtmr1();
  1769     071A  120A  158A  2785  120A  118A  	fcall	_PWMtmr1
  1770     071F                     l1936:
  1771                           
  1772                           ;main.c: 288:     _delay((unsigned long)((100)*(1000000/4000000.0)));
  1773     071F  3007               	movlw	7
  1774     0720  1283               	bcf	3,5	;RP0=0, select bank0
  1775     0721  1303               	bcf	3,6	;RP1=0, select bank0
  1776     0722  00EB               	movwf	??_modomanual
  1777     0723                     u2747:
  1778     0723  0BEB               	decfsz	??_modomanual,f
  1779     0724  2F23               	goto	u2747
  1780     0725  0000               	nop
  1781     0726                     l165:
  1782     0726  0008               	return
  1783     0727                     __end_of_modomanual:
  1784                           
  1785                           	psect	text9
  1786     0727                     __ptext9:	
  1787 ;; *************** function _mapeo *****************
  1788 ;; Defined at:
  1789 ;;		line 230 in file "main.c"
  1790 ;; Parameters:    Size  Location     Type
  1791 ;;		None
  1792 ;; Auto vars:     Size  Location     Type
  1793 ;;		None
  1794 ;; Return value:  Size  Location     Type
  1795 ;;                  1    wreg      void 
  1796 ;; Registers used:
  1797 ;;		wreg, status,2, status,0, btemp+1, pclath, cstack
  1798 ;; Tracked objects:
  1799 ;;		On entry : 0/0
  1800 ;;		On exit  : 0/0
  1801 ;;		Unchanged: 0/0
  1802 ;; Data sizes:     COMMON   BANK0   BANK1   BANK3   BANK2
  1803 ;;      Params:         0       0       0       0       0
  1804 ;;      Locals:         0       0       0       0       0
  1805 ;;      Temps:          0       5       0       0       0
  1806 ;;      Totals:         0       5       0       0       0
  1807 ;;Total ram usage:        5 bytes
  1808 ;; Hardware stack levels used: 1
  1809 ;; Hardware stack levels required when called: 3
  1810 ;; This function calls:
  1811 ;;		___fladd
  1812 ;;		___flmul
  1813 ;;		___fltol
  1814 ;;		___xxtofl
  1815 ;; This function is called by:
  1816 ;;		_modomanual
  1817 ;; This function uses a non-reentrant model
  1818 ;;
  1819                           
  1820     0727                     _mapeo:	
  1821                           ;psect for function _mapeo
  1822                           
  1823     0727                     l1818:	
  1824                           ;incstack = 0
  1825                           ; Regs used in _mapeo: [wreg+status,2+status,0+btemp+1+pclath+cstack]
  1826                           
  1827                           
  1828                           ;main.c: 232:     valADC = ((ADRESH << 2) + (ADRESL >> 6));
  1829     0727  1683               	bsf	3,5	;RP0=1, select bank1
  1830     0728  1303               	bcf	3,6	;RP1=0, select bank1
  1831     0729  081E               	movf	30,w	;volatile
  1832     072A  1283               	bcf	3,5	;RP0=0, select bank0
  1833     072B  1303               	bcf	3,6	;RP1=0, select bank0
  1834     072C  00E6               	movwf	??_mapeo
  1835     072D  3006               	movlw	6
  1836     072E                     u2465:
  1837     072E  1003               	clrc
  1838     072F  0CE6               	rrf	??_mapeo,f
  1839     0730  3EFF               	addlw	-1
  1840     0731  1D03               	skipz
  1841     0732  2F2E               	goto	u2465
  1842     0733  081E               	movf	30,w	;volatile
  1843     0734  00E7               	movwf	??_mapeo+1
  1844     0735  01E8               	clrf	??_mapeo+2
  1845     0736  1003               	clrc
  1846     0737  0DE7               	rlf	??_mapeo+1,f
  1847     0738  0DE8               	rlf	??_mapeo+2,f
  1848     0739  1003               	clrc
  1849     073A  0DE7               	rlf	??_mapeo+1,f
  1850     073B  0DE8               	rlf	??_mapeo+2,f
  1851     073C  0866               	movf	??_mapeo,w
  1852     073D  0767               	addwf	??_mapeo+1,w
  1853     073E  00E9               	movwf	??_mapeo+3
  1854     073F  3000               	movlw	0
  1855     0740  1803               	skipnc
  1856     0741  3001               	movlw	1
  1857     0742  0768               	addwf	??_mapeo+2,w
  1858     0743  00EA               	movwf	??_mapeo+4
  1859     0744  0869               	movf	??_mapeo+3,w
  1860     0745  00FB               	movwf	_valADC
  1861     0746  086A               	movf	??_mapeo+4,w
  1862     0747  00FC               	movwf	_valADC+1
  1863     0748                     l1820:
  1864                           
  1865                           ;main.c: 234:     vPWM = (0.061*valADC + 63);
  1866     0748  087B               	movf	_valADC,w
  1867     0749  00A0               	movwf	___xxtofl@val
  1868     074A  087C               	movf	_valADC+1,w
  1869     074B  00A1               	movwf	___xxtofl@val+1
  1870     074C  01A2               	clrf	___xxtofl@val+2
  1871     074D  01A3               	clrf	___xxtofl@val+3
  1872     074E  3000               	movlw	0
  1873     074F  120A  118A  25BE  120A  118A  	fcall	___xxtofl
  1874     0754  1283               	bcf	3,5	;RP0=0, select bank0
  1875     0755  1303               	bcf	3,6	;RP1=0, select bank0
  1876     0756  0823               	movf	?___xxtofl+3,w
  1877     0757  00B5               	movwf	___flmul@a+3
  1878     0758  0822               	movf	?___xxtofl+2,w
  1879     0759  00B4               	movwf	___flmul@a+2
  1880     075A  0821               	movf	?___xxtofl+1,w
  1881     075B  00B3               	movwf	___flmul@a+1
  1882     075C  0820               	movf	?___xxtofl,w
  1883     075D  00B2               	movwf	___flmul@a
  1884     075E  303D               	movlw	61
  1885     075F  00B1               	movwf	___flmul@b+3
  1886     0760  3079               	movlw	121
  1887     0761  00B0               	movwf	___flmul@b+2
  1888     0762  30DB               	movlw	219
  1889     0763  00AF               	movwf	___flmul@b+1
  1890     0764  3023               	movlw	35
  1891     0765  00AE               	movwf	___flmul@b
  1892     0766  120A  118A  2021  120A  118A  	fcall	___flmul
  1893     076B  1283               	bcf	3,5	;RP0=0, select bank0
  1894     076C  1303               	bcf	3,6	;RP1=0, select bank0
  1895     076D  0831               	movf	?___flmul+3,w
  1896     076E  00CF               	movwf	___fladd@a+3
  1897     076F  0830               	movf	?___flmul+2,w
  1898     0770  00CE               	movwf	___fladd@a+2
  1899     0771  082F               	movf	?___flmul+1,w
  1900     0772  00CD               	movwf	___fladd@a+1
  1901     0773  082E               	movf	?___flmul,w
  1902     0774  00CC               	movwf	___fladd@a
  1903     0775  3042               	movlw	66
  1904     0776  00CB               	movwf	___fladd@b+3
  1905     0777  307C               	movlw	124
  1906     0778  00CA               	movwf	___fladd@b+2
  1907     0779  3000               	movlw	0
  1908     077A  00C9               	movwf	___fladd@b+1
  1909     077B  3000               	movlw	0
  1910     077C  00C8               	movwf	___fladd@b
  1911     077D  120A  118A  2366  120A  118A  	fcall	___fladd
  1912     0782  1283               	bcf	3,5	;RP0=0, select bank0
  1913     0783  1303               	bcf	3,6	;RP1=0, select bank0
  1914     0784  084B               	movf	?___fladd+3,w
  1915     0785  00DF               	movwf	___fltol@f1+3
  1916     0786  084A               	movf	?___fladd+2,w
  1917     0787  00DE               	movwf	___fltol@f1+2
  1918     0788  0849               	movf	?___fladd+1,w
  1919     0789  00DD               	movwf	___fltol@f1+1
  1920     078A  0848               	movf	?___fladd,w
  1921     078B  00DC               	movwf	___fltol@f1
  1922     078C  120A  158A  270D  120A  118A  	fcall	___fltol
  1923     0791  1283               	bcf	3,5	;RP0=0, select bank0
  1924     0792  1303               	bcf	3,6	;RP1=0, select bank0
  1925     0793  085D               	movf	?___fltol+1,w
  1926     0794  1683               	bsf	3,5	;RP0=1, select bank1
  1927     0795  1303               	bcf	3,6	;RP1=0, select bank1
  1928     0796  00A9               	movwf	(_vPWM+1)^(0+128)
  1929     0797  1283               	bcf	3,5	;RP0=0, select bank0
  1930     0798  1303               	bcf	3,6	;RP1=0, select bank0
  1931     0799  085C               	movf	?___fltol,w
  1932     079A  1683               	bsf	3,5	;RP0=1, select bank1
  1933     079B  1303               	bcf	3,6	;RP1=0, select bank1
  1934     079C  00A8               	movwf	_vPWM^(0+128)
  1935     079D                     l1822:
  1936                           
  1937                           ;main.c: 236:     vPWMl = vPWM & 0x003;
  1938     079D  3003               	movlw	3
  1939     079E  0528               	andwf	_vPWM^(0+128),w
  1940     079F  00A6               	movwf	_vPWMl^(0+128)
  1941     07A0  3000               	movlw	0
  1942     07A1  0529               	andwf	(_vPWM+1)^(0+128),w
  1943     07A2  00A7               	movwf	(_vPWMl+1)^(0+128)
  1944     07A3                     l1824:
  1945                           
  1946                           ;main.c: 238:     vPWMh = (vPWM & 0x3FC) >> 2;
  1947     07A3  0829               	movf	(_vPWM+1)^(0+128),w
  1948     07A4  1283               	bcf	3,5	;RP0=0, select bank0
  1949     07A5  1303               	bcf	3,6	;RP1=0, select bank0
  1950     07A6  00E7               	movwf	??_mapeo+1
  1951     07A7  1683               	bsf	3,5	;RP0=1, select bank1
  1952     07A8  1303               	bcf	3,6	;RP1=0, select bank1
  1953     07A9  0828               	movf	_vPWM^(0+128),w
  1954     07AA  1283               	bcf	3,5	;RP0=0, select bank0
  1955     07AB  1303               	bcf	3,6	;RP1=0, select bank0
  1956     07AC  00E6               	movwf	??_mapeo
  1957     07AD  1003               	clrc
  1958     07AE  0CE7               	rrf	??_mapeo+1,f
  1959     07AF  0CE6               	rrf	??_mapeo,f
  1960     07B0  1003               	clrc
  1961     07B1  0CE7               	rrf	??_mapeo+1,f
  1962     07B2  0CE6               	rrf	??_mapeo,f
  1963     07B3  30FF               	movlw	255
  1964     07B4  0566               	andwf	??_mapeo,w
  1965     07B5  1683               	bsf	3,5	;RP0=1, select bank1
  1966     07B6  1303               	bcf	3,6	;RP1=0, select bank1
  1967     07B7  00A4               	movwf	_vPWMh^(0+128)
  1968     07B8  3000               	movlw	0
  1969     07B9  1283               	bcf	3,5	;RP0=0, select bank0
  1970     07BA  1303               	bcf	3,6	;RP1=0, select bank0
  1971     07BB  0567               	andwf	??_mapeo+1,w
  1972     07BC  1683               	bsf	3,5	;RP0=1, select bank1
  1973     07BD  1303               	bcf	3,6	;RP1=0, select bank1
  1974     07BE  00A5               	movwf	(_vPWMh+1)^(0+128)
  1975     07BF                     l150:
  1976     07BF  0008               	return
  1977     07C0                     __end_of_mapeo:
  1978                           
  1979                           	psect	text10
  1980     0F85                     __ptext10:	
  1981 ;; *************** function _PWMtmr1 *****************
  1982 ;; Defined at:
  1983 ;;		line 222 in file "main.c"
  1984 ;; Parameters:    Size  Location     Type
  1985 ;;		None
  1986 ;; Auto vars:     Size  Location     Type
  1987 ;;		None
  1988 ;; Return value:  Size  Location     Type
  1989 ;;                  1    wreg      void 
  1990 ;; Registers used:
  1991 ;;		wreg, status,2, status,0, btemp+1, pclath, cstack
  1992 ;; Tracked objects:
  1993 ;;		On entry : 0/0
  1994 ;;		On exit  : 0/0
  1995 ;;		Unchanged: 0/0
  1996 ;; Data sizes:     COMMON   BANK0   BANK1   BANK3   BANK2
  1997 ;;      Params:         0       0       0       0       0
  1998 ;;      Locals:         0       0       0       0       0
  1999 ;;      Temps:          0       5       0       0       0
  2000 ;;      Totals:         0       5       0       0       0
  2001 ;;Total ram usage:        5 bytes
  2002 ;; Hardware stack levels used: 1
  2003 ;; Hardware stack levels required when called: 3
  2004 ;; This function calls:
  2005 ;;		___fladd
  2006 ;;		___flmul
  2007 ;;		___fltol
  2008 ;;		___xxtofl
  2009 ;; This function is called by:
  2010 ;;		_modomanual
  2011 ;; This function uses a non-reentrant model
  2012 ;;
  2013                           
  2014     0F85                     _PWMtmr1:	
  2015                           ;psect for function _PWMtmr1
  2016                           
  2017     0F85                     l1812:	
  2018                           ;incstack = 0
  2019                           ; Regs used in _PWMtmr1: [wreg+status,2+status,0+btemp+1+pclath+cstack]
  2020                           
  2021                           
  2022                           ;main.c: 223:     valADC = ((ADRESH << 2) + (ADRESL >> 6));
  2023     0F85  1683               	bsf	3,5	;RP0=1, select bank1
  2024     0F86  1303               	bcf	3,6	;RP1=0, select bank1
  2025     0F87  081E               	movf	30,w	;volatile
  2026     0F88  1283               	bcf	3,5	;RP0=0, select bank0
  2027     0F89  1303               	bcf	3,6	;RP1=0, select bank0
  2028     0F8A  00E6               	movwf	??_PWMtmr1
  2029     0F8B  3006               	movlw	6
  2030     0F8C                     u2455:
  2031     0F8C  1003               	clrc
  2032     0F8D  0CE6               	rrf	??_PWMtmr1,f
  2033     0F8E  3EFF               	addlw	-1
  2034     0F8F  1D03               	skipz
  2035     0F90  2F8C               	goto	u2455
  2036     0F91  081E               	movf	30,w	;volatile
  2037     0F92  00E7               	movwf	??_PWMtmr1+1
  2038     0F93  01E8               	clrf	??_PWMtmr1+2
  2039     0F94  1003               	clrc
  2040     0F95  0DE7               	rlf	??_PWMtmr1+1,f
  2041     0F96  0DE8               	rlf	??_PWMtmr1+2,f
  2042     0F97  1003               	clrc
  2043     0F98  0DE7               	rlf	??_PWMtmr1+1,f
  2044     0F99  0DE8               	rlf	??_PWMtmr1+2,f
  2045     0F9A  0866               	movf	??_PWMtmr1,w
  2046     0F9B  0767               	addwf	??_PWMtmr1+1,w
  2047     0F9C  00E9               	movwf	??_PWMtmr1+3
  2048     0F9D  3000               	movlw	0
  2049     0F9E  1803               	skipnc
  2050     0F9F  3001               	movlw	1
  2051     0FA0  0768               	addwf	??_PWMtmr1+2,w
  2052     0FA1  00EA               	movwf	??_PWMtmr1+4
  2053     0FA2  0869               	movf	??_PWMtmr1+3,w
  2054     0FA3  00FB               	movwf	_valADC
  2055     0FA4  086A               	movf	??_PWMtmr1+4,w
  2056     0FA5  00FC               	movwf	_valADC+1
  2057     0FA6                     l1814:
  2058                           
  2059                           ;main.c: 224:     HIGHpulse1 = (0.37*valADC + 65036);
  2060     0FA6  087B               	movf	_valADC,w
  2061     0FA7  00A0               	movwf	___xxtofl@val
  2062     0FA8  087C               	movf	_valADC+1,w
  2063     0FA9  00A1               	movwf	___xxtofl@val+1
  2064     0FAA  01A2               	clrf	___xxtofl@val+2
  2065     0FAB  01A3               	clrf	___xxtofl@val+3
  2066     0FAC  3000               	movlw	0
  2067     0FAD  120A  118A  25BE  120A  158A  	fcall	___xxtofl
  2068     0FB2  1283               	bcf	3,5	;RP0=0, select bank0
  2069     0FB3  1303               	bcf	3,6	;RP1=0, select bank0
  2070     0FB4  0823               	movf	?___xxtofl+3,w
  2071     0FB5  00B5               	movwf	___flmul@a+3
  2072     0FB6  0822               	movf	?___xxtofl+2,w
  2073     0FB7  00B4               	movwf	___flmul@a+2
  2074     0FB8  0821               	movf	?___xxtofl+1,w
  2075     0FB9  00B3               	movwf	___flmul@a+1
  2076     0FBA  0820               	movf	?___xxtofl,w
  2077     0FBB  00B2               	movwf	___flmul@a
  2078     0FBC  303E               	movlw	62
  2079     0FBD  00B1               	movwf	___flmul@b+3
  2080     0FBE  30BD               	movlw	189
  2081     0FBF  00B0               	movwf	___flmul@b+2
  2082     0FC0  3070               	movlw	112
  2083     0FC1  00AF               	movwf	___flmul@b+1
  2084     0FC2  30A4               	movlw	164
  2085     0FC3  00AE               	movwf	___flmul@b
  2086     0FC4  120A  118A  2021  120A  158A  	fcall	___flmul
  2087     0FC9  1283               	bcf	3,5	;RP0=0, select bank0
  2088     0FCA  1303               	bcf	3,6	;RP1=0, select bank0
  2089     0FCB  0831               	movf	?___flmul+3,w
  2090     0FCC  00CF               	movwf	___fladd@a+3
  2091     0FCD  0830               	movf	?___flmul+2,w
  2092     0FCE  00CE               	movwf	___fladd@a+2
  2093     0FCF  082F               	movf	?___flmul+1,w
  2094     0FD0  00CD               	movwf	___fladd@a+1
  2095     0FD1  082E               	movf	?___flmul,w
  2096     0FD2  00CC               	movwf	___fladd@a
  2097     0FD3  3047               	movlw	71
  2098     0FD4  00CB               	movwf	___fladd@b+3
  2099     0FD5  307E               	movlw	126
  2100     0FD6  00CA               	movwf	___fladd@b+2
  2101     0FD7  300C               	movlw	12
  2102     0FD8  00C9               	movwf	___fladd@b+1
  2103     0FD9  3000               	movlw	0
  2104     0FDA  00C8               	movwf	___fladd@b
  2105     0FDB  120A  118A  2366  120A  158A  	fcall	___fladd
  2106     0FE0  1283               	bcf	3,5	;RP0=0, select bank0
  2107     0FE1  1303               	bcf	3,6	;RP1=0, select bank0
  2108     0FE2  084B               	movf	?___fladd+3,w
  2109     0FE3  00DF               	movwf	___fltol@f1+3
  2110     0FE4  084A               	movf	?___fladd+2,w
  2111     0FE5  00DE               	movwf	___fltol@f1+2
  2112     0FE6  0849               	movf	?___fladd+1,w
  2113     0FE7  00DD               	movwf	___fltol@f1+1
  2114     0FE8  0848               	movf	?___fladd,w
  2115     0FE9  00DC               	movwf	___fltol@f1
  2116     0FEA  120A  158A  270D  120A  158A  	fcall	___fltol
  2117     0FEF  1283               	bcf	3,5	;RP0=0, select bank0
  2118     0FF0  1303               	bcf	3,6	;RP1=0, select bank0
  2119     0FF1  085D               	movf	?___fltol+1,w
  2120     0FF2  1683               	bsf	3,5	;RP0=1, select bank1
  2121     0FF3  1303               	bcf	3,6	;RP1=0, select bank1
  2122     0FF4  00A1               	movwf	(_HIGHpulse1+1)^(0+128)
  2123     0FF5  1283               	bcf	3,5	;RP0=0, select bank0
  2124     0FF6  1303               	bcf	3,6	;RP1=0, select bank0
  2125     0FF7  085C               	movf	?___fltol,w
  2126     0FF8  1683               	bsf	3,5	;RP0=1, select bank1
  2127     0FF9  1303               	bcf	3,6	;RP1=0, select bank1
  2128     0FFA  00A0               	movwf	_HIGHpulse1^(0+128)
  2129     0FFB                     l1816:
  2130                           
  2131                           ;main.c: 225:     PORTD = valADC;
  2132     0FFB  087B               	movf	_valADC,w
  2133     0FFC  1283               	bcf	3,5	;RP0=0, select bank0
  2134     0FFD  1303               	bcf	3,6	;RP1=0, select bank0
  2135     0FFE  0088               	movwf	8	;volatile
  2136     0FFF                     l147:
  2137     0FFF  0008               	return
  2138     1000                     __end_of_PWMtmr1:
  2139                           
  2140                           	psect	text11
  2141     0E96                     __ptext11:	
  2142 ;; *************** function _PWMtmr0 *****************
  2143 ;; Defined at:
  2144 ;;		line 215 in file "main.c"
  2145 ;; Parameters:    Size  Location     Type
  2146 ;;		None
  2147 ;; Auto vars:     Size  Location     Type
  2148 ;;		None
  2149 ;; Return value:  Size  Location     Type
  2150 ;;                  1    wreg      void 
  2151 ;; Registers used:
  2152 ;;		wreg, status,2, status,0, btemp+1, pclath, cstack
  2153 ;; Tracked objects:
  2154 ;;		On entry : 0/0
  2155 ;;		On exit  : 0/0
  2156 ;;		Unchanged: 0/0
  2157 ;; Data sizes:     COMMON   BANK0   BANK1   BANK3   BANK2
  2158 ;;      Params:         0       0       0       0       0
  2159 ;;      Locals:         0       0       0       0       0
  2160 ;;      Temps:          0       5       0       0       0
  2161 ;;      Totals:         0       5       0       0       0
  2162 ;;Total ram usage:        5 bytes
  2163 ;; Hardware stack levels used: 1
  2164 ;; Hardware stack levels required when called: 3
  2165 ;; This function calls:
  2166 ;;		___fladd
  2167 ;;		___flmul
  2168 ;;		___fltol
  2169 ;;		___xxtofl
  2170 ;; This function is called by:
  2171 ;;		_modomanual
  2172 ;; This function uses a non-reentrant model
  2173 ;;
  2174                           
  2175     0E96                     _PWMtmr0:	
  2176                           ;psect for function _PWMtmr0
  2177                           
  2178     0E96                     l1808:	
  2179                           ;incstack = 0
  2180                           ; Regs used in _PWMtmr0: [wreg+status,2+status,0+btemp+1+pclath+cstack]
  2181                           
  2182                           
  2183                           ;main.c: 216:     valADC = ((ADRESH << 2) + (ADRESL >> 6));
  2184     0E96  1683               	bsf	3,5	;RP0=1, select bank1
  2185     0E97  1303               	bcf	3,6	;RP1=0, select bank1
  2186     0E98  081E               	movf	30,w	;volatile
  2187     0E99  1283               	bcf	3,5	;RP0=0, select bank0
  2188     0E9A  1303               	bcf	3,6	;RP1=0, select bank0
  2189     0E9B  00E6               	movwf	??_PWMtmr0
  2190     0E9C  3006               	movlw	6
  2191     0E9D                     u2445:
  2192     0E9D  1003               	clrc
  2193     0E9E  0CE6               	rrf	??_PWMtmr0,f
  2194     0E9F  3EFF               	addlw	-1
  2195     0EA0  1D03               	skipz
  2196     0EA1  2E9D               	goto	u2445
  2197     0EA2  081E               	movf	30,w	;volatile
  2198     0EA3  00E7               	movwf	??_PWMtmr0+1
  2199     0EA4  01E8               	clrf	??_PWMtmr0+2
  2200     0EA5  1003               	clrc
  2201     0EA6  0DE7               	rlf	??_PWMtmr0+1,f
  2202     0EA7  0DE8               	rlf	??_PWMtmr0+2,f
  2203     0EA8  1003               	clrc
  2204     0EA9  0DE7               	rlf	??_PWMtmr0+1,f
  2205     0EAA  0DE8               	rlf	??_PWMtmr0+2,f
  2206     0EAB  0866               	movf	??_PWMtmr0,w
  2207     0EAC  0767               	addwf	??_PWMtmr0+1,w
  2208     0EAD  00E9               	movwf	??_PWMtmr0+3
  2209     0EAE  3000               	movlw	0
  2210     0EAF  1803               	skipnc
  2211     0EB0  3001               	movlw	1
  2212     0EB1  0768               	addwf	??_PWMtmr0+2,w
  2213     0EB2  00EA               	movwf	??_PWMtmr0+4
  2214     0EB3  0869               	movf	??_PWMtmr0+3,w
  2215     0EB4  00FB               	movwf	_valADC
  2216     0EB5  086A               	movf	??_PWMtmr0+4,w
  2217     0EB6  00FC               	movwf	_valADC+1
  2218     0EB7                     l1810:
  2219                           
  2220                           ;main.c: 217:     HIGHpulse = (0.017*valADC + 226);
  2221     0EB7  087B               	movf	_valADC,w
  2222     0EB8  00A0               	movwf	___xxtofl@val
  2223     0EB9  087C               	movf	_valADC+1,w
  2224     0EBA  00A1               	movwf	___xxtofl@val+1
  2225     0EBB  01A2               	clrf	___xxtofl@val+2
  2226     0EBC  01A3               	clrf	___xxtofl@val+3
  2227     0EBD  3000               	movlw	0
  2228     0EBE  120A  118A  25BE  120A  158A  	fcall	___xxtofl
  2229     0EC3  1283               	bcf	3,5	;RP0=0, select bank0
  2230     0EC4  1303               	bcf	3,6	;RP1=0, select bank0
  2231     0EC5  0823               	movf	?___xxtofl+3,w
  2232     0EC6  00B5               	movwf	___flmul@a+3
  2233     0EC7  0822               	movf	?___xxtofl+2,w
  2234     0EC8  00B4               	movwf	___flmul@a+2
  2235     0EC9  0821               	movf	?___xxtofl+1,w
  2236     0ECA  00B3               	movwf	___flmul@a+1
  2237     0ECB  0820               	movf	?___xxtofl,w
  2238     0ECC  00B2               	movwf	___flmul@a
  2239     0ECD  303C               	movlw	60
  2240     0ECE  00B1               	movwf	___flmul@b+3
  2241     0ECF  308B               	movlw	139
  2242     0ED0  00B0               	movwf	___flmul@b+2
  2243     0ED1  3043               	movlw	67
  2244     0ED2  00AF               	movwf	___flmul@b+1
  2245     0ED3  3096               	movlw	150
  2246     0ED4  00AE               	movwf	___flmul@b
  2247     0ED5  120A  118A  2021  120A  158A  	fcall	___flmul
  2248     0EDA  1283               	bcf	3,5	;RP0=0, select bank0
  2249     0EDB  1303               	bcf	3,6	;RP1=0, select bank0
  2250     0EDC  0831               	movf	?___flmul+3,w
  2251     0EDD  00CF               	movwf	___fladd@a+3
  2252     0EDE  0830               	movf	?___flmul+2,w
  2253     0EDF  00CE               	movwf	___fladd@a+2
  2254     0EE0  082F               	movf	?___flmul+1,w
  2255     0EE1  00CD               	movwf	___fladd@a+1
  2256     0EE2  082E               	movf	?___flmul,w
  2257     0EE3  00CC               	movwf	___fladd@a
  2258     0EE4  3043               	movlw	67
  2259     0EE5  00CB               	movwf	___fladd@b+3
  2260     0EE6  3062               	movlw	98
  2261     0EE7  00CA               	movwf	___fladd@b+2
  2262     0EE8  3000               	movlw	0
  2263     0EE9  00C9               	movwf	___fladd@b+1
  2264     0EEA  3000               	movlw	0
  2265     0EEB  00C8               	movwf	___fladd@b
  2266     0EEC  120A  118A  2366  120A  158A  	fcall	___fladd
  2267     0EF1  1283               	bcf	3,5	;RP0=0, select bank0
  2268     0EF2  1303               	bcf	3,6	;RP1=0, select bank0
  2269     0EF3  084B               	movf	?___fladd+3,w
  2270     0EF4  00DF               	movwf	___fltol@f1+3
  2271     0EF5  084A               	movf	?___fladd+2,w
  2272     0EF6  00DE               	movwf	___fltol@f1+2
  2273     0EF7  0849               	movf	?___fladd+1,w
  2274     0EF8  00DD               	movwf	___fltol@f1+1
  2275     0EF9  0848               	movf	?___fladd,w
  2276     0EFA  00DC               	movwf	___fltol@f1
  2277     0EFB  120A  158A  270D  120A  158A  	fcall	___fltol
  2278     0F00  1283               	bcf	3,5	;RP0=0, select bank0
  2279     0F01  1303               	bcf	3,6	;RP1=0, select bank0
  2280     0F02  085D               	movf	?___fltol+1,w
  2281     0F03  1683               	bsf	3,5	;RP0=1, select bank1
  2282     0F04  1303               	bcf	3,6	;RP1=0, select bank1
  2283     0F05  00A3               	movwf	(_HIGHpulse+1)^(0+128)
  2284     0F06  1283               	bcf	3,5	;RP0=0, select bank0
  2285     0F07  1303               	bcf	3,6	;RP1=0, select bank0
  2286     0F08  085C               	movf	?___fltol,w
  2287     0F09  1683               	bsf	3,5	;RP0=1, select bank1
  2288     0F0A  1303               	bcf	3,6	;RP1=0, select bank1
  2289     0F0B  00A2               	movwf	_HIGHpulse^(0+128)
  2290     0F0C                     l144:
  2291     0F0C  0008               	return
  2292     0F0D                     __end_of_PWMtmr0:
  2293                           
  2294                           	psect	text12
  2295     05BE                     __ptext12:	
  2296 ;; *************** function ___xxtofl *****************
  2297 ;; Defined at:
  2298 ;;		line 10 in file "C:\Program Files\Microchip\xc8\v2.40\pic\sources\c90\common\xxtofl.c"
  2299 ;; Parameters:    Size  Location     Type
  2300 ;;  sign            1    wreg     unsigned char 
  2301 ;;  val             4    0[BANK0 ] long 
  2302 ;; Auto vars:     Size  Location     Type
  2303 ;;  sign            1    8[BANK0 ] unsigned char 
  2304 ;;  arg             4   10[BANK0 ] unsigned long 
  2305 ;;  exp             1    9[BANK0 ] unsigned char 
  2306 ;; Return value:  Size  Location     Type
  2307 ;;                  4    0[BANK0 ] unsigned char 
  2308 ;; Registers used:
  2309 ;;		wreg, status,2, status,0
  2310 ;; Tracked objects:
  2311 ;;		On entry : 0/0
  2312 ;;		On exit  : 0/0
  2313 ;;		Unchanged: 0/0
  2314 ;; Data sizes:     COMMON   BANK0   BANK1   BANK3   BANK2
  2315 ;;      Params:         0       4       0       0       0
  2316 ;;      Locals:         0       6       0       0       0
  2317 ;;      Temps:          0       4       0       0       0
  2318 ;;      Totals:         0      14       0       0       0
  2319 ;;Total ram usage:       14 bytes
  2320 ;; Hardware stack levels used: 1
  2321 ;; Hardware stack levels required when called: 1
  2322 ;; This function calls:
  2323 ;;		Nothing
  2324 ;; This function is called by:
  2325 ;;		_PWMtmr0
  2326 ;;		_PWMtmr1
  2327 ;;		_mapeo
  2328 ;; This function uses a non-reentrant model
  2329 ;;
  2330                           
  2331     05BE                     ___xxtofl:	
  2332                           ;psect for function ___xxtofl
  2333                           
  2334                           
  2335                           ;incstack = 0
  2336                           ; Regs used in ___xxtofl: [wreg+status,2+status,0]
  2337                           ;___xxtofl@sign stored from wreg
  2338     05BE  1283               	bcf	3,5	;RP0=0, select bank0
  2339     05BF  1303               	bcf	3,6	;RP1=0, select bank0
  2340     05C0  00A8               	movwf	___xxtofl@sign
  2341     05C1                     l1764:
  2342     05C1  0828               	movf	___xxtofl@sign,w
  2343     05C2  1903               	btfsc	3,2
  2344     05C3  2DC5               	goto	u2301
  2345     05C4  2DC6               	goto	u2300
  2346     05C5                     u2301:
  2347     05C5  2DDA               	goto	l1770
  2348     05C6                     u2300:
  2349     05C6                     l1766:
  2350     05C6  1FA3               	btfss	___xxtofl@val+3,7
  2351     05C7  2DC9               	goto	u2311
  2352     05C8  2DCA               	goto	u2310
  2353     05C9                     u2311:
  2354     05C9  2DDA               	goto	l1770
  2355     05CA                     u2310:
  2356     05CA                     l1768:
  2357     05CA  0920               	comf	___xxtofl@val,w
  2358     05CB  00AA               	movwf	___xxtofl@arg
  2359     05CC  0921               	comf	___xxtofl@val+1,w
  2360     05CD  00AB               	movwf	___xxtofl@arg+1
  2361     05CE  0922               	comf	___xxtofl@val+2,w
  2362     05CF  00AC               	movwf	___xxtofl@arg+2
  2363     05D0  0923               	comf	___xxtofl@val+3,w
  2364     05D1  00AD               	movwf	___xxtofl@arg+3
  2365     05D2  0AAA               	incf	___xxtofl@arg,f
  2366     05D3  1903               	skipnz
  2367     05D4  0AAB               	incf	___xxtofl@arg+1,f
  2368     05D5  1903               	skipnz
  2369     05D6  0AAC               	incf	___xxtofl@arg+2,f
  2370     05D7  1903               	skipnz
  2371     05D8  0AAD               	incf	___xxtofl@arg+3,f
  2372     05D9  2DE2               	goto	l697
  2373     05DA                     l1770:
  2374     05DA  0823               	movf	___xxtofl@val+3,w
  2375     05DB  00AD               	movwf	___xxtofl@arg+3
  2376     05DC  0822               	movf	___xxtofl@val+2,w
  2377     05DD  00AC               	movwf	___xxtofl@arg+2
  2378     05DE  0821               	movf	___xxtofl@val+1,w
  2379     05DF  00AB               	movwf	___xxtofl@arg+1
  2380     05E0  0820               	movf	___xxtofl@val,w
  2381     05E1  00AA               	movwf	___xxtofl@arg
  2382     05E2                     l697:
  2383     05E2  0823               	movf	___xxtofl@val+3,w
  2384     05E3  0422               	iorwf	___xxtofl@val+2,w
  2385     05E4  0421               	iorwf	___xxtofl@val+1,w
  2386     05E5  0420               	iorwf	___xxtofl@val,w
  2387     05E6  1D03               	skipz
  2388     05E7  2DE9               	goto	u2321
  2389     05E8  2DEA               	goto	u2320
  2390     05E9                     u2321:
  2391     05E9  2DF3               	goto	l1776
  2392     05EA                     u2320:
  2393     05EA                     l1772:
  2394     05EA  3000               	movlw	0
  2395     05EB  00A3               	movwf	?___xxtofl+3
  2396     05EC  3000               	movlw	0
  2397     05ED  00A2               	movwf	?___xxtofl+2
  2398     05EE  3000               	movlw	0
  2399     05EF  00A1               	movwf	?___xxtofl+1
  2400     05F0  3000               	movlw	0
  2401     05F1  00A0               	movwf	?___xxtofl
  2402     05F2  2E77               	goto	l699
  2403     05F3                     l1776:
  2404     05F3  3096               	movlw	150
  2405     05F4  00A9               	movwf	___xxtofl@exp
  2406     05F5  2E03               	goto	l1780
  2407     05F6                     l1778:
  2408     05F6  3001               	movlw	1
  2409     05F7  00A4               	movwf	??___xxtofl
  2410     05F8  0824               	movf	??___xxtofl,w
  2411     05F9  07A9               	addwf	___xxtofl@exp,f
  2412     05FA  3001               	movlw	1
  2413     05FB                     u2335:
  2414     05FB  1003               	clrc
  2415     05FC  0CAD               	rrf	___xxtofl@arg+3,f
  2416     05FD  0CAC               	rrf	___xxtofl@arg+2,f
  2417     05FE  0CAB               	rrf	___xxtofl@arg+1,f
  2418     05FF  0CAA               	rrf	___xxtofl@arg,f
  2419     0600  3EFF               	addlw	-1
  2420     0601  1D03               	skipz
  2421     0602  2DFB               	goto	u2335
  2422     0603                     l1780:
  2423     0603  30FE               	movlw	254
  2424     0604  052D               	andwf	___xxtofl@arg+3,w
  2425     0605  1D03               	btfss	3,2
  2426     0606  2E08               	goto	u2341
  2427     0607  2E09               	goto	u2340
  2428     0608                     u2341:
  2429     0608  2DF6               	goto	l1778
  2430     0609                     u2340:
  2431     0609  2E25               	goto	l703
  2432     060A                     l1782:
  2433     060A  3001               	movlw	1
  2434     060B  00A4               	movwf	??___xxtofl
  2435     060C  0824               	movf	??___xxtofl,w
  2436     060D  07A9               	addwf	___xxtofl@exp,f
  2437     060E                     l1784:
  2438     060E  3001               	movlw	1
  2439     060F  07AA               	addwf	___xxtofl@arg,f
  2440     0610  3000               	movlw	0
  2441     0611  1803               	skipnc
  2442     0612  3001               	movlw	1
  2443     0613  07AB               	addwf	___xxtofl@arg+1,f
  2444     0614  3000               	movlw	0
  2445     0615  1803               	skipnc
  2446     0616  3001               	movlw	1
  2447     0617  07AC               	addwf	___xxtofl@arg+2,f
  2448     0618  3000               	movlw	0
  2449     0619  1803               	skipnc
  2450     061A  3001               	movlw	1
  2451     061B  07AD               	addwf	___xxtofl@arg+3,f
  2452     061C                     l1786:
  2453     061C  3001               	movlw	1
  2454     061D                     u2355:
  2455     061D  1003               	clrc
  2456     061E  0CAD               	rrf	___xxtofl@arg+3,f
  2457     061F  0CAC               	rrf	___xxtofl@arg+2,f
  2458     0620  0CAB               	rrf	___xxtofl@arg+1,f
  2459     0621  0CAA               	rrf	___xxtofl@arg,f
  2460     0622  3EFF               	addlw	-1
  2461     0623  1D03               	skipz
  2462     0624  2E1D               	goto	u2355
  2463     0625                     l703:
  2464     0625  30FF               	movlw	255
  2465     0626  052D               	andwf	___xxtofl@arg+3,w
  2466     0627  1D03               	btfss	3,2
  2467     0628  2E2A               	goto	u2361
  2468     0629  2E2B               	goto	u2360
  2469     062A                     u2361:
  2470     062A  2E0A               	goto	l1782
  2471     062B                     u2360:
  2472     062B  2E37               	goto	l1790
  2473     062C                     l1788:
  2474     062C  3001               	movlw	1
  2475     062D  02A9               	subwf	___xxtofl@exp,f
  2476     062E  3001               	movlw	1
  2477     062F  00A4               	movwf	??___xxtofl
  2478     0630                     u2375:
  2479     0630  1003               	clrc
  2480     0631  0DAA               	rlf	___xxtofl@arg,f
  2481     0632  0DAB               	rlf	___xxtofl@arg+1,f
  2482     0633  0DAC               	rlf	___xxtofl@arg+2,f
  2483     0634  0DAD               	rlf	___xxtofl@arg+3,f
  2484     0635  0BA4               	decfsz	??___xxtofl,f
  2485     0636  2E30               	goto	u2375
  2486     0637                     l1790:
  2487     0637  1BAC               	btfsc	___xxtofl@arg+2,7
  2488     0638  2E3A               	goto	u2381
  2489     0639  2E3B               	goto	u2380
  2490     063A                     u2381:
  2491     063A  2E41               	goto	l710
  2492     063B                     u2380:
  2493     063B                     l1792:
  2494     063B  3002               	movlw	2
  2495     063C  0229               	subwf	___xxtofl@exp,w
  2496     063D  1803               	skipnc
  2497     063E  2E40               	goto	u2391
  2498     063F  2E41               	goto	u2390
  2499     0640                     u2391:
  2500     0640  2E2C               	goto	l1788
  2501     0641                     u2390:
  2502     0641                     l710:
  2503     0641  1829               	btfsc	___xxtofl@exp,0
  2504     0642  2E44               	goto	u2401
  2505     0643  2E45               	goto	u2400
  2506     0644                     u2401:
  2507     0644  2E4D               	goto	l711
  2508     0645                     u2400:
  2509     0645                     l1794:
  2510     0645  30FF               	movlw	255
  2511     0646  05AA               	andwf	___xxtofl@arg,f
  2512     0647  30FF               	movlw	255
  2513     0648  05AB               	andwf	___xxtofl@arg+1,f
  2514     0649  307F               	movlw	127
  2515     064A  05AC               	andwf	___xxtofl@arg+2,f
  2516     064B  30FF               	movlw	255
  2517     064C  05AD               	andwf	___xxtofl@arg+3,f
  2518     064D                     l711:
  2519     064D  1003               	clrc
  2520     064E  0CA9               	rrf	___xxtofl@exp,f
  2521     064F                     l1796:
  2522     064F  0829               	movf	___xxtofl@exp,w
  2523     0650  00A4               	movwf	??___xxtofl
  2524     0651  01A5               	clrf	??___xxtofl+1
  2525     0652  01A6               	clrf	??___xxtofl+2
  2526     0653  01A7               	clrf	??___xxtofl+3
  2527     0654  3018               	movlw	24
  2528     0655                     u2415:
  2529     0655  1003               	clrc
  2530     0656  0DA4               	rlf	??___xxtofl,f
  2531     0657  0DA5               	rlf	??___xxtofl+1,f
  2532     0658  0DA6               	rlf	??___xxtofl+2,f
  2533     0659  0DA7               	rlf	??___xxtofl+3,f
  2534     065A                     u2410:
  2535     065A  3EFF               	addlw	-1
  2536     065B  1D03               	skipz
  2537     065C  2E55               	goto	u2415
  2538     065D  0824               	movf	??___xxtofl,w
  2539     065E  04AA               	iorwf	___xxtofl@arg,f
  2540     065F  0825               	movf	??___xxtofl+1,w
  2541     0660  04AB               	iorwf	___xxtofl@arg+1,f
  2542     0661  0826               	movf	??___xxtofl+2,w
  2543     0662  04AC               	iorwf	___xxtofl@arg+2,f
  2544     0663  0827               	movf	??___xxtofl+3,w
  2545     0664  04AD               	iorwf	___xxtofl@arg+3,f
  2546     0665                     l1798:
  2547     0665  0828               	movf	___xxtofl@sign,w
  2548     0666  1903               	btfsc	3,2
  2549     0667  2E69               	goto	u2421
  2550     0668  2E6A               	goto	u2420
  2551     0669                     u2421:
  2552     0669  2E6F               	goto	l1804
  2553     066A                     u2420:
  2554     066A                     l1800:
  2555     066A  1FA3               	btfss	___xxtofl@val+3,7
  2556     066B  2E6D               	goto	u2431
  2557     066C  2E6E               	goto	u2430
  2558     066D                     u2431:
  2559     066D  2E6F               	goto	l1804
  2560     066E                     u2430:
  2561     066E                     l1802:
  2562     066E  17AD               	bsf	___xxtofl@arg+3,7
  2563     066F                     l1804:
  2564     066F  082D               	movf	___xxtofl@arg+3,w
  2565     0670  00A3               	movwf	?___xxtofl+3
  2566     0671  082C               	movf	___xxtofl@arg+2,w
  2567     0672  00A2               	movwf	?___xxtofl+2
  2568     0673  082B               	movf	___xxtofl@arg+1,w
  2569     0674  00A1               	movwf	?___xxtofl+1
  2570     0675  082A               	movf	___xxtofl@arg,w
  2571     0676  00A0               	movwf	?___xxtofl
  2572     0677                     l699:
  2573     0677  0008               	return
  2574     0678                     __end_of___xxtofl:
  2575                           
  2576                           	psect	text13
  2577     0F0D                     __ptext13:	
  2578 ;; *************** function ___fltol *****************
  2579 ;; Defined at:
  2580 ;;		line 43 in file "C:\Program Files\Microchip\xc8\v2.40\pic\sources\c90\common\fltol.c"
  2581 ;; Parameters:    Size  Location     Type
  2582 ;;  f1              4   60[BANK0 ] unsigned char 
  2583 ;; Auto vars:     Size  Location     Type
  2584 ;;  exp1            1   69[BANK0 ] unsigned char 
  2585 ;;  sign1           1   68[BANK0 ] unsigned char 
  2586 ;; Return value:  Size  Location     Type
  2587 ;;                  4   60[BANK0 ] long 
  2588 ;; Registers used:
  2589 ;;		wreg, status,2, status,0
  2590 ;; Tracked objects:
  2591 ;;		On entry : 0/0
  2592 ;;		On exit  : 0/0
  2593 ;;		Unchanged: 0/0
  2594 ;; Data sizes:     COMMON   BANK0   BANK1   BANK3   BANK2
  2595 ;;      Params:         0       4       0       0       0
  2596 ;;      Locals:         0       2       0       0       0
  2597 ;;      Temps:          0       4       0       0       0
  2598 ;;      Totals:         0      10       0       0       0
  2599 ;;Total ram usage:       10 bytes
  2600 ;; Hardware stack levels used: 1
  2601 ;; Hardware stack levels required when called: 1
  2602 ;; This function calls:
  2603 ;;		Nothing
  2604 ;; This function is called by:
  2605 ;;		_PWMtmr0
  2606 ;;		_PWMtmr1
  2607 ;;		_mapeo
  2608 ;; This function uses a non-reentrant model
  2609 ;;
  2610                           
  2611     0F0D                     ___fltol:	
  2612                           ;psect for function ___fltol
  2613                           
  2614     0F0D                     l1394:	
  2615                           ;incstack = 0
  2616                           ; Regs used in ___fltol: [wreg+status,2+status,0]
  2617                           
  2618     0F0D  1003               	clrc
  2619     0F0E  1283               	bcf	3,5	;RP0=0, select bank0
  2620     0F0F  1303               	bcf	3,6	;RP1=0, select bank0
  2621     0F10  0D5E               	rlf	___fltol@f1+2,w
  2622     0F11  0D5F               	rlf	___fltol@f1+3,w
  2623     0F12  00E5               	movwf	___fltol@exp1
  2624     0F13  0865               	movf	___fltol@exp1,w
  2625     0F14  1D03               	btfss	3,2
  2626     0F15  2F17               	goto	u1371
  2627     0F16  2F18               	goto	u1370
  2628     0F17                     u1371:
  2629     0F17  2F21               	goto	l1400
  2630     0F18                     u1370:
  2631     0F18                     l1396:
  2632     0F18  3000               	movlw	0
  2633     0F19  00DF               	movwf	?___fltol+3
  2634     0F1A  3000               	movlw	0
  2635     0F1B  00DE               	movwf	?___fltol+2
  2636     0F1C  3000               	movlw	0
  2637     0F1D  00DD               	movwf	?___fltol+1
  2638     0F1E  3000               	movlw	0
  2639     0F1F  00DC               	movwf	?___fltol
  2640     0F20  2F84               	goto	l450
  2641     0F21                     l1400:
  2642     0F21  085C               	movf	___fltol@f1,w
  2643     0F22  00E0               	movwf	??___fltol
  2644     0F23  085D               	movf	___fltol@f1+1,w
  2645     0F24  00E1               	movwf	??___fltol+1
  2646     0F25  085E               	movf	___fltol@f1+2,w
  2647     0F26  00E2               	movwf	??___fltol+2
  2648     0F27  085F               	movf	___fltol@f1+3,w
  2649     0F28  00E3               	movwf	??___fltol+3
  2650     0F29  301F               	movlw	31
  2651     0F2A                     u1385:
  2652     0F2A  1003               	clrc
  2653     0F2B  0CE3               	rrf	??___fltol+3,f
  2654     0F2C  0CE2               	rrf	??___fltol+2,f
  2655     0F2D  0CE1               	rrf	??___fltol+1,f
  2656     0F2E  0CE0               	rrf	??___fltol,f
  2657     0F2F                     u1380:
  2658     0F2F  3EFF               	addlw	-1
  2659     0F30  1D03               	skipz
  2660     0F31  2F2A               	goto	u1385
  2661     0F32  0860               	movf	??___fltol,w
  2662     0F33  00E4               	movwf	___fltol@sign1
  2663     0F34                     l1402:
  2664     0F34  17DE               	bsf	___fltol@f1+2,7
  2665     0F35                     l1404:
  2666     0F35  30FF               	movlw	255
  2667     0F36  05DC               	andwf	___fltol@f1,f
  2668     0F37  30FF               	movlw	255
  2669     0F38  05DD               	andwf	___fltol@f1+1,f
  2670     0F39  30FF               	movlw	255
  2671     0F3A  05DE               	andwf	___fltol@f1+2,f
  2672     0F3B  3000               	movlw	0
  2673     0F3C  05DF               	andwf	___fltol@f1+3,f
  2674     0F3D                     l1406:
  2675     0F3D  3096               	movlw	150
  2676     0F3E  02E5               	subwf	___fltol@exp1,f
  2677     0F3F                     l1408:
  2678     0F3F  1FE5               	btfss	___fltol@exp1,7
  2679     0F40  2F42               	goto	u1391
  2680     0F41  2F43               	goto	u1390
  2681     0F42                     u1391:
  2682     0F42  2F5D               	goto	l1418
  2683     0F43                     u1390:
  2684     0F43                     l1410:
  2685     0F43  0865               	movf	___fltol@exp1,w
  2686     0F44  3A80               	xorlw	128
  2687     0F45  3E97               	addlw	151
  2688     0F46  1803               	skipnc
  2689     0F47  2F49               	goto	u1401
  2690     0F48  2F4A               	goto	u1400
  2691     0F49                     u1401:
  2692     0F49  2F4B               	goto	l1416
  2693     0F4A                     u1400:
  2694     0F4A  2F18               	goto	l1396
  2695     0F4B                     l1416:
  2696     0F4B  3001               	movlw	1
  2697     0F4C                     u1415:
  2698     0F4C  1003               	clrc
  2699     0F4D  0CDF               	rrf	___fltol@f1+3,f
  2700     0F4E  0CDE               	rrf	___fltol@f1+2,f
  2701     0F4F  0CDD               	rrf	___fltol@f1+1,f
  2702     0F50  0CDC               	rrf	___fltol@f1,f
  2703     0F51  3EFF               	addlw	-1
  2704     0F52  1D03               	skipz
  2705     0F53  2F4C               	goto	u1415
  2706     0F54  3001               	movlw	1
  2707     0F55  00E0               	movwf	??___fltol
  2708     0F56  0860               	movf	??___fltol,w
  2709     0F57  07E5               	addwf	___fltol@exp1,f
  2710     0F58  1D03               	btfss	3,2
  2711     0F59  2F5B               	goto	u1421
  2712     0F5A  2F5C               	goto	u1420
  2713     0F5B                     u1421:
  2714     0F5B  2F4B               	goto	l1416
  2715     0F5C                     u1420:
  2716     0F5C  2F74               	goto	l1426
  2717     0F5D                     l1418:
  2718     0F5D  3020               	movlw	32
  2719     0F5E  0265               	subwf	___fltol@exp1,w
  2720     0F5F  1C03               	skipc
  2721     0F60  2F62               	goto	u1431
  2722     0F61  2F63               	goto	u1430
  2723     0F62                     u1431:
  2724     0F62  2F6F               	goto	l457
  2725     0F63                     u1430:
  2726     0F63  2F18               	goto	l1396
  2727     0F64                     l1424:
  2728     0F64  3001               	movlw	1
  2729     0F65  00E0               	movwf	??___fltol
  2730     0F66                     u1445:
  2731     0F66  1003               	clrc
  2732     0F67  0DDC               	rlf	___fltol@f1,f
  2733     0F68  0DDD               	rlf	___fltol@f1+1,f
  2734     0F69  0DDE               	rlf	___fltol@f1+2,f
  2735     0F6A  0DDF               	rlf	___fltol@f1+3,f
  2736     0F6B  0BE0               	decfsz	??___fltol,f
  2737     0F6C  2F66               	goto	u1445
  2738     0F6D  3001               	movlw	1
  2739     0F6E  02E5               	subwf	___fltol@exp1,f
  2740     0F6F                     l457:
  2741     0F6F  0865               	movf	___fltol@exp1,w
  2742     0F70  1D03               	btfss	3,2
  2743     0F71  2F73               	goto	u1451
  2744     0F72  2F74               	goto	u1450
  2745     0F73                     u1451:
  2746     0F73  2F64               	goto	l1424
  2747     0F74                     u1450:
  2748     0F74                     l1426:
  2749     0F74  0864               	movf	___fltol@sign1,w
  2750     0F75  1903               	btfsc	3,2
  2751     0F76  2F78               	goto	u1461
  2752     0F77  2F79               	goto	u1460
  2753     0F78                     u1461:
  2754     0F78  2F84               	goto	l460
  2755     0F79                     u1460:
  2756     0F79                     l1428:
  2757     0F79  09DC               	comf	___fltol@f1,f
  2758     0F7A  09DD               	comf	___fltol@f1+1,f
  2759     0F7B  09DE               	comf	___fltol@f1+2,f
  2760     0F7C  09DF               	comf	___fltol@f1+3,f
  2761     0F7D  0ADC               	incf	___fltol@f1,f
  2762     0F7E  1903               	skipnz
  2763     0F7F  0ADD               	incf	___fltol@f1+1,f
  2764     0F80  1903               	skipnz
  2765     0F81  0ADE               	incf	___fltol@f1+2,f
  2766     0F82  1903               	skipnz
  2767     0F83  0ADF               	incf	___fltol@f1+3,f
  2768     0F84                     l460:
  2769     0F84                     l450:
  2770     0F84  0008               	return
  2771     0F85                     __end_of___fltol:
  2772                           
  2773                           	psect	text14
  2774     0021                     __ptext14:	
  2775 ;; *************** function ___flmul *****************
  2776 ;; Defined at:
  2777 ;;		line 8 in file "C:\Program Files\Microchip\xc8\v2.40\pic\sources\c90\common\sprcmul.c"
  2778 ;; Parameters:    Size  Location     Type
  2779 ;;  b               4   14[BANK0 ] long 
  2780 ;;  a               4   18[BANK0 ] long 
  2781 ;; Auto vars:     Size  Location     Type
  2782 ;;  prod            4   34[BANK0 ] struct .
  2783 ;;  grs             4   28[BANK0 ] unsigned long 
  2784 ;;  temp            2   38[BANK0 ] struct .
  2785 ;;  bexp            1   33[BANK0 ] unsigned char 
  2786 ;;  aexp            1   32[BANK0 ] unsigned char 
  2787 ;;  sign            1   27[BANK0 ] unsigned char 
  2788 ;; Return value:  Size  Location     Type
  2789 ;;                  4   14[BANK0 ] unsigned char 
  2790 ;; Registers used:
  2791 ;;		wreg, status,2, status,0, btemp+1, pclath, cstack
  2792 ;; Tracked objects:
  2793 ;;		On entry : 0/0
  2794 ;;		On exit  : 0/0
  2795 ;;		Unchanged: 0/0
  2796 ;; Data sizes:     COMMON   BANK0   BANK1   BANK3   BANK2
  2797 ;;      Params:         0       8       0       0       0
  2798 ;;      Locals:         0      13       0       0       0
  2799 ;;      Temps:          0       5       0       0       0
  2800 ;;      Totals:         0      26       0       0       0
  2801 ;;Total ram usage:       26 bytes
  2802 ;; Hardware stack levels used: 1
  2803 ;; Hardware stack levels required when called: 2
  2804 ;; This function calls:
  2805 ;;		__Umul8_16
  2806 ;; This function is called by:
  2807 ;;		_PWMtmr0
  2808 ;;		_PWMtmr1
  2809 ;;		_mapeo
  2810 ;; This function uses a non-reentrant model
  2811 ;;
  2812                           
  2813     0021                     ___flmul:	
  2814                           ;psect for function ___flmul
  2815                           
  2816     0021                     l1624:	
  2817                           ;incstack = 0
  2818                           ; Regs used in ___flmul: [wreg+status,2+status,0+btemp+1+pclath+cstack]
  2819                           
  2820     0021  1283               	bcf	3,5	;RP0=0, select bank0
  2821     0022  1303               	bcf	3,6	;RP1=0, select bank0
  2822     0023  0831               	movf	___flmul@b+3,w
  2823     0024  3980               	andlw	128
  2824     0025  00BB               	movwf	___flmul@sign
  2825     0026                     l1626:
  2826     0026  0831               	movf	___flmul@b+3,w
  2827     0027  00B6               	movwf	??___flmul
  2828     0028  0736               	addwf	??___flmul,w
  2829     0029  00C1               	movwf	___flmul@bexp
  2830     002A                     l1628:
  2831     002A  1FB0               	btfss	___flmul@b+2,7
  2832     002B  282D               	goto	u1931
  2833     002C  282E               	goto	u1930
  2834     002D                     u1931:
  2835     002D  282F               	goto	l1632
  2836     002E                     u1930:
  2837     002E                     l1630:
  2838     002E  1441               	bsf	___flmul@bexp,0
  2839     002F                     l1632:
  2840     002F  0841               	movf	___flmul@bexp,w
  2841     0030  1903               	btfsc	3,2
  2842     0031  2833               	goto	u1941
  2843     0032  2834               	goto	u1940
  2844     0033                     u1941:
  2845     0033  2843               	goto	l1640
  2846     0034                     u1940:
  2847     0034                     l1634:
  2848     0034  0A41               	incf	___flmul@bexp,w
  2849     0035  1D03               	btfss	3,2
  2850     0036  2838               	goto	u1951
  2851     0037  2839               	goto	u1950
  2852     0038                     u1951:
  2853     0038  2841               	goto	l1638
  2854     0039                     u1950:
  2855     0039                     l1636:
  2856     0039  3000               	movlw	0
  2857     003A  00B1               	movwf	___flmul@b+3
  2858     003B  3000               	movlw	0
  2859     003C  00B0               	movwf	___flmul@b+2
  2860     003D  3000               	movlw	0
  2861     003E  00AF               	movwf	___flmul@b+1
  2862     003F  3000               	movlw	0
  2863     0040  00AE               	movwf	___flmul@b
  2864     0041                     l1638:
  2865     0041  17B0               	bsf	___flmul@b+2,7
  2866     0042  284B               	goto	l1642
  2867     0043                     l1640:
  2868     0043  3000               	movlw	0
  2869     0044  00B1               	movwf	___flmul@b+3
  2870     0045  3000               	movlw	0
  2871     0046  00B0               	movwf	___flmul@b+2
  2872     0047  3000               	movlw	0
  2873     0048  00AF               	movwf	___flmul@b+1
  2874     0049  3000               	movlw	0
  2875     004A  00AE               	movwf	___flmul@b
  2876     004B                     l1642:
  2877     004B  0835               	movf	___flmul@a+3,w
  2878     004C  3980               	andlw	128
  2879     004D  00B6               	movwf	??___flmul
  2880     004E  0836               	movf	??___flmul,w
  2881     004F  06BB               	xorwf	___flmul@sign,f
  2882     0050                     l1644:
  2883     0050  0835               	movf	___flmul@a+3,w
  2884     0051  00B6               	movwf	??___flmul
  2885     0052  0736               	addwf	??___flmul,w
  2886     0053  00C0               	movwf	___flmul@aexp
  2887     0054                     l1646:
  2888     0054  1FB4               	btfss	___flmul@a+2,7
  2889     0055  2857               	goto	u1961
  2890     0056  2858               	goto	u1960
  2891     0057                     u1961:
  2892     0057  2859               	goto	l1650
  2893     0058                     u1960:
  2894     0058                     l1648:
  2895     0058  1440               	bsf	___flmul@aexp,0
  2896     0059                     l1650:
  2897     0059  0840               	movf	___flmul@aexp,w
  2898     005A  1903               	btfsc	3,2
  2899     005B  285D               	goto	u1971
  2900     005C  285E               	goto	u1970
  2901     005D                     u1971:
  2902     005D  286D               	goto	l1658
  2903     005E                     u1970:
  2904     005E                     l1652:
  2905     005E  0A40               	incf	___flmul@aexp,w
  2906     005F  1D03               	btfss	3,2
  2907     0060  2862               	goto	u1981
  2908     0061  2863               	goto	u1980
  2909     0062                     u1981:
  2910     0062  286B               	goto	l1656
  2911     0063                     u1980:
  2912     0063                     l1654:
  2913     0063  3000               	movlw	0
  2914     0064  00B5               	movwf	___flmul@a+3
  2915     0065  3000               	movlw	0
  2916     0066  00B4               	movwf	___flmul@a+2
  2917     0067  3000               	movlw	0
  2918     0068  00B3               	movwf	___flmul@a+1
  2919     0069  3000               	movlw	0
  2920     006A  00B2               	movwf	___flmul@a
  2921     006B                     l1656:
  2922     006B  17B4               	bsf	___flmul@a+2,7
  2923     006C  2875               	goto	l1660
  2924     006D                     l1658:
  2925     006D  3000               	movlw	0
  2926     006E  00B5               	movwf	___flmul@a+3
  2927     006F  3000               	movlw	0
  2928     0070  00B4               	movwf	___flmul@a+2
  2929     0071  3000               	movlw	0
  2930     0072  00B3               	movwf	___flmul@a+1
  2931     0073  3000               	movlw	0
  2932     0074  00B2               	movwf	___flmul@a
  2933     0075                     l1660:
  2934     0075  0840               	movf	___flmul@aexp,w
  2935     0076  1903               	btfsc	3,2
  2936     0077  2879               	goto	u1991
  2937     0078  287A               	goto	u1990
  2938     0079                     u1991:
  2939     0079  287F               	goto	l1664
  2940     007A                     u1990:
  2941     007A                     l1662:
  2942     007A  0841               	movf	___flmul@bexp,w
  2943     007B  1D03               	btfss	3,2
  2944     007C  287E               	goto	u2001
  2945     007D  287F               	goto	u2000
  2946     007E                     u2001:
  2947     007E  2888               	goto	l1668
  2948     007F                     u2000:
  2949     007F                     l1664:
  2950     007F  3000               	movlw	0
  2951     0080  00B1               	movwf	?___flmul+3
  2952     0081  3000               	movlw	0
  2953     0082  00B0               	movwf	?___flmul+2
  2954     0083  3000               	movlw	0
  2955     0084  00AF               	movwf	?___flmul+1
  2956     0085  3000               	movlw	0
  2957     0086  00AE               	movwf	?___flmul
  2958     0087  2B65               	goto	l653
  2959     0088                     l1668:
  2960     0088  082E               	movf	___flmul@b,w
  2961     0089  00A0               	movwf	__Umul8_16@multiplicand
  2962     008A  0834               	movf	___flmul@a+2,w
  2963     008B  120A  158A  255A  120A  118A  	fcall	__Umul8_16
  2964     0090  1283               	bcf	3,5	;RP0=0, select bank0
  2965     0091  1303               	bcf	3,6	;RP1=0, select bank0
  2966     0092  0821               	movf	?__Umul8_16+1,w
  2967     0093  00C7               	movwf	___flmul@temp+1
  2968     0094  0820               	movf	?__Umul8_16,w
  2969     0095  00C6               	movwf	___flmul@temp
  2970     0096                     l1670:
  2971     0096  0846               	movf	___flmul@temp,w
  2972     0097  00B6               	movwf	??___flmul
  2973     0098  01B7               	clrf	??___flmul+1
  2974     0099  01B8               	clrf	??___flmul+2
  2975     009A  01B9               	clrf	??___flmul+3
  2976     009B  0839               	movf	??___flmul+3,w
  2977     009C  00BF               	movwf	___flmul@grs+3
  2978     009D  0838               	movf	??___flmul+2,w
  2979     009E  00BE               	movwf	___flmul@grs+2
  2980     009F  0837               	movf	??___flmul+1,w
  2981     00A0  00BD               	movwf	___flmul@grs+1
  2982     00A1  0836               	movf	??___flmul,w
  2983     00A2  00BC               	movwf	___flmul@grs
  2984     00A3                     l1672:
  2985     00A3  0847               	movf	___flmul@temp+1,w
  2986     00A4  00B6               	movwf	??___flmul
  2987     00A5  01B7               	clrf	??___flmul+1
  2988     00A6  01B8               	clrf	??___flmul+2
  2989     00A7  01B9               	clrf	??___flmul+3
  2990     00A8  0839               	movf	??___flmul+3,w
  2991     00A9  00C5               	movwf	___flmul@prod+3
  2992     00AA  0838               	movf	??___flmul+2,w
  2993     00AB  00C4               	movwf	___flmul@prod+2
  2994     00AC  0837               	movf	??___flmul+1,w
  2995     00AD  00C3               	movwf	___flmul@prod+1
  2996     00AE  0836               	movf	??___flmul,w
  2997     00AF  00C2               	movwf	___flmul@prod
  2998     00B0  082F               	movf	___flmul@b+1,w
  2999     00B1  00A0               	movwf	__Umul8_16@multiplicand
  3000     00B2  0833               	movf	___flmul@a+1,w
  3001     00B3  120A  158A  255A  120A  118A  	fcall	__Umul8_16
  3002     00B8  1283               	bcf	3,5	;RP0=0, select bank0
  3003     00B9  1303               	bcf	3,6	;RP1=0, select bank0
  3004     00BA  0821               	movf	?__Umul8_16+1,w
  3005     00BB  00C7               	movwf	___flmul@temp+1
  3006     00BC  0820               	movf	?__Umul8_16,w
  3007     00BD  00C6               	movwf	___flmul@temp
  3008     00BE                     l1674:
  3009     00BE  0846               	movf	___flmul@temp,w
  3010     00BF  00B6               	movwf	??___flmul
  3011     00C0  01B7               	clrf	??___flmul+1
  3012     00C1  01B8               	clrf	??___flmul+2
  3013     00C2  01B9               	clrf	??___flmul+3
  3014     00C3  0836               	movf	??___flmul,w
  3015     00C4  07BC               	addwf	___flmul@grs,f
  3016     00C5  0837               	movf	??___flmul+1,w
  3017     00C6  1103               	clrz
  3018     00C7  1803               	skipnc
  3019     00C8  3E01               	addlw	1
  3020     00C9  1903               	skipnz
  3021     00CA  28CC               	goto	u2011
  3022     00CB  07BD               	addwf	___flmul@grs+1,f
  3023     00CC                     u2011:
  3024     00CC  0838               	movf	??___flmul+2,w
  3025     00CD  1103               	clrz
  3026     00CE  1803               	skipnc
  3027     00CF  3E01               	addlw	1
  3028     00D0  1903               	skipnz
  3029     00D1  28D3               	goto	u2012
  3030     00D2  07BE               	addwf	___flmul@grs+2,f
  3031     00D3                     u2012:
  3032     00D3  0839               	movf	??___flmul+3,w
  3033     00D4  1103               	clrz
  3034     00D5  1803               	skipnc
  3035     00D6  3E01               	addlw	1
  3036     00D7  1903               	skipnz
  3037     00D8  28DA               	goto	u2013
  3038     00D9  07BF               	addwf	___flmul@grs+3,f
  3039     00DA                     u2013:
  3040     00DA                     l1676:
  3041     00DA  0847               	movf	___flmul@temp+1,w
  3042     00DB  00B6               	movwf	??___flmul
  3043     00DC  01B7               	clrf	??___flmul+1
  3044     00DD  01B8               	clrf	??___flmul+2
  3045     00DE  01B9               	clrf	??___flmul+3
  3046     00DF  0836               	movf	??___flmul,w
  3047     00E0  07C2               	addwf	___flmul@prod,f
  3048     00E1  0837               	movf	??___flmul+1,w
  3049     00E2  1103               	clrz
  3050     00E3  1803               	skipnc
  3051     00E4  3E01               	addlw	1
  3052     00E5  1903               	skipnz
  3053     00E6  28E8               	goto	u2021
  3054     00E7  07C3               	addwf	___flmul@prod+1,f
  3055     00E8                     u2021:
  3056     00E8  0838               	movf	??___flmul+2,w
  3057     00E9  1103               	clrz
  3058     00EA  1803               	skipnc
  3059     00EB  3E01               	addlw	1
  3060     00EC  1903               	skipnz
  3061     00ED  28EF               	goto	u2022
  3062     00EE  07C4               	addwf	___flmul@prod+2,f
  3063     00EF                     u2022:
  3064     00EF  0839               	movf	??___flmul+3,w
  3065     00F0  1103               	clrz
  3066     00F1  1803               	skipnc
  3067     00F2  3E01               	addlw	1
  3068     00F3  1903               	skipnz
  3069     00F4  28F6               	goto	u2023
  3070     00F5  07C5               	addwf	___flmul@prod+3,f
  3071     00F6                     u2023:
  3072     00F6  0830               	movf	___flmul@b+2,w
  3073     00F7  00A0               	movwf	__Umul8_16@multiplicand
  3074     00F8  0832               	movf	___flmul@a,w
  3075     00F9  120A  158A  255A  120A  118A  	fcall	__Umul8_16
  3076     00FE  1283               	bcf	3,5	;RP0=0, select bank0
  3077     00FF  1303               	bcf	3,6	;RP1=0, select bank0
  3078     0100  0821               	movf	?__Umul8_16+1,w
  3079     0101  00C7               	movwf	___flmul@temp+1
  3080     0102  0820               	movf	?__Umul8_16,w
  3081     0103  00C6               	movwf	___flmul@temp
  3082     0104                     l1678:
  3083     0104  0846               	movf	___flmul@temp,w
  3084     0105  00B6               	movwf	??___flmul
  3085     0106  01B7               	clrf	??___flmul+1
  3086     0107  01B8               	clrf	??___flmul+2
  3087     0108  01B9               	clrf	??___flmul+3
  3088     0109  0836               	movf	??___flmul,w
  3089     010A  07BC               	addwf	___flmul@grs,f
  3090     010B  0837               	movf	??___flmul+1,w
  3091     010C  1103               	clrz
  3092     010D  1803               	skipnc
  3093     010E  3E01               	addlw	1
  3094     010F  1903               	skipnz
  3095     0110  2912               	goto	u2031
  3096     0111  07BD               	addwf	___flmul@grs+1,f
  3097     0112                     u2031:
  3098     0112  0838               	movf	??___flmul+2,w
  3099     0113  1103               	clrz
  3100     0114  1803               	skipnc
  3101     0115  3E01               	addlw	1
  3102     0116  1903               	skipnz
  3103     0117  2919               	goto	u2032
  3104     0118  07BE               	addwf	___flmul@grs+2,f
  3105     0119                     u2032:
  3106     0119  0839               	movf	??___flmul+3,w
  3107     011A  1103               	clrz
  3108     011B  1803               	skipnc
  3109     011C  3E01               	addlw	1
  3110     011D  1903               	skipnz
  3111     011E  2920               	goto	u2033
  3112     011F  07BF               	addwf	___flmul@grs+3,f
  3113     0120                     u2033:
  3114     0120                     l1680:
  3115     0120  0847               	movf	___flmul@temp+1,w
  3116     0121  00B6               	movwf	??___flmul
  3117     0122  01B7               	clrf	??___flmul+1
  3118     0123  01B8               	clrf	??___flmul+2
  3119     0124  01B9               	clrf	??___flmul+3
  3120     0125  0836               	movf	??___flmul,w
  3121     0126  07C2               	addwf	___flmul@prod,f
  3122     0127  0837               	movf	??___flmul+1,w
  3123     0128  1103               	clrz
  3124     0129  1803               	skipnc
  3125     012A  3E01               	addlw	1
  3126     012B  1903               	skipnz
  3127     012C  292E               	goto	u2041
  3128     012D  07C3               	addwf	___flmul@prod+1,f
  3129     012E                     u2041:
  3130     012E  0838               	movf	??___flmul+2,w
  3131     012F  1103               	clrz
  3132     0130  1803               	skipnc
  3133     0131  3E01               	addlw	1
  3134     0132  1903               	skipnz
  3135     0133  2935               	goto	u2042
  3136     0134  07C4               	addwf	___flmul@prod+2,f
  3137     0135                     u2042:
  3138     0135  0839               	movf	??___flmul+3,w
  3139     0136  1103               	clrz
  3140     0137  1803               	skipnc
  3141     0138  3E01               	addlw	1
  3142     0139  1903               	skipnz
  3143     013A  293C               	goto	u2043
  3144     013B  07C5               	addwf	___flmul@prod+3,f
  3145     013C                     u2043:
  3146     013C                     l1682:
  3147     013C  3008               	movlw	8
  3148     013D  00B6               	movwf	??___flmul
  3149     013E                     u2055:
  3150     013E  1003               	clrc
  3151     013F  0DBC               	rlf	___flmul@grs,f
  3152     0140  0DBD               	rlf	___flmul@grs+1,f
  3153     0141  0DBE               	rlf	___flmul@grs+2,f
  3154     0142  0DBF               	rlf	___flmul@grs+3,f
  3155     0143  0BB6               	decfsz	??___flmul,f
  3156     0144  293E               	goto	u2055
  3157     0145                     l1684:
  3158     0145  082F               	movf	___flmul@b+1,w
  3159     0146  00A0               	movwf	__Umul8_16@multiplicand
  3160     0147  0832               	movf	___flmul@a,w
  3161     0148  120A  158A  255A  120A  118A  	fcall	__Umul8_16
  3162     014D  1283               	bcf	3,5	;RP0=0, select bank0
  3163     014E  1303               	bcf	3,6	;RP1=0, select bank0
  3164     014F  0821               	movf	?__Umul8_16+1,w
  3165     0150  00C7               	movwf	___flmul@temp+1
  3166     0151  0820               	movf	?__Umul8_16,w
  3167     0152  00C6               	movwf	___flmul@temp
  3168     0153                     l1686:
  3169     0153  0846               	movf	___flmul@temp,w
  3170     0154  00B6               	movwf	??___flmul
  3171     0155  0847               	movf	___flmul@temp+1,w
  3172     0156  00B7               	movwf	??___flmul+1
  3173     0157  01B8               	clrf	??___flmul+2
  3174     0158  01B9               	clrf	??___flmul+3
  3175     0159  0836               	movf	??___flmul,w
  3176     015A  07BC               	addwf	___flmul@grs,f
  3177     015B  0837               	movf	??___flmul+1,w
  3178     015C  1103               	clrz
  3179     015D  1803               	skipnc
  3180     015E  3E01               	addlw	1
  3181     015F  1903               	skipnz
  3182     0160  2962               	goto	u2061
  3183     0161  07BD               	addwf	___flmul@grs+1,f
  3184     0162                     u2061:
  3185     0162  0838               	movf	??___flmul+2,w
  3186     0163  1103               	clrz
  3187     0164  1803               	skipnc
  3188     0165  3E01               	addlw	1
  3189     0166  1903               	skipnz
  3190     0167  2969               	goto	u2062
  3191     0168  07BE               	addwf	___flmul@grs+2,f
  3192     0169                     u2062:
  3193     0169  0839               	movf	??___flmul+3,w
  3194     016A  1103               	clrz
  3195     016B  1803               	skipnc
  3196     016C  3E01               	addlw	1
  3197     016D  1903               	skipnz
  3198     016E  2970               	goto	u2063
  3199     016F  07BF               	addwf	___flmul@grs+3,f
  3200     0170                     u2063:
  3201     0170                     l1688:
  3202     0170  082E               	movf	___flmul@b,w
  3203     0171  00A0               	movwf	__Umul8_16@multiplicand
  3204     0172  0833               	movf	___flmul@a+1,w
  3205     0173  120A  158A  255A  120A  118A  	fcall	__Umul8_16
  3206     0178  1283               	bcf	3,5	;RP0=0, select bank0
  3207     0179  1303               	bcf	3,6	;RP1=0, select bank0
  3208     017A  0821               	movf	?__Umul8_16+1,w
  3209     017B  00C7               	movwf	___flmul@temp+1
  3210     017C  0820               	movf	?__Umul8_16,w
  3211     017D  00C6               	movwf	___flmul@temp
  3212     017E                     l1690:
  3213     017E  0846               	movf	___flmul@temp,w
  3214     017F  00B6               	movwf	??___flmul
  3215     0180  0847               	movf	___flmul@temp+1,w
  3216     0181  00B7               	movwf	??___flmul+1
  3217     0182  01B8               	clrf	??___flmul+2
  3218     0183  01B9               	clrf	??___flmul+3
  3219     0184  0836               	movf	??___flmul,w
  3220     0185  07BC               	addwf	___flmul@grs,f
  3221     0186  0837               	movf	??___flmul+1,w
  3222     0187  1103               	clrz
  3223     0188  1803               	skipnc
  3224     0189  3E01               	addlw	1
  3225     018A  1903               	skipnz
  3226     018B  298D               	goto	u2071
  3227     018C  07BD               	addwf	___flmul@grs+1,f
  3228     018D                     u2071:
  3229     018D  0838               	movf	??___flmul+2,w
  3230     018E  1103               	clrz
  3231     018F  1803               	skipnc
  3232     0190  3E01               	addlw	1
  3233     0191  1903               	skipnz
  3234     0192  2994               	goto	u2072
  3235     0193  07BE               	addwf	___flmul@grs+2,f
  3236     0194                     u2072:
  3237     0194  0839               	movf	??___flmul+3,w
  3238     0195  1103               	clrz
  3239     0196  1803               	skipnc
  3240     0197  3E01               	addlw	1
  3241     0198  1903               	skipnz
  3242     0199  299B               	goto	u2073
  3243     019A  07BF               	addwf	___flmul@grs+3,f
  3244     019B                     u2073:
  3245     019B                     l1692:
  3246     019B  3008               	movlw	8
  3247     019C  00B6               	movwf	??___flmul
  3248     019D                     u2085:
  3249     019D  1003               	clrc
  3250     019E  0DBC               	rlf	___flmul@grs,f
  3251     019F  0DBD               	rlf	___flmul@grs+1,f
  3252     01A0  0DBE               	rlf	___flmul@grs+2,f
  3253     01A1  0DBF               	rlf	___flmul@grs+3,f
  3254     01A2  0BB6               	decfsz	??___flmul,f
  3255     01A3  299D               	goto	u2085
  3256     01A4  082E               	movf	___flmul@b,w
  3257     01A5  00A0               	movwf	__Umul8_16@multiplicand
  3258     01A6  0832               	movf	___flmul@a,w
  3259     01A7  120A  158A  255A  120A  118A  	fcall	__Umul8_16
  3260     01AC  1283               	bcf	3,5	;RP0=0, select bank0
  3261     01AD  1303               	bcf	3,6	;RP1=0, select bank0
  3262     01AE  0821               	movf	?__Umul8_16+1,w
  3263     01AF  00C7               	movwf	___flmul@temp+1
  3264     01B0  0820               	movf	?__Umul8_16,w
  3265     01B1  00C6               	movwf	___flmul@temp
  3266     01B2                     l1694:
  3267     01B2  0846               	movf	___flmul@temp,w
  3268     01B3  00B6               	movwf	??___flmul
  3269     01B4  0847               	movf	___flmul@temp+1,w
  3270     01B5  00B7               	movwf	??___flmul+1
  3271     01B6  01B8               	clrf	??___flmul+2
  3272     01B7  01B9               	clrf	??___flmul+3
  3273     01B8  0836               	movf	??___flmul,w
  3274     01B9  07BC               	addwf	___flmul@grs,f
  3275     01BA  0837               	movf	??___flmul+1,w
  3276     01BB  1103               	clrz
  3277     01BC  1803               	skipnc
  3278     01BD  3E01               	addlw	1
  3279     01BE  1903               	skipnz
  3280     01BF  29C1               	goto	u2091
  3281     01C0  07BD               	addwf	___flmul@grs+1,f
  3282     01C1                     u2091:
  3283     01C1  0838               	movf	??___flmul+2,w
  3284     01C2  1103               	clrz
  3285     01C3  1803               	skipnc
  3286     01C4  3E01               	addlw	1
  3287     01C5  1903               	skipnz
  3288     01C6  29C8               	goto	u2092
  3289     01C7  07BE               	addwf	___flmul@grs+2,f
  3290     01C8                     u2092:
  3291     01C8  0839               	movf	??___flmul+3,w
  3292     01C9  1103               	clrz
  3293     01CA  1803               	skipnc
  3294     01CB  3E01               	addlw	1
  3295     01CC  1903               	skipnz
  3296     01CD  29CF               	goto	u2093
  3297     01CE  07BF               	addwf	___flmul@grs+3,f
  3298     01CF                     u2093:
  3299     01CF                     l1696:
  3300     01CF  082F               	movf	___flmul@b+1,w
  3301     01D0  00A0               	movwf	__Umul8_16@multiplicand
  3302     01D1  0834               	movf	___flmul@a+2,w
  3303     01D2  120A  158A  255A  120A  118A  	fcall	__Umul8_16
  3304     01D7  1283               	bcf	3,5	;RP0=0, select bank0
  3305     01D8  1303               	bcf	3,6	;RP1=0, select bank0
  3306     01D9  0821               	movf	?__Umul8_16+1,w
  3307     01DA  00C7               	movwf	___flmul@temp+1
  3308     01DB  0820               	movf	?__Umul8_16,w
  3309     01DC  00C6               	movwf	___flmul@temp
  3310     01DD  0846               	movf	___flmul@temp,w
  3311     01DE  00B6               	movwf	??___flmul
  3312     01DF  0847               	movf	___flmul@temp+1,w
  3313     01E0  00B7               	movwf	??___flmul+1
  3314     01E1  01B8               	clrf	??___flmul+2
  3315     01E2  01B9               	clrf	??___flmul+3
  3316     01E3  0836               	movf	??___flmul,w
  3317     01E4  07C2               	addwf	___flmul@prod,f
  3318     01E5  0837               	movf	??___flmul+1,w
  3319     01E6  1103               	clrz
  3320     01E7  1803               	skipnc
  3321     01E8  3E01               	addlw	1
  3322     01E9  1903               	skipnz
  3323     01EA  29EC               	goto	u2101
  3324     01EB  07C3               	addwf	___flmul@prod+1,f
  3325     01EC                     u2101:
  3326     01EC  0838               	movf	??___flmul+2,w
  3327     01ED  1103               	clrz
  3328     01EE  1803               	skipnc
  3329     01EF  3E01               	addlw	1
  3330     01F0  1903               	skipnz
  3331     01F1  29F3               	goto	u2102
  3332     01F2  07C4               	addwf	___flmul@prod+2,f
  3333     01F3                     u2102:
  3334     01F3  0839               	movf	??___flmul+3,w
  3335     01F4  1103               	clrz
  3336     01F5  1803               	skipnc
  3337     01F6  3E01               	addlw	1
  3338     01F7  1903               	skipnz
  3339     01F8  29FA               	goto	u2103
  3340     01F9  07C5               	addwf	___flmul@prod+3,f
  3341     01FA                     u2103:
  3342     01FA                     l1698:
  3343     01FA  0830               	movf	___flmul@b+2,w
  3344     01FB  00A0               	movwf	__Umul8_16@multiplicand
  3345     01FC  0833               	movf	___flmul@a+1,w
  3346     01FD  120A  158A  255A  120A  118A  	fcall	__Umul8_16
  3347     0202  1283               	bcf	3,5	;RP0=0, select bank0
  3348     0203  1303               	bcf	3,6	;RP1=0, select bank0
  3349     0204  0821               	movf	?__Umul8_16+1,w
  3350     0205  00C7               	movwf	___flmul@temp+1
  3351     0206  0820               	movf	?__Umul8_16,w
  3352     0207  00C6               	movwf	___flmul@temp
  3353     0208                     l1700:
  3354     0208  0846               	movf	___flmul@temp,w
  3355     0209  00B6               	movwf	??___flmul
  3356     020A  0847               	movf	___flmul@temp+1,w
  3357     020B  00B7               	movwf	??___flmul+1
  3358     020C  01B8               	clrf	??___flmul+2
  3359     020D  01B9               	clrf	??___flmul+3
  3360     020E  0836               	movf	??___flmul,w
  3361     020F  07C2               	addwf	___flmul@prod,f
  3362     0210  0837               	movf	??___flmul+1,w
  3363     0211  1103               	clrz
  3364     0212  1803               	skipnc
  3365     0213  3E01               	addlw	1
  3366     0214  1903               	skipnz
  3367     0215  2A17               	goto	u2111
  3368     0216  07C3               	addwf	___flmul@prod+1,f
  3369     0217                     u2111:
  3370     0217  0838               	movf	??___flmul+2,w
  3371     0218  1103               	clrz
  3372     0219  1803               	skipnc
  3373     021A  3E01               	addlw	1
  3374     021B  1903               	skipnz
  3375     021C  2A1E               	goto	u2112
  3376     021D  07C4               	addwf	___flmul@prod+2,f
  3377     021E                     u2112:
  3378     021E  0839               	movf	??___flmul+3,w
  3379     021F  1103               	clrz
  3380     0220  1803               	skipnc
  3381     0221  3E01               	addlw	1
  3382     0222  1903               	skipnz
  3383     0223  2A25               	goto	u2113
  3384     0224  07C5               	addwf	___flmul@prod+3,f
  3385     0225                     u2113:
  3386     0225  0830               	movf	___flmul@b+2,w
  3387     0226  00A0               	movwf	__Umul8_16@multiplicand
  3388     0227  0834               	movf	___flmul@a+2,w
  3389     0228  120A  158A  255A  120A  118A  	fcall	__Umul8_16
  3390     022D  1283               	bcf	3,5	;RP0=0, select bank0
  3391     022E  1303               	bcf	3,6	;RP1=0, select bank0
  3392     022F  0821               	movf	?__Umul8_16+1,w
  3393     0230  00C7               	movwf	___flmul@temp+1
  3394     0231  0820               	movf	?__Umul8_16,w
  3395     0232  00C6               	movwf	___flmul@temp
  3396     0233                     l1702:
  3397     0233  0846               	movf	___flmul@temp,w
  3398     0234  00B6               	movwf	??___flmul
  3399     0235  0847               	movf	___flmul@temp+1,w
  3400     0236  00B7               	movwf	??___flmul+1
  3401     0237  01B8               	clrf	??___flmul+2
  3402     0238  01B9               	clrf	??___flmul+3
  3403     0239  3008               	movlw	8
  3404     023A                     u2125:
  3405     023A  1003               	clrc
  3406     023B  0DB6               	rlf	??___flmul,f
  3407     023C  0DB7               	rlf	??___flmul+1,f
  3408     023D  0DB8               	rlf	??___flmul+2,f
  3409     023E  0DB9               	rlf	??___flmul+3,f
  3410     023F                     u2120:
  3411     023F  3EFF               	addlw	-1
  3412     0240  1D03               	skipz
  3413     0241  2A3A               	goto	u2125
  3414     0242  0836               	movf	??___flmul,w
  3415     0243  07C2               	addwf	___flmul@prod,f
  3416     0244  0837               	movf	??___flmul+1,w
  3417     0245  1103               	clrz
  3418     0246  1803               	skipnc
  3419     0247  3E01               	addlw	1
  3420     0248  1903               	skipnz
  3421     0249  2A4B               	goto	u2131
  3422     024A  07C3               	addwf	___flmul@prod+1,f
  3423     024B                     u2131:
  3424     024B  0838               	movf	??___flmul+2,w
  3425     024C  1103               	clrz
  3426     024D  1803               	skipnc
  3427     024E  3E01               	addlw	1
  3428     024F  1903               	skipnz
  3429     0250  2A52               	goto	u2132
  3430     0251  07C4               	addwf	___flmul@prod+2,f
  3431     0252                     u2132:
  3432     0252  0839               	movf	??___flmul+3,w
  3433     0253  1103               	clrz
  3434     0254  1803               	skipnc
  3435     0255  3E01               	addlw	1
  3436     0256  1903               	skipnz
  3437     0257  2A59               	goto	u2133
  3438     0258  07C5               	addwf	___flmul@prod+3,f
  3439     0259                     u2133:
  3440     0259                     l1704:
  3441     0259  083C               	movf	___flmul@grs,w
  3442     025A  00B6               	movwf	??___flmul
  3443     025B  083D               	movf	___flmul@grs+1,w
  3444     025C  00B7               	movwf	??___flmul+1
  3445     025D  083E               	movf	___flmul@grs+2,w
  3446     025E  00B8               	movwf	??___flmul+2
  3447     025F  083F               	movf	___flmul@grs+3,w
  3448     0260  00B9               	movwf	??___flmul+3
  3449     0261  3018               	movlw	24
  3450     0262                     u2145:
  3451     0262  1003               	clrc
  3452     0263  0CB9               	rrf	??___flmul+3,f
  3453     0264  0CB8               	rrf	??___flmul+2,f
  3454     0265  0CB7               	rrf	??___flmul+1,f
  3455     0266  0CB6               	rrf	??___flmul,f
  3456     0267                     u2140:
  3457     0267  3EFF               	addlw	-1
  3458     0268  1D03               	skipz
  3459     0269  2A62               	goto	u2145
  3460     026A  0836               	movf	??___flmul,w
  3461     026B  07C2               	addwf	___flmul@prod,f
  3462     026C  0837               	movf	??___flmul+1,w
  3463     026D  1103               	clrz
  3464     026E  1803               	skipnc
  3465     026F  3E01               	addlw	1
  3466     0270  1903               	skipnz
  3467     0271  2A73               	goto	u2151
  3468     0272  07C3               	addwf	___flmul@prod+1,f
  3469     0273                     u2151:
  3470     0273  0838               	movf	??___flmul+2,w
  3471     0274  1103               	clrz
  3472     0275  1803               	skipnc
  3473     0276  3E01               	addlw	1
  3474     0277  1903               	skipnz
  3475     0278  2A7A               	goto	u2152
  3476     0279  07C4               	addwf	___flmul@prod+2,f
  3477     027A                     u2152:
  3478     027A  0839               	movf	??___flmul+3,w
  3479     027B  1103               	clrz
  3480     027C  1803               	skipnc
  3481     027D  3E01               	addlw	1
  3482     027E  1903               	skipnz
  3483     027F  2A81               	goto	u2153
  3484     0280  07C5               	addwf	___flmul@prod+3,f
  3485     0281                     u2153:
  3486     0281                     l1706:
  3487     0281  3008               	movlw	8
  3488     0282  00B6               	movwf	??___flmul
  3489     0283                     u2165:
  3490     0283  1003               	clrc
  3491     0284  0DBC               	rlf	___flmul@grs,f
  3492     0285  0DBD               	rlf	___flmul@grs+1,f
  3493     0286  0DBE               	rlf	___flmul@grs+2,f
  3494     0287  0DBF               	rlf	___flmul@grs+3,f
  3495     0288  0BB6               	decfsz	??___flmul,f
  3496     0289  2A83               	goto	u2165
  3497     028A                     l1708:
  3498     028A  0841               	movf	___flmul@bexp,w
  3499     028B  0740               	addwf	___flmul@aexp,w
  3500     028C  00B6               	movwf	??___flmul
  3501     028D  01B7               	clrf	??___flmul+1
  3502     028E  0DB7               	rlf	??___flmul+1,f
  3503     028F  0836               	movf	??___flmul,w
  3504     0290  3E82               	addlw	130
  3505     0291  00C6               	movwf	___flmul@temp
  3506     0292  0837               	movf	??___flmul+1,w
  3507     0293  1803               	skipnc
  3508     0294  3E01               	addlw	1
  3509     0295  3EFF               	addlw	255
  3510     0296  00C7               	movwf	___flmul@temp+1
  3511     0297  2AB5               	goto	l1720
  3512     0298                     l1710:
  3513     0298  3001               	movlw	1
  3514     0299  00B6               	movwf	??___flmul
  3515     029A                     u2175:
  3516     029A  1003               	clrc
  3517     029B  0DC2               	rlf	___flmul@prod,f
  3518     029C  0DC3               	rlf	___flmul@prod+1,f
  3519     029D  0DC4               	rlf	___flmul@prod+2,f
  3520     029E  0DC5               	rlf	___flmul@prod+3,f
  3521     029F  0BB6               	decfsz	??___flmul,f
  3522     02A0  2A9A               	goto	u2175
  3523     02A1                     l1712:
  3524     02A1  1FBF               	btfss	___flmul@grs+3,7
  3525     02A2  2AA4               	goto	u2181
  3526     02A3  2AA5               	goto	u2180
  3527     02A4                     u2181:
  3528     02A4  2AA6               	goto	l1716
  3529     02A5                     u2180:
  3530     02A5                     l1714:
  3531     02A5  1442               	bsf	___flmul@prod,0
  3532     02A6                     l1716:
  3533     02A6  3001               	movlw	1
  3534     02A7  00B6               	movwf	??___flmul
  3535     02A8                     u2195:
  3536     02A8  1003               	clrc
  3537     02A9  0DBC               	rlf	___flmul@grs,f
  3538     02AA  0DBD               	rlf	___flmul@grs+1,f
  3539     02AB  0DBE               	rlf	___flmul@grs+2,f
  3540     02AC  0DBF               	rlf	___flmul@grs+3,f
  3541     02AD  0BB6               	decfsz	??___flmul,f
  3542     02AE  2AA8               	goto	u2195
  3543     02AF                     l1718:
  3544     02AF  30FF               	movlw	255
  3545     02B0  07C6               	addwf	___flmul@temp,f
  3546     02B1  1803               	skipnc
  3547     02B2  0AC7               	incf	___flmul@temp+1,f
  3548     02B3  30FF               	movlw	255
  3549     02B4  07C7               	addwf	___flmul@temp+1,f
  3550     02B5                     l1720:
  3551     02B5  1FC4               	btfss	___flmul@prod+2,7
  3552     02B6  2AB8               	goto	u2201
  3553     02B7  2AB9               	goto	u2200
  3554     02B8                     u2201:
  3555     02B8  2A98               	goto	l1710
  3556     02B9                     u2200:
  3557     02B9                     l1722:
  3558     02B9  01C0               	clrf	___flmul@aexp
  3559     02BA                     l1724:
  3560     02BA  1FBF               	btfss	___flmul@grs+3,7
  3561     02BB  2ABD               	goto	u2211
  3562     02BC  2ABE               	goto	u2210
  3563     02BD                     u2211:
  3564     02BD  2ADA               	goto	l1732
  3565     02BE                     u2210:
  3566     02BE                     l1726:
  3567     02BE  30FF               	movlw	255
  3568     02BF  053C               	andwf	___flmul@grs,w
  3569     02C0  00B6               	movwf	??___flmul
  3570     02C1  30FF               	movlw	255
  3571     02C2  053D               	andwf	___flmul@grs+1,w
  3572     02C3  00B7               	movwf	??___flmul+1
  3573     02C4  30FF               	movlw	255
  3574     02C5  053E               	andwf	___flmul@grs+2,w
  3575     02C6  00B8               	movwf	??___flmul+2
  3576     02C7  307F               	movlw	127
  3577     02C8  053F               	andwf	___flmul@grs+3,w
  3578     02C9  00B9               	movwf	??___flmul+3
  3579     02CA  0839               	movf	??___flmul+3,w
  3580     02CB  0438               	iorwf	??___flmul+2,w
  3581     02CC  0437               	iorwf	??___flmul+1,w
  3582     02CD  0436               	iorwf	??___flmul,w
  3583     02CE  1903               	skipnz
  3584     02CF  2AD1               	goto	u2221
  3585     02D0  2AD2               	goto	u2220
  3586     02D1                     u2221:
  3587     02D1  2AD5               	goto	l659
  3588     02D2                     u2220:
  3589     02D2                     l1728:
  3590     02D2  01C0               	clrf	___flmul@aexp
  3591     02D3  0AC0               	incf	___flmul@aexp,f
  3592     02D4  2ADA               	goto	l1732
  3593     02D5                     l659:
  3594     02D5  1C42               	btfss	___flmul@prod,0
  3595     02D6  2AD8               	goto	u2231
  3596     02D7  2AD9               	goto	u2230
  3597     02D8                     u2231:
  3598     02D8  2ADA               	goto	l1732
  3599     02D9                     u2230:
  3600     02D9  2AD2               	goto	l1728
  3601     02DA                     l1732:
  3602     02DA  0840               	movf	___flmul@aexp,w
  3603     02DB  1903               	btfsc	3,2
  3604     02DC  2ADE               	goto	u2241
  3605     02DD  2ADF               	goto	u2240
  3606     02DE                     u2241:
  3607     02DE  2B10               	goto	l1742
  3608     02DF                     u2240:
  3609     02DF                     l1734:
  3610     02DF  3001               	movlw	1
  3611     02E0  07C2               	addwf	___flmul@prod,f
  3612     02E1  3000               	movlw	0
  3613     02E2  1803               	skipnc
  3614     02E3  3001               	movlw	1
  3615     02E4  07C3               	addwf	___flmul@prod+1,f
  3616     02E5  3000               	movlw	0
  3617     02E6  1803               	skipnc
  3618     02E7  3001               	movlw	1
  3619     02E8  07C4               	addwf	___flmul@prod+2,f
  3620     02E9  3000               	movlw	0
  3621     02EA  1803               	skipnc
  3622     02EB  3001               	movlw	1
  3623     02EC  07C5               	addwf	___flmul@prod+3,f
  3624     02ED                     l1736:
  3625     02ED  1C45               	btfss	___flmul@prod+3,0
  3626     02EE  2AF0               	goto	u2251
  3627     02EF  2AF1               	goto	u2250
  3628     02F0                     u2251:
  3629     02F0  2B10               	goto	l1742
  3630     02F1                     u2250:
  3631     02F1                     l1738:
  3632     02F1  0842               	movf	___flmul@prod,w
  3633     02F2  00B6               	movwf	??___flmul
  3634     02F3  0843               	movf	___flmul@prod+1,w
  3635     02F4  00B7               	movwf	??___flmul+1
  3636     02F5  0844               	movf	___flmul@prod+2,w
  3637     02F6  00B8               	movwf	??___flmul+2
  3638     02F7  0845               	movf	___flmul@prod+3,w
  3639     02F8  00B9               	movwf	??___flmul+3
  3640     02F9  3001               	movlw	1
  3641     02FA  00BA               	movwf	??___flmul+4
  3642     02FB                     u2265:
  3643     02FB  0D39               	rlf	??___flmul+3,w
  3644     02FC  0CB9               	rrf	??___flmul+3,f
  3645     02FD  0CB8               	rrf	??___flmul+2,f
  3646     02FE  0CB7               	rrf	??___flmul+1,f
  3647     02FF  0CB6               	rrf	??___flmul,f
  3648     0300                     u2260:
  3649     0300  0BBA               	decfsz	??___flmul+4,f
  3650     0301  2AFB               	goto	u2265
  3651     0302  0839               	movf	??___flmul+3,w
  3652     0303  00C5               	movwf	___flmul@prod+3
  3653     0304  0838               	movf	??___flmul+2,w
  3654     0305  00C4               	movwf	___flmul@prod+2
  3655     0306  0837               	movf	??___flmul+1,w
  3656     0307  00C3               	movwf	___flmul@prod+1
  3657     0308  0836               	movf	??___flmul,w
  3658     0309  00C2               	movwf	___flmul@prod
  3659     030A                     l1740:
  3660     030A  3001               	movlw	1
  3661     030B  07C6               	addwf	___flmul@temp,f
  3662     030C  1803               	skipnc
  3663     030D  0AC7               	incf	___flmul@temp+1,f
  3664     030E  3000               	movlw	0
  3665     030F  07C7               	addwf	___flmul@temp+1,f
  3666     0310                     l1742:
  3667     0310  0847               	movf	___flmul@temp+1,w
  3668     0311  3A80               	xorlw	128
  3669     0312  00FF               	movwf	btemp+1
  3670     0313  3080               	movlw	128
  3671     0314  027F               	subwf	btemp+1,w
  3672     0315  1D03               	skipz
  3673     0316  2B19               	goto	u2275
  3674     0317  30FF               	movlw	255
  3675     0318  0246               	subwf	___flmul@temp,w
  3676     0319                     u2275:
  3677     0319  1C03               	skipc
  3678     031A  2B1C               	goto	u2271
  3679     031B  2B1D               	goto	u2270
  3680     031C                     u2271:
  3681     031C  2B28               	goto	l1746
  3682     031D                     u2270:
  3683     031D                     l1744:
  3684     031D  307F               	movlw	127
  3685     031E  1283               	bcf	3,5	;RP0=0, select bank0
  3686     031F  1303               	bcf	3,6	;RP1=0, select bank0
  3687     0320  00C5               	movwf	___flmul@prod+3
  3688     0321  3080               	movlw	128
  3689     0322  00C4               	movwf	___flmul@prod+2
  3690     0323  3000               	movlw	0
  3691     0324  00C3               	movwf	___flmul@prod+1
  3692     0325  3000               	movlw	0
  3693     0326  00C2               	movwf	___flmul@prod
  3694     0327  2B59               	goto	l665
  3695     0328                     l1746:
  3696     0328  1283               	bcf	3,5	;RP0=0, select bank0
  3697     0329  1303               	bcf	3,6	;RP1=0, select bank0
  3698     032A  0847               	movf	___flmul@temp+1,w
  3699     032B  3A80               	xorlw	128
  3700     032C  00FF               	movwf	btemp+1
  3701     032D  3080               	movlw	128
  3702     032E  027F               	subwf	btemp+1,w
  3703     032F  1D03               	skipz
  3704     0330  2B33               	goto	u2285
  3705     0331  3001               	movlw	1
  3706     0332  0246               	subwf	___flmul@temp,w
  3707     0333                     u2285:
  3708     0333  1803               	skipnc
  3709     0334  2B36               	goto	u2281
  3710     0335  2B37               	goto	u2280
  3711     0336                     u2281:
  3712     0336  2B43               	goto	l1752
  3713     0337                     u2280:
  3714     0337                     l1748:
  3715     0337  3000               	movlw	0
  3716     0338  1283               	bcf	3,5	;RP0=0, select bank0
  3717     0339  1303               	bcf	3,6	;RP1=0, select bank0
  3718     033A  00C5               	movwf	___flmul@prod+3
  3719     033B  3000               	movlw	0
  3720     033C  00C4               	movwf	___flmul@prod+2
  3721     033D  3000               	movlw	0
  3722     033E  00C3               	movwf	___flmul@prod+1
  3723     033F  3000               	movlw	0
  3724     0340  00C2               	movwf	___flmul@prod
  3725     0341                     l1750:
  3726     0341  01BB               	clrf	___flmul@sign
  3727     0342  2B59               	goto	l665
  3728     0343                     l1752:
  3729     0343  1283               	bcf	3,5	;RP0=0, select bank0
  3730     0344  1303               	bcf	3,6	;RP1=0, select bank0
  3731     0345  0846               	movf	___flmul@temp,w
  3732     0346  00C1               	movwf	___flmul@bexp
  3733     0347  30FF               	movlw	255
  3734     0348  05C2               	andwf	___flmul@prod,f
  3735     0349  30FF               	movlw	255
  3736     034A  05C3               	andwf	___flmul@prod+1,f
  3737     034B  307F               	movlw	127
  3738     034C  05C4               	andwf	___flmul@prod+2,f
  3739     034D  3000               	movlw	0
  3740     034E  05C5               	andwf	___flmul@prod+3,f
  3741     034F                     l1754:
  3742     034F  1C41               	btfss	___flmul@bexp,0
  3743     0350  2B52               	goto	u2291
  3744     0351  2B53               	goto	u2290
  3745     0352                     u2291:
  3746     0352  2B54               	goto	l1758
  3747     0353                     u2290:
  3748     0353                     l1756:
  3749     0353  17C4               	bsf	___flmul@prod+2,7
  3750     0354                     l1758:
  3751     0354  0841               	movf	___flmul@bexp,w
  3752     0355  00B6               	movwf	??___flmul
  3753     0356  1003               	clrc
  3754     0357  0C36               	rrf	??___flmul,w
  3755     0358  00C5               	movwf	___flmul@prod+3
  3756     0359                     l665:
  3757     0359  083B               	movf	___flmul@sign,w
  3758     035A  00B6               	movwf	??___flmul
  3759     035B  0836               	movf	??___flmul,w
  3760     035C  04C5               	iorwf	___flmul@prod+3,f
  3761     035D                     l1760:
  3762     035D  0845               	movf	___flmul@prod+3,w
  3763     035E  00B1               	movwf	?___flmul+3
  3764     035F  0844               	movf	___flmul@prod+2,w
  3765     0360  00B0               	movwf	?___flmul+2
  3766     0361  0843               	movf	___flmul@prod+1,w
  3767     0362  00AF               	movwf	?___flmul+1
  3768     0363  0842               	movf	___flmul@prod,w
  3769     0364  00AE               	movwf	?___flmul
  3770     0365                     l653:
  3771     0365  0008               	return
  3772     0366                     __end_of___flmul:
  3773                           
  3774                           	psect	text15
  3775     0D5A                     __ptext15:	
  3776 ;; *************** function __Umul8_16 *****************
  3777 ;; Defined at:
  3778 ;;		line 4 in file "C:\Program Files\Microchip\xc8\v2.40\pic\sources\c90\common\Umul8_16.c"
  3779 ;; Parameters:    Size  Location     Type
  3780 ;;  multiplier      1    wreg     unsigned char 
  3781 ;;  multiplicand    1    0[BANK0 ] unsigned char 
  3782 ;; Auto vars:     Size  Location     Type
  3783 ;;  multiplier      1    8[BANK0 ] unsigned char 
  3784 ;;  word_mpld       2    6[BANK0 ] unsigned int 
  3785 ;;  product         2    4[BANK0 ] unsigned int 
  3786 ;; Return value:  Size  Location     Type
  3787 ;;                  2    0[BANK0 ] unsigned int 
  3788 ;; Registers used:
  3789 ;;		wreg, status,2, status,0
  3790 ;; Tracked objects:
  3791 ;;		On entry : 0/0
  3792 ;;		On exit  : 0/0
  3793 ;;		Unchanged: 0/0
  3794 ;; Data sizes:     COMMON   BANK0   BANK1   BANK3   BANK2
  3795 ;;      Params:         0       2       0       0       0
  3796 ;;      Locals:         0       5       0       0       0
  3797 ;;      Temps:          0       2       0       0       0
  3798 ;;      Totals:         0       9       0       0       0
  3799 ;;Total ram usage:        9 bytes
  3800 ;; Hardware stack levels used: 1
  3801 ;; Hardware stack levels required when called: 1
  3802 ;; This function calls:
  3803 ;;		Nothing
  3804 ;; This function is called by:
  3805 ;;		___flmul
  3806 ;; This function uses a non-reentrant model
  3807 ;;
  3808                           
  3809     0D5A                     __Umul8_16:	
  3810                           ;psect for function __Umul8_16
  3811                           
  3812                           
  3813                           ;incstack = 0
  3814                           ; Regs used in __Umul8_16: [wreg+status,2+status,0]
  3815                           ;__Umul8_16@multiplier stored from wreg
  3816     0D5A  1283               	bcf	3,5	;RP0=0, select bank0
  3817     0D5B  1303               	bcf	3,6	;RP1=0, select bank0
  3818     0D5C  00A8               	movwf	__Umul8_16@multiplier
  3819     0D5D                     l1380:
  3820     0D5D  01A4               	clrf	__Umul8_16@product
  3821     0D5E  01A5               	clrf	__Umul8_16@product+1
  3822     0D5F                     l1382:
  3823     0D5F  0820               	movf	__Umul8_16@multiplicand,w
  3824     0D60  00A2               	movwf	??__Umul8_16
  3825     0D61  01A3               	clrf	??__Umul8_16+1
  3826     0D62  0822               	movf	??__Umul8_16,w
  3827     0D63  00A6               	movwf	__Umul8_16@word_mpld
  3828     0D64  0823               	movf	??__Umul8_16+1,w
  3829     0D65  00A7               	movwf	__Umul8_16@word_mpld+1
  3830     0D66                     l1384:
  3831     0D66  1C28               	btfss	__Umul8_16@multiplier,0
  3832     0D67  2D69               	goto	u1341
  3833     0D68  2D6A               	goto	u1340
  3834     0D69                     u1341:
  3835     0D69  2D70               	goto	l672
  3836     0D6A                     u1340:
  3837     0D6A                     l1386:
  3838     0D6A  0826               	movf	__Umul8_16@word_mpld,w
  3839     0D6B  07A4               	addwf	__Umul8_16@product,f
  3840     0D6C  1803               	skipnc
  3841     0D6D  0AA5               	incf	__Umul8_16@product+1,f
  3842     0D6E  0827               	movf	__Umul8_16@word_mpld+1,w
  3843     0D6F  07A5               	addwf	__Umul8_16@product+1,f
  3844     0D70                     l672:
  3845     0D70  3001               	movlw	1
  3846     0D71                     u1355:
  3847     0D71  1003               	clrc
  3848     0D72  0DA6               	rlf	__Umul8_16@word_mpld,f
  3849     0D73  0DA7               	rlf	__Umul8_16@word_mpld+1,f
  3850     0D74  3EFF               	addlw	-1
  3851     0D75  1D03               	skipz
  3852     0D76  2D71               	goto	u1355
  3853     0D77  1003               	clrc
  3854     0D78  0CA8               	rrf	__Umul8_16@multiplier,f
  3855     0D79                     l1388:
  3856     0D79  0828               	movf	__Umul8_16@multiplier,w
  3857     0D7A  1D03               	btfss	3,2
  3858     0D7B  2D7D               	goto	u1361
  3859     0D7C  2D7E               	goto	u1360
  3860     0D7D                     u1361:
  3861     0D7D  2D66               	goto	l1384
  3862     0D7E                     u1360:
  3863     0D7E                     l1390:
  3864     0D7E  0825               	movf	__Umul8_16@product+1,w
  3865     0D7F  00A1               	movwf	?__Umul8_16+1
  3866     0D80  0824               	movf	__Umul8_16@product,w
  3867     0D81  00A0               	movwf	?__Umul8_16
  3868     0D82                     l674:
  3869     0D82  0008               	return
  3870     0D83                     __end_of__Umul8_16:
  3871                           
  3872                           	psect	text16
  3873     0366                     __ptext16:	
  3874 ;; *************** function ___fladd *****************
  3875 ;; Defined at:
  3876 ;;		line 10 in file "C:\Program Files\Microchip\xc8\v2.40\pic\sources\c90\common\sprcadd.c"
  3877 ;; Parameters:    Size  Location     Type
  3878 ;;  b               4   40[BANK0 ] unsigned int 
  3879 ;;  a               4   44[BANK0 ] unsigned int 
  3880 ;; Auto vars:     Size  Location     Type
  3881 ;;  grs             1   59[BANK0 ] unsigned char 
  3882 ;;  bexp            1   58[BANK0 ] unsigned char 
  3883 ;;  aexp            1   57[BANK0 ] unsigned char 
  3884 ;;  signs           1   56[BANK0 ] unsigned char 
  3885 ;; Return value:  Size  Location     Type
  3886 ;;                  4   40[BANK0 ] unsigned char 
  3887 ;; Registers used:
  3888 ;;		wreg, status,2, status,0, btemp+1
  3889 ;; Tracked objects:
  3890 ;;		On entry : 0/0
  3891 ;;		On exit  : 0/0
  3892 ;;		Unchanged: 0/0
  3893 ;; Data sizes:     COMMON   BANK0   BANK1   BANK3   BANK2
  3894 ;;      Params:         0       8       0       0       0
  3895 ;;      Locals:         0       4       0       0       0
  3896 ;;      Temps:          0       8       0       0       0
  3897 ;;      Totals:         0      20       0       0       0
  3898 ;;Total ram usage:       20 bytes
  3899 ;; Hardware stack levels used: 1
  3900 ;; Hardware stack levels required when called: 1
  3901 ;; This function calls:
  3902 ;;		Nothing
  3903 ;; This function is called by:
  3904 ;;		_PWMtmr0
  3905 ;;		_PWMtmr1
  3906 ;;		_mapeo
  3907 ;; This function uses a non-reentrant model
  3908 ;;
  3909                           
  3910     0366                     ___fladd:	
  3911                           ;psect for function ___fladd
  3912                           
  3913     0366                     l1430:	
  3914                           ;incstack = 0
  3915                           ; Regs used in ___fladd: [wreg+status,2+status,0+btemp+1]
  3916                           
  3917     0366  1283               	bcf	3,5	;RP0=0, select bank0
  3918     0367  1303               	bcf	3,6	;RP1=0, select bank0
  3919     0368  084B               	movf	___fladd@b+3,w
  3920     0369  3980               	andlw	128
  3921     036A  00D8               	movwf	___fladd@signs
  3922     036B                     l1432:
  3923     036B  084B               	movf	___fladd@b+3,w
  3924     036C  00D0               	movwf	??___fladd
  3925     036D  0750               	addwf	??___fladd,w
  3926     036E  00DA               	movwf	___fladd@bexp
  3927     036F                     l1434:
  3928     036F  1FCA               	btfss	___fladd@b+2,7
  3929     0370  2B72               	goto	u1471
  3930     0371  2B73               	goto	u1470
  3931     0372                     u1471:
  3932     0372  2B74               	goto	l1438
  3933     0373                     u1470:
  3934     0373                     l1436:
  3935     0373  145A               	bsf	___fladd@bexp,0
  3936     0374                     l1438:
  3937     0374  085A               	movf	___fladd@bexp,w
  3938     0375  1903               	btfsc	3,2
  3939     0376  2B78               	goto	u1481
  3940     0377  2B79               	goto	u1480
  3941     0378                     u1481:
  3942     0378  2B89               	goto	l1448
  3943     0379                     u1480:
  3944     0379                     l1440:
  3945     0379  0A5A               	incf	___fladd@bexp,w
  3946     037A  1D03               	btfss	3,2
  3947     037B  2B7D               	goto	u1491
  3948     037C  2B7E               	goto	u1490
  3949     037D                     u1491:
  3950     037D  2B86               	goto	l1444
  3951     037E                     u1490:
  3952     037E                     l1442:
  3953     037E  3000               	movlw	0
  3954     037F  00CB               	movwf	___fladd@b+3
  3955     0380  3000               	movlw	0
  3956     0381  00CA               	movwf	___fladd@b+2
  3957     0382  3000               	movlw	0
  3958     0383  00C9               	movwf	___fladd@b+1
  3959     0384  3000               	movlw	0
  3960     0385  00C8               	movwf	___fladd@b
  3961     0386                     l1444:
  3962     0386  17CA               	bsf	___fladd@b+2,7
  3963     0387                     l1446:
  3964     0387  01CB               	clrf	___fladd@b+3
  3965     0388  2B91               	goto	l1450
  3966     0389                     l1448:
  3967     0389  3000               	movlw	0
  3968     038A  00CB               	movwf	___fladd@b+3
  3969     038B  3000               	movlw	0
  3970     038C  00CA               	movwf	___fladd@b+2
  3971     038D  3000               	movlw	0
  3972     038E  00C9               	movwf	___fladd@b+1
  3973     038F  3000               	movlw	0
  3974     0390  00C8               	movwf	___fladd@b
  3975     0391                     l1450:
  3976     0391  084F               	movf	___fladd@a+3,w
  3977     0392  3980               	andlw	128
  3978     0393  00D9               	movwf	___fladd@aexp
  3979     0394                     l1452:
  3980     0394  0859               	movf	___fladd@aexp,w
  3981     0395  0658               	xorwf	___fladd@signs,w
  3982     0396  1903               	skipnz
  3983     0397  2B99               	goto	u1501
  3984     0398  2B9A               	goto	u1500
  3985     0399                     u1501:
  3986     0399  2B9B               	goto	l1456
  3987     039A                     u1500:
  3988     039A                     l1454:
  3989     039A  1758               	bsf	___fladd@signs,6
  3990     039B                     l1456:
  3991     039B  084F               	movf	___fladd@a+3,w
  3992     039C  00D0               	movwf	??___fladd
  3993     039D  0750               	addwf	??___fladd,w
  3994     039E  00D9               	movwf	___fladd@aexp
  3995     039F                     l1458:
  3996     039F  1FCE               	btfss	___fladd@a+2,7
  3997     03A0  2BA2               	goto	u1511
  3998     03A1  2BA3               	goto	u1510
  3999     03A2                     u1511:
  4000     03A2  2BA4               	goto	l1462
  4001     03A3                     u1510:
  4002     03A3                     l1460:
  4003     03A3  1459               	bsf	___fladd@aexp,0
  4004     03A4                     l1462:
  4005     03A4  0859               	movf	___fladd@aexp,w
  4006     03A5  1903               	btfsc	3,2
  4007     03A6  2BA8               	goto	u1521
  4008     03A7  2BA9               	goto	u1520
  4009     03A8                     u1521:
  4010     03A8  2BB9               	goto	l1472
  4011     03A9                     u1520:
  4012     03A9                     l1464:
  4013     03A9  0A59               	incf	___fladd@aexp,w
  4014     03AA  1D03               	btfss	3,2
  4015     03AB  2BAD               	goto	u1531
  4016     03AC  2BAE               	goto	u1530
  4017     03AD                     u1531:
  4018     03AD  2BB6               	goto	l1468
  4019     03AE                     u1530:
  4020     03AE                     l1466:
  4021     03AE  3000               	movlw	0
  4022     03AF  00CF               	movwf	___fladd@a+3
  4023     03B0  3000               	movlw	0
  4024     03B1  00CE               	movwf	___fladd@a+2
  4025     03B2  3000               	movlw	0
  4026     03B3  00CD               	movwf	___fladd@a+1
  4027     03B4  3000               	movlw	0
  4028     03B5  00CC               	movwf	___fladd@a
  4029     03B6                     l1468:
  4030     03B6  17CE               	bsf	___fladd@a+2,7
  4031     03B7                     l1470:
  4032     03B7  01CF               	clrf	___fladd@a+3
  4033     03B8  2BC1               	goto	l557
  4034     03B9                     l1472:
  4035     03B9  3000               	movlw	0
  4036     03BA  00CF               	movwf	___fladd@a+3
  4037     03BB  3000               	movlw	0
  4038     03BC  00CE               	movwf	___fladd@a+2
  4039     03BD  3000               	movlw	0
  4040     03BE  00CD               	movwf	___fladd@a+1
  4041     03BF  3000               	movlw	0
  4042     03C0  00CC               	movwf	___fladd@a
  4043     03C1                     l557:
  4044     03C1  085A               	movf	___fladd@bexp,w
  4045     03C2  0259               	subwf	___fladd@aexp,w
  4046     03C3  1803               	skipnc
  4047     03C4  2BC6               	goto	u1541
  4048     03C5  2BC7               	goto	u1540
  4049     03C6                     u1541:
  4050     03C6  2BED               	goto	l1508
  4051     03C7                     u1540:
  4052     03C7                     l1474:
  4053     03C7  1F58               	btfss	___fladd@signs,6
  4054     03C8  2BCA               	goto	u1551
  4055     03C9  2BCB               	goto	u1550
  4056     03CA                     u1551:
  4057     03CA  2BCF               	goto	l1478
  4058     03CB                     u1550:
  4059     03CB                     l1476:
  4060     03CB  3080               	movlw	128
  4061     03CC  00D0               	movwf	??___fladd
  4062     03CD  0850               	movf	??___fladd,w
  4063     03CE  06D8               	xorwf	___fladd@signs,f
  4064     03CF                     l1478:
  4065     03CF  085A               	movf	___fladd@bexp,w
  4066     03D0  00DB               	movwf	___fladd@grs
  4067     03D1                     l1480:
  4068     03D1  0859               	movf	___fladd@aexp,w
  4069     03D2  00DA               	movwf	___fladd@bexp
  4070     03D3                     l1482:
  4071     03D3  085B               	movf	___fladd@grs,w
  4072     03D4  00D9               	movwf	___fladd@aexp
  4073     03D5                     l1484:
  4074     03D5  0848               	movf	___fladd@b,w
  4075     03D6  00DB               	movwf	___fladd@grs
  4076     03D7                     l1486:
  4077     03D7  084C               	movf	___fladd@a,w
  4078     03D8  00C8               	movwf	___fladd@b
  4079     03D9                     l1488:
  4080     03D9  085B               	movf	___fladd@grs,w
  4081     03DA  00CC               	movwf	___fladd@a
  4082     03DB                     l1490:
  4083     03DB  0849               	movf	___fladd@b+1,w
  4084     03DC  00DB               	movwf	___fladd@grs
  4085     03DD                     l1492:
  4086     03DD  084D               	movf	___fladd@a+1,w
  4087     03DE  00C9               	movwf	___fladd@b+1
  4088     03DF                     l1494:
  4089     03DF  085B               	movf	___fladd@grs,w
  4090     03E0  00CD               	movwf	___fladd@a+1
  4091     03E1                     l1496:
  4092     03E1  084A               	movf	___fladd@b+2,w
  4093     03E2  00DB               	movwf	___fladd@grs
  4094     03E3                     l1498:
  4095     03E3  084E               	movf	___fladd@a+2,w
  4096     03E4  00CA               	movwf	___fladd@b+2
  4097     03E5                     l1500:
  4098     03E5  085B               	movf	___fladd@grs,w
  4099     03E6  00CE               	movwf	___fladd@a+2
  4100     03E7                     l1502:
  4101     03E7  084B               	movf	___fladd@b+3,w
  4102     03E8  00DB               	movwf	___fladd@grs
  4103     03E9                     l1504:
  4104     03E9  084F               	movf	___fladd@a+3,w
  4105     03EA  00CB               	movwf	___fladd@b+3
  4106     03EB                     l1506:
  4107     03EB  085B               	movf	___fladd@grs,w
  4108     03EC  00CF               	movwf	___fladd@a+3
  4109     03ED                     l1508:
  4110     03ED  01DB               	clrf	___fladd@grs
  4111     03EE                     l1510:
  4112     03EE  0859               	movf	___fladd@aexp,w
  4113     03EF  00D0               	movwf	??___fladd
  4114     03F0  01D1               	clrf	??___fladd+1
  4115     03F1  0851               	movf	??___fladd+1,w
  4116     03F2  00D3               	movwf	??___fladd+3
  4117     03F3  085A               	movf	___fladd@bexp,w
  4118     03F4  0250               	subwf	??___fladd,w
  4119     03F5  00D2               	movwf	??___fladd+2
  4120     03F6  1C03               	skipc
  4121     03F7  03D3               	decf	??___fladd+3,f
  4122     03F8  0853               	movf	??___fladd+3,w
  4123     03F9  3A80               	xorlw	128
  4124     03FA  00FF               	movwf	btemp+1
  4125     03FB  3080               	movlw	128
  4126     03FC  027F               	subwf	btemp+1,w
  4127     03FD  1D03               	skipz
  4128     03FE  2C01               	goto	u1565
  4129     03FF  301A               	movlw	26
  4130     0400  0252               	subwf	??___fladd+2,w
  4131     0401                     u1565:
  4132     0401  1C03               	skipc
  4133     0402  2C04               	goto	u1561
  4134     0403  2C05               	goto	u1560
  4135     0404                     u1561:
  4136     0404  2C3C               	goto	l1526
  4137     0405                     u1560:
  4138     0405                     l1512:
  4139     0405  1283               	bcf	3,5	;RP0=0, select bank0
  4140     0406  1303               	bcf	3,6	;RP1=0, select bank0
  4141     0407  084B               	movf	___fladd@b+3,w
  4142     0408  044A               	iorwf	___fladd@b+2,w
  4143     0409  0449               	iorwf	___fladd@b+1,w
  4144     040A  0448               	iorwf	___fladd@b,w
  4145     040B  1D03               	skipz
  4146     040C  2C0E               	goto	u1571
  4147     040D  2C10               	goto	u1570
  4148     040E                     u1571:
  4149     040E  3001               	movlw	1
  4150     040F  2C11               	goto	u1580
  4151     0410                     u1570:
  4152     0410  3000               	movlw	0
  4153     0411                     u1580:
  4154     0411  00DB               	movwf	___fladd@grs
  4155     0412  3000               	movlw	0
  4156     0413  00CB               	movwf	___fladd@b+3
  4157     0414  3000               	movlw	0
  4158     0415  00CA               	movwf	___fladd@b+2
  4159     0416  3000               	movlw	0
  4160     0417  00C9               	movwf	___fladd@b+1
  4161     0418  3000               	movlw	0
  4162     0419  00C8               	movwf	___fladd@b
  4163     041A  0859               	movf	___fladd@aexp,w
  4164     041B  00DA               	movwf	___fladd@bexp
  4165     041C  2C44               	goto	l561
  4166     041D                     l563:
  4167     041D  1C5B               	btfss	___fladd@grs,0
  4168     041E  2C20               	goto	u1591
  4169     041F  2C21               	goto	u1590
  4170     0420                     u1591:
  4171     0420  2C28               	goto	l1516
  4172     0421                     u1590:
  4173     0421                     l1514:
  4174     0421  085B               	movf	___fladd@grs,w
  4175     0422  00D0               	movwf	??___fladd
  4176     0423  1003               	clrc
  4177     0424  0C50               	rrf	??___fladd,w
  4178     0425  3801               	iorlw	1
  4179     0426  00DB               	movwf	___fladd@grs
  4180     0427  2C2A               	goto	l1518
  4181     0428                     l1516:
  4182     0428  1003               	clrc
  4183     0429  0CDB               	rrf	___fladd@grs,f
  4184     042A                     l1518:
  4185     042A  1C48               	btfss	___fladd@b,0
  4186     042B  2C2D               	goto	u1601
  4187     042C  2C2E               	goto	u1600
  4188     042D                     u1601:
  4189     042D  2C2F               	goto	l1522
  4190     042E                     u1600:
  4191     042E                     l1520:
  4192     042E  17DB               	bsf	___fladd@grs,7
  4193     042F                     l1522:
  4194     042F  3001               	movlw	1
  4195     0430  00D0               	movwf	??___fladd
  4196     0431                     u1615:
  4197     0431  0D4B               	rlf	___fladd@b+3,w
  4198     0432  0CCB               	rrf	___fladd@b+3,f
  4199     0433  0CCA               	rrf	___fladd@b+2,f
  4200     0434  0CC9               	rrf	___fladd@b+1,f
  4201     0435  0CC8               	rrf	___fladd@b,f
  4202     0436  0BD0               	decfsz	??___fladd& (0+127),f
  4203     0437  2C31               	goto	u1615
  4204     0438                     l1524:
  4205     0438  3001               	movlw	1
  4206     0439  00D0               	movwf	??___fladd
  4207     043A  0850               	movf	??___fladd,w
  4208     043B  07DA               	addwf	___fladd@bexp,f
  4209     043C                     l1526:
  4210     043C  1283               	bcf	3,5	;RP0=0, select bank0
  4211     043D  1303               	bcf	3,6	;RP1=0, select bank0
  4212     043E  0859               	movf	___fladd@aexp,w
  4213     043F  025A               	subwf	___fladd@bexp,w
  4214     0440  1C03               	skipc
  4215     0441  2C43               	goto	u1621
  4216     0442  2C44               	goto	u1620
  4217     0443                     u1621:
  4218     0443  2C1D               	goto	l563
  4219     0444                     u1620:
  4220     0444                     l561:
  4221     0444  1B58               	btfsc	___fladd@signs,6
  4222     0445  2C47               	goto	u1631
  4223     0446  2C48               	goto	u1630
  4224     0447                     u1631:
  4225     0447  2C91               	goto	l1552
  4226     0448                     u1630:
  4227     0448                     l1528:
  4228     0448  085A               	movf	___fladd@bexp,w
  4229     0449  1D03               	btfss	3,2
  4230     044A  2C4C               	goto	u1641
  4231     044B  2C4D               	goto	u1640
  4232     044C                     u1641:
  4233     044C  2C56               	goto	l1534
  4234     044D                     u1640:
  4235     044D                     l1530:
  4236     044D  3000               	movlw	0
  4237     044E  00CB               	movwf	?___fladd+3
  4238     044F  3000               	movlw	0
  4239     0450  00CA               	movwf	?___fladd+2
  4240     0451  3000               	movlw	0
  4241     0452  00C9               	movwf	?___fladd+1
  4242     0453  3000               	movlw	0
  4243     0454  00C8               	movwf	?___fladd
  4244     0455  2DBD               	goto	l570
  4245     0456                     l1534:
  4246     0456  084C               	movf	___fladd@a,w
  4247     0457  07C8               	addwf	___fladd@b,f
  4248     0458  084D               	movf	___fladd@a+1,w
  4249     0459  1103               	clrz
  4250     045A  1803               	skipnc
  4251     045B  3E01               	addlw	1
  4252     045C  1903               	skipnz
  4253     045D  2C5F               	goto	u1651
  4254     045E  07C9               	addwf	___fladd@b+1,f
  4255     045F                     u1651:
  4256     045F  084E               	movf	___fladd@a+2,w
  4257     0460  1103               	clrz
  4258     0461  1803               	skipnc
  4259     0462  3E01               	addlw	1
  4260     0463  1903               	skipnz
  4261     0464  2C66               	goto	u1652
  4262     0465  07CA               	addwf	___fladd@b+2,f
  4263     0466                     u1652:
  4264     0466  084F               	movf	___fladd@a+3,w
  4265     0467  1103               	clrz
  4266     0468  1803               	skipnc
  4267     0469  3E01               	addlw	1
  4268     046A  1903               	skipnz
  4269     046B  2C6D               	goto	u1653
  4270     046C  07CB               	addwf	___fladd@b+3,f
  4271     046D                     u1653:
  4272     046D                     l1536:
  4273     046D  1C4B               	btfss	___fladd@b+3,0
  4274     046E  2C70               	goto	u1661
  4275     046F  2C71               	goto	u1660
  4276     0470                     u1661:
  4277     0470  2D45               	goto	l1586
  4278     0471                     u1660:
  4279     0471                     l1538:
  4280     0471  1C5B               	btfss	___fladd@grs,0
  4281     0472  2C74               	goto	u1671
  4282     0473  2C75               	goto	u1670
  4283     0474                     u1671:
  4284     0474  2C7C               	goto	l1542
  4285     0475                     u1670:
  4286     0475                     l1540:
  4287     0475  085B               	movf	___fladd@grs,w
  4288     0476  00D0               	movwf	??___fladd
  4289     0477  1003               	clrc
  4290     0478  0C50               	rrf	??___fladd,w
  4291     0479  3801               	iorlw	1
  4292     047A  00DB               	movwf	___fladd@grs
  4293     047B  2C7E               	goto	l1544
  4294     047C                     l1542:
  4295     047C  1003               	clrc
  4296     047D  0CDB               	rrf	___fladd@grs,f
  4297     047E                     l1544:
  4298     047E  1C48               	btfss	___fladd@b,0
  4299     047F  2C81               	goto	u1681
  4300     0480  2C82               	goto	u1680
  4301     0481                     u1681:
  4302     0481  2C83               	goto	l1548
  4303     0482                     u1680:
  4304     0482                     l1546:
  4305     0482  17DB               	bsf	___fladd@grs,7
  4306     0483                     l1548:
  4307     0483  3001               	movlw	1
  4308     0484  00D0               	movwf	??___fladd
  4309     0485                     u1695:
  4310     0485  0D4B               	rlf	___fladd@b+3,w
  4311     0486  0CCB               	rrf	___fladd@b+3,f
  4312     0487  0CCA               	rrf	___fladd@b+2,f
  4313     0488  0CC9               	rrf	___fladd@b+1,f
  4314     0489  0CC8               	rrf	___fladd@b,f
  4315     048A  0BD0               	decfsz	??___fladd& (0+127),f
  4316     048B  2C85               	goto	u1695
  4317     048C                     l1550:
  4318     048C  3001               	movlw	1
  4319     048D  00D0               	movwf	??___fladd
  4320     048E  0850               	movf	??___fladd,w
  4321     048F  07DA               	addwf	___fladd@bexp,f
  4322     0490  2D45               	goto	l1586
  4323     0491                     l1552:
  4324     0491  084B               	movf	___fladd@b+3,w
  4325     0492  3A80               	xorlw	128
  4326     0493  00FF               	movwf	btemp+1
  4327     0494  084F               	movf	___fladd@a+3,w
  4328     0495  3A80               	xorlw	128
  4329     0496  027F               	subwf	btemp+1,w
  4330     0497  1D03               	skipz
  4331     0498  2CA3               	goto	u1703
  4332     0499  084E               	movf	___fladd@a+2,w
  4333     049A  024A               	subwf	___fladd@b+2,w
  4334     049B  1D03               	skipz
  4335     049C  2CA3               	goto	u1703
  4336     049D  084D               	movf	___fladd@a+1,w
  4337     049E  0249               	subwf	___fladd@b+1,w
  4338     049F  1D03               	skipz
  4339     04A0  2CA3               	goto	u1703
  4340     04A1  084C               	movf	___fladd@a,w
  4341     04A2  0248               	subwf	___fladd@b,w
  4342     04A3                     u1703:
  4343     04A3  1803               	skipnc
  4344     04A4  2CA6               	goto	u1701
  4345     04A5  2CA7               	goto	u1700
  4346     04A6                     u1701:
  4347     04A6  2CFF               	goto	l1562
  4348     04A7                     u1700:
  4349     04A7                     l1554:
  4350     04A7  30FF               	movlw	255
  4351     04A8  00D0               	movwf	??___fladd
  4352     04A9  30FF               	movlw	255
  4353     04AA  00D1               	movwf	??___fladd+1
  4354     04AB  30FF               	movlw	255
  4355     04AC  00D2               	movwf	??___fladd+2
  4356     04AD  30FF               	movlw	255
  4357     04AE  00D3               	movwf	??___fladd+3
  4358     04AF  084C               	movf	___fladd@a,w
  4359     04B0  00D4               	movwf	??___fladd+4
  4360     04B1  084D               	movf	___fladd@a+1,w
  4361     04B2  00D5               	movwf	??___fladd+5
  4362     04B3  084E               	movf	___fladd@a+2,w
  4363     04B4  00D6               	movwf	??___fladd+6
  4364     04B5  084F               	movf	___fladd@a+3,w
  4365     04B6  00D7               	movwf	??___fladd+7
  4366     04B7  0848               	movf	___fladd@b,w
  4367     04B8  02D4               	subwf	??___fladd+4,f
  4368     04B9  0849               	movf	___fladd@b+1,w
  4369     04BA  1C03               	skipc
  4370     04BB  0F49               	incfsz	___fladd@b+1,w
  4371     04BC  2CBE               	goto	u1711
  4372     04BD  2CBF               	goto	u1712
  4373     04BE                     u1711:
  4374     04BE  02D5               	subwf	??___fladd+5,f
  4375     04BF                     u1712:
  4376     04BF  084A               	movf	___fladd@b+2,w
  4377     04C0  1C03               	skipc
  4378     04C1  0F4A               	incfsz	___fladd@b+2,w
  4379     04C2  2CC4               	goto	u1713
  4380     04C3  2CC5               	goto	u1714
  4381     04C4                     u1713:
  4382     04C4  02D6               	subwf	??___fladd+6,f
  4383     04C5                     u1714:
  4384     04C5  084B               	movf	___fladd@b+3,w
  4385     04C6  1C03               	skipc
  4386     04C7  0F4B               	incfsz	___fladd@b+3,w
  4387     04C8  2CCA               	goto	u1715
  4388     04C9  2CCB               	goto	u1716
  4389     04CA                     u1715:
  4390     04CA  02D7               	subwf	??___fladd+7,f
  4391     04CB                     u1716:
  4392     04CB  0854               	movf	??___fladd+4,w
  4393     04CC  07D0               	addwf	??___fladd,f
  4394     04CD  0855               	movf	??___fladd+5,w
  4395     04CE  1803               	skipnc
  4396     04CF  0F55               	incfsz	??___fladd+5,w
  4397     04D0  2CD2               	goto	u1720
  4398     04D1  2CD3               	goto	u1721
  4399     04D2                     u1720:
  4400     04D2  07D1               	addwf	??___fladd+1,f
  4401     04D3                     u1721:
  4402     04D3  0856               	movf	??___fladd+6,w
  4403     04D4  1803               	skipnc
  4404     04D5  0F56               	incfsz	??___fladd+6,w
  4405     04D6  2CD8               	goto	u1722
  4406     04D7  2CD9               	goto	u1723
  4407     04D8                     u1722:
  4408     04D8  07D2               	addwf	??___fladd+2,f
  4409     04D9                     u1723:
  4410     04D9  0857               	movf	??___fladd+7,w
  4411     04DA  1803               	skipnc
  4412     04DB  0A57               	incf	??___fladd+7,w
  4413     04DC  07D3               	addwf	??___fladd+3,f
  4414     04DD  0853               	movf	??___fladd+3,w
  4415     04DE  00CB               	movwf	___fladd@b+3
  4416     04DF  0852               	movf	??___fladd+2,w
  4417     04E0  00CA               	movwf	___fladd@b+2
  4418     04E1  0851               	movf	??___fladd+1,w
  4419     04E2  00C9               	movwf	___fladd@b+1
  4420     04E3  0850               	movf	??___fladd,w
  4421     04E4  00C8               	movwf	___fladd@b
  4422     04E5                     l1556:
  4423     04E5  3080               	movlw	128
  4424     04E6  00D0               	movwf	??___fladd
  4425     04E7  0850               	movf	??___fladd,w
  4426     04E8  06D8               	xorwf	___fladd@signs,f
  4427     04E9  09DB               	comf	___fladd@grs,f
  4428     04EA  0ADB               	incf	___fladd@grs,f
  4429     04EB                     l1558:
  4430     04EB  085B               	movf	___fladd@grs,w
  4431     04EC  1D03               	btfss	3,2
  4432     04ED  2CEF               	goto	u1731
  4433     04EE  2CF0               	goto	u1730
  4434     04EF                     u1731:
  4435     04EF  2D0D               	goto	l578
  4436     04F0                     u1730:
  4437     04F0                     l1560:
  4438     04F0  3001               	movlw	1
  4439     04F1  07C8               	addwf	___fladd@b,f
  4440     04F2  3000               	movlw	0
  4441     04F3  1803               	skipnc
  4442     04F4  3001               	movlw	1
  4443     04F5  07C9               	addwf	___fladd@b+1,f
  4444     04F6  3000               	movlw	0
  4445     04F7  1803               	skipnc
  4446     04F8  3001               	movlw	1
  4447     04F9  07CA               	addwf	___fladd@b+2,f
  4448     04FA  3000               	movlw	0
  4449     04FB  1803               	skipnc
  4450     04FC  3001               	movlw	1
  4451     04FD  07CB               	addwf	___fladd@b+3,f
  4452     04FE  2D0D               	goto	l578
  4453     04FF                     l1562:
  4454     04FF  084C               	movf	___fladd@a,w
  4455     0500  02C8               	subwf	___fladd@b,f
  4456     0501  084D               	movf	___fladd@a+1,w
  4457     0502  1C03               	skipc
  4458     0503  0F4D               	incfsz	___fladd@a+1,w
  4459     0504  02C9               	subwf	___fladd@b+1,f
  4460     0505  084E               	movf	___fladd@a+2,w
  4461     0506  1C03               	skipc
  4462     0507  0F4E               	incfsz	___fladd@a+2,w
  4463     0508  02CA               	subwf	___fladd@b+2,f
  4464     0509  084F               	movf	___fladd@a+3,w
  4465     050A  1C03               	skipc
  4466     050B  0F4F               	incfsz	___fladd@a+3,w
  4467     050C  02CB               	subwf	___fladd@b+3,f
  4468     050D                     l578:
  4469     050D  084B               	movf	___fladd@b+3,w
  4470     050E  044A               	iorwf	___fladd@b+2,w
  4471     050F  0449               	iorwf	___fladd@b+1,w
  4472     0510  0448               	iorwf	___fladd@b,w
  4473     0511  1D03               	skipz
  4474     0512  2D14               	goto	u1741
  4475     0513  2D15               	goto	u1740
  4476     0514                     u1741:
  4477     0514  2D41               	goto	l1584
  4478     0515                     u1740:
  4479     0515                     l1564:
  4480     0515  085B               	movf	___fladd@grs,w
  4481     0516  1D03               	btfss	3,2
  4482     0517  2D19               	goto	u1751
  4483     0518  2D1A               	goto	u1750
  4484     0519                     u1751:
  4485     0519  2D41               	goto	l1584
  4486     051A                     u1750:
  4487     051A                     l1566:
  4488     051A  3000               	movlw	0
  4489     051B  00CB               	movwf	?___fladd+3
  4490     051C  3000               	movlw	0
  4491     051D  00CA               	movwf	?___fladd+2
  4492     051E  3000               	movlw	0
  4493     051F  00C9               	movwf	?___fladd+1
  4494     0520  3000               	movlw	0
  4495     0521  00C8               	movwf	?___fladd
  4496     0522  2DBD               	goto	l570
  4497     0523                     l1570:
  4498     0523  3001               	movlw	1
  4499     0524  00D0               	movwf	??___fladd
  4500     0525                     u1765:
  4501     0525  1003               	clrc
  4502     0526  0DC8               	rlf	___fladd@b,f
  4503     0527  0DC9               	rlf	___fladd@b+1,f
  4504     0528  0DCA               	rlf	___fladd@b+2,f
  4505     0529  0DCB               	rlf	___fladd@b+3,f
  4506     052A  0BD0               	decfsz	??___fladd,f
  4507     052B  2D25               	goto	u1765
  4508     052C                     l1572:
  4509     052C  1FDB               	btfss	___fladd@grs,7
  4510     052D  2D2F               	goto	u1771
  4511     052E  2D30               	goto	u1770
  4512     052F                     u1771:
  4513     052F  2D31               	goto	l582
  4514     0530                     u1770:
  4515     0530                     l1574:
  4516     0530  1448               	bsf	___fladd@b,0
  4517     0531                     l582:
  4518     0531  1C5B               	btfss	___fladd@grs,0
  4519     0532  2D34               	goto	u1781
  4520     0533  2D35               	goto	u1780
  4521     0534                     u1781:
  4522     0534  2D38               	goto	l1578
  4523     0535                     u1780:
  4524     0535                     l1576:
  4525     0535  1403               	setc
  4526     0536  0DDB               	rlf	___fladd@grs,f
  4527     0537  2D3A               	goto	l1580
  4528     0538                     l1578:
  4529     0538  1003               	clrc
  4530     0539  0DDB               	rlf	___fladd@grs,f
  4531     053A                     l1580:
  4532     053A  085A               	movf	___fladd@bexp,w
  4533     053B  1903               	btfsc	3,2
  4534     053C  2D3E               	goto	u1791
  4535     053D  2D3F               	goto	u1790
  4536     053E                     u1791:
  4537     053E  2D41               	goto	l1584
  4538     053F                     u1790:
  4539     053F                     l1582:
  4540     053F  3001               	movlw	1
  4541     0540  02DA               	subwf	___fladd@bexp,f
  4542     0541                     l1584:
  4543     0541  1FCA               	btfss	___fladd@b+2,7
  4544     0542  2D44               	goto	u1801
  4545     0543  2D45               	goto	u1800
  4546     0544                     u1801:
  4547     0544  2D23               	goto	l1570
  4548     0545                     u1800:
  4549     0545                     l1586:
  4550     0545  01D9               	clrf	___fladd@aexp
  4551     0546                     l1588:
  4552     0546  1FDB               	btfss	___fladd@grs,7
  4553     0547  2D49               	goto	u1811
  4554     0548  2D4A               	goto	u1810
  4555     0549                     u1811:
  4556     0549  2D58               	goto	l1596
  4557     054A                     u1810:
  4558     054A                     l1590:
  4559     054A  085B               	movf	___fladd@grs,w
  4560     054B  397F               	andlw	127
  4561     054C  1903               	btfsc	3,2
  4562     054D  2D4F               	goto	u1821
  4563     054E  2D50               	goto	u1820
  4564     054F                     u1821:
  4565     054F  2D53               	goto	l588
  4566     0550                     u1820:
  4567     0550                     l1592:
  4568     0550  01D9               	clrf	___fladd@aexp
  4569     0551  0AD9               	incf	___fladd@aexp,f
  4570     0552  2D58               	goto	l1596
  4571     0553                     l588:
  4572     0553  1C48               	btfss	___fladd@b,0
  4573     0554  2D56               	goto	u1831
  4574     0555  2D57               	goto	u1830
  4575     0556                     u1831:
  4576     0556  2D58               	goto	l1596
  4577     0557                     u1830:
  4578     0557  2D50               	goto	l1592
  4579     0558                     l1596:
  4580     0558  0859               	movf	___fladd@aexp,w
  4581     0559  1903               	btfsc	3,2
  4582     055A  2D5C               	goto	u1841
  4583     055B  2D5D               	goto	u1840
  4584     055C                     u1841:
  4585     055C  2D91               	goto	l591
  4586     055D                     u1840:
  4587     055D                     l1598:
  4588     055D  3001               	movlw	1
  4589     055E  07C8               	addwf	___fladd@b,f
  4590     055F  3000               	movlw	0
  4591     0560  1803               	skipnc
  4592     0561  3001               	movlw	1
  4593     0562  07C9               	addwf	___fladd@b+1,f
  4594     0563  3000               	movlw	0
  4595     0564  1803               	skipnc
  4596     0565  3001               	movlw	1
  4597     0566  07CA               	addwf	___fladd@b+2,f
  4598     0567  3000               	movlw	0
  4599     0568  1803               	skipnc
  4600     0569  3001               	movlw	1
  4601     056A  07CB               	addwf	___fladd@b+3,f
  4602     056B                     l1600:
  4603     056B  1C4B               	btfss	___fladd@b+3,0
  4604     056C  2D6E               	goto	u1851
  4605     056D  2D6F               	goto	u1850
  4606     056E                     u1851:
  4607     056E  2D91               	goto	l591
  4608     056F                     u1850:
  4609     056F                     l1602:
  4610     056F  0848               	movf	___fladd@b,w
  4611     0570  00D0               	movwf	??___fladd
  4612     0571  0849               	movf	___fladd@b+1,w
  4613     0572  00D1               	movwf	??___fladd+1
  4614     0573  084A               	movf	___fladd@b+2,w
  4615     0574  00D2               	movwf	??___fladd+2
  4616     0575  084B               	movf	___fladd@b+3,w
  4617     0576  00D3               	movwf	??___fladd+3
  4618     0577  3001               	movlw	1
  4619     0578  00D4               	movwf	??___fladd+4
  4620     0579                     u1865:
  4621     0579  0D53               	rlf	??___fladd+3,w
  4622     057A  0CD3               	rrf	??___fladd+3,f
  4623     057B  0CD2               	rrf	??___fladd+2,f
  4624     057C  0CD1               	rrf	??___fladd+1,f
  4625     057D  0CD0               	rrf	??___fladd,f
  4626     057E                     u1860:
  4627     057E  0BD4               	decfsz	??___fladd+4,f
  4628     057F  2D79               	goto	u1865
  4629     0580  0853               	movf	??___fladd+3,w
  4630     0581  00CB               	movwf	___fladd@b+3
  4631     0582  0852               	movf	??___fladd+2,w
  4632     0583  00CA               	movwf	___fladd@b+2
  4633     0584  0851               	movf	??___fladd+1,w
  4634     0585  00C9               	movwf	___fladd@b+1
  4635     0586  0850               	movf	??___fladd,w
  4636     0587  00C8               	movwf	___fladd@b
  4637     0588  0A5A               	incf	___fladd@bexp,w
  4638     0589  1903               	btfsc	3,2
  4639     058A  2D8C               	goto	u1871
  4640     058B  2D8D               	goto	u1870
  4641     058C                     u1871:
  4642     058C  2D91               	goto	l591
  4643     058D                     u1870:
  4644     058D                     l1604:
  4645     058D  3001               	movlw	1
  4646     058E  00D0               	movwf	??___fladd
  4647     058F  0850               	movf	??___fladd,w
  4648     0590  07DA               	addwf	___fladd@bexp,f
  4649     0591                     l591:
  4650     0591  0A5A               	incf	___fladd@bexp,w
  4651     0592  1903               	btfsc	3,2
  4652     0593  2D95               	goto	u1881
  4653     0594  2D96               	goto	u1880
  4654     0595                     u1881:
  4655     0595  2D9B               	goto	l1608
  4656     0596                     u1880:
  4657     0596                     l1606:
  4658     0596  085A               	movf	___fladd@bexp,w
  4659     0597  1D03               	btfss	3,2
  4660     0598  2D9A               	goto	u1891
  4661     0599  2D9B               	goto	u1890
  4662     059A                     u1891:
  4663     059A  2DA9               	goto	l1614
  4664     059B                     u1890:
  4665     059B                     l1608:
  4666     059B  3000               	movlw	0
  4667     059C  00CB               	movwf	___fladd@b+3
  4668     059D  3000               	movlw	0
  4669     059E  00CA               	movwf	___fladd@b+2
  4670     059F  3000               	movlw	0
  4671     05A0  00C9               	movwf	___fladd@b+1
  4672     05A1  3000               	movlw	0
  4673     05A2  00C8               	movwf	___fladd@b
  4674     05A3                     l1610:
  4675     05A3  085A               	movf	___fladd@bexp,w
  4676     05A4  1D03               	btfss	3,2
  4677     05A5  2DA7               	goto	u1901
  4678     05A6  2DA8               	goto	u1900
  4679     05A7                     u1901:
  4680     05A7  2DA9               	goto	l1614
  4681     05A8                     u1900:
  4682     05A8                     l1612:
  4683     05A8  01D8               	clrf	___fladd@signs
  4684     05A9                     l1614:
  4685     05A9  1C5A               	btfss	___fladd@bexp,0
  4686     05AA  2DAC               	goto	u1911
  4687     05AB  2DAD               	goto	u1910
  4688     05AC                     u1911:
  4689     05AC  2DAF               	goto	l1618
  4690     05AD                     u1910:
  4691     05AD                     l1616:
  4692     05AD  17CA               	bsf	___fladd@b+2,7
  4693     05AE  2DB3               	goto	l599
  4694     05AF                     l1618:
  4695     05AF  307F               	movlw	127
  4696     05B0  00D0               	movwf	??___fladd
  4697     05B1  0850               	movf	??___fladd,w
  4698     05B2  05CA               	andwf	___fladd@b+2,f
  4699     05B3                     l599:
  4700     05B3  085A               	movf	___fladd@bexp,w
  4701     05B4  00D0               	movwf	??___fladd
  4702     05B5  1003               	clrc
  4703     05B6  0C50               	rrf	??___fladd,w
  4704     05B7  00CB               	movwf	___fladd@b+3
  4705     05B8                     l1620:
  4706     05B8  1FD8               	btfss	___fladd@signs,7
  4707     05B9  2DBB               	goto	u1921
  4708     05BA  2DBC               	goto	u1920
  4709     05BB                     u1921:
  4710     05BB  2DBD               	goto	l600
  4711     05BC                     u1920:
  4712     05BC                     l1622:
  4713     05BC  17CB               	bsf	___fladd@b+3,7
  4714     05BD                     l600:
  4715     05BD                     l570:
  4716     05BD  0008               	return
  4717     05BE                     __end_of___fladd:
  4718                           
  4719                           	psect	text17
  4720     0E23                     __ptext17:	
  4721 ;; *************** function _isr *****************
  4722 ;; Defined at:
  4723 ;;		line 67 in file "main.c"
  4724 ;; Parameters:    Size  Location     Type
  4725 ;;		None
  4726 ;; Auto vars:     Size  Location     Type
  4727 ;;		None
  4728 ;; Return value:  Size  Location     Type
  4729 ;;                  1    wreg      void 
  4730 ;; Registers used:
  4731 ;;		wreg, status,2, status,0
  4732 ;; Tracked objects:
  4733 ;;		On entry : 0/0
  4734 ;;		On exit  : 0/0
  4735 ;;		Unchanged: 0/0
  4736 ;; Data sizes:     COMMON   BANK0   BANK1   BANK3   BANK2
  4737 ;;      Params:         0       0       0       0       0
  4738 ;;      Locals:         0       0       0       0       0
  4739 ;;      Temps:         11       0       0       0       0
  4740 ;;      Totals:        11       0       0       0       0
  4741 ;;Total ram usage:       11 bytes
  4742 ;; Hardware stack levels used: 1
  4743 ;; This function calls:
  4744 ;;		Nothing
  4745 ;; This function is called by:
  4746 ;;		Interrupt level 1
  4747 ;; This function uses a non-reentrant model
  4748 ;;
  4749                           
  4750     0E23                     _isr:	
  4751                           ;psect for function _isr
  4752                           
  4753     0E23                     i1l1938:
  4754                           
  4755                           ;main.c: 68:     if (INTCONbits.T0IF){
  4756     0E23  1D0B               	btfss	11,2	;volatile
  4757     0E24  2E26               	goto	u261_21
  4758     0E25  2E27               	goto	u261_20
  4759     0E26                     u261_21:
  4760     0E26  2E3D               	goto	i1l1952
  4761     0E27                     u261_20:
  4762     0E27                     i1l1940:
  4763                           
  4764                           ;main.c: 70:         if (PORTCbits.RC3){
  4765     0E27  1283               	bcf	3,5	;RP0=0, select bank0
  4766     0E28  1303               	bcf	3,6	;RP1=0, select bank0
  4767     0E29  1D87               	btfss	7,3	;volatile
  4768     0E2A  2E2C               	goto	u262_21
  4769     0E2B  2E2D               	goto	u262_20
  4770     0E2C                     u262_21:
  4771     0E2C  2E35               	goto	i1l1946
  4772     0E2D                     u262_20:
  4773     0E2D                     i1l1942:
  4774                           
  4775                           ;main.c: 72:             TMR0 = 255-HIGHpulse;
  4776     0E2D  1683               	bsf	3,5	;RP0=1, select bank1
  4777     0E2E  1303               	bcf	3,6	;RP1=0, select bank1
  4778     0E2F  0922               	comf	_HIGHpulse^(0+128),w
  4779     0E30  1283               	bcf	3,5	;RP0=0, select bank0
  4780     0E31  1303               	bcf	3,6	;RP1=0, select bank0
  4781     0E32  0081               	movwf	1	;volatile
  4782     0E33                     i1l1944:
  4783                           
  4784                           ;main.c: 73:             PORTCbits.RC3 = 0;
  4785     0E33  1187               	bcf	7,3	;volatile
  4786                           
  4787                           ;main.c: 74:         }
  4788     0E34  2E3C               	goto	i1l1950
  4789     0E35                     i1l1946:
  4790                           
  4791                           ;main.c: 77:             TMR0 = HIGHpulse;
  4792     0E35  1683               	bsf	3,5	;RP0=1, select bank1
  4793     0E36  1303               	bcf	3,6	;RP1=0, select bank1
  4794     0E37  0822               	movf	_HIGHpulse^(0+128),w
  4795     0E38  1283               	bcf	3,5	;RP0=0, select bank0
  4796     0E39  1303               	bcf	3,6	;RP1=0, select bank0
  4797     0E3A  0081               	movwf	1	;volatile
  4798     0E3B                     i1l1948:
  4799                           
  4800                           ;main.c: 78:             PORTCbits.RC3 = 1;
  4801     0E3B  1587               	bsf	7,3	;volatile
  4802     0E3C                     i1l1950:
  4803                           
  4804                           ;main.c: 81:         INTCONbits.T0IF = 0;
  4805     0E3C  110B               	bcf	11,2	;volatile
  4806     0E3D                     i1l1952:
  4807                           
  4808                           ;main.c: 83:     if (PIR1bits.TMR1IF){
  4809     0E3D  1283               	bcf	3,5	;RP0=0, select bank0
  4810     0E3E  1303               	bcf	3,6	;RP1=0, select bank0
  4811     0E3F  1C0C               	btfss	12,0	;volatile
  4812     0E40  2E42               	goto	u263_21
  4813     0E41  2E43               	goto	u263_20
  4814     0E42                     u263_21:
  4815     0E42  2E8F               	goto	i1l109
  4816     0E43                     u263_20:
  4817     0E43                     i1l1954:
  4818                           
  4819                           ;main.c: 85:         if (PORTCbits.RC0){
  4820     0E43  1C07               	btfss	7,0	;volatile
  4821     0E44  2E46               	goto	u264_21
  4822     0E45  2E47               	goto	u264_20
  4823     0E46                     u264_21:
  4824     0E46  2E81               	goto	i1l1960
  4825     0E47                     u264_20:
  4826     0E47                     i1l1956:
  4827                           
  4828                           ;main.c: 87:             TMR1H = ((61314+(65535-HIGHpulse1)) & 0xFF00) >> 8;
  4829     0E47  1683               	bsf	3,5	;RP0=1, select bank1
  4830     0E48  1303               	bcf	3,6	;RP1=0, select bank1
  4831     0E49  0820               	movf	_HIGHpulse1^(0+128),w
  4832     0E4A  00F0               	movwf	??_isr
  4833     0E4B  0821               	movf	(_HIGHpulse1+1)^(0+128),w
  4834     0E4C  00F1               	movwf	??_isr+1
  4835     0E4D  01F2               	clrf	??_isr+2
  4836     0E4E  01F3               	clrf	??_isr+3
  4837     0E4F  3081               	movlw	129
  4838     0E50  00F4               	movwf	??_isr+4
  4839     0E51  30EF               	movlw	239
  4840     0E52  00F5               	movwf	??_isr+5
  4841     0E53  3001               	movlw	1
  4842     0E54  00F6               	movwf	??_isr+6
  4843     0E55  3000               	movlw	0
  4844     0E56  00F7               	movwf	??_isr+7
  4845     0E57  0870               	movf	??_isr,w
  4846     0E58  02F4               	subwf	??_isr+4,f
  4847     0E59  0871               	movf	??_isr+1,w
  4848     0E5A  1C03               	skipc
  4849     0E5B  0F71               	incfsz	??_isr+1,w
  4850     0E5C  2E5E               	goto	u265_21
  4851     0E5D  2E5F               	goto	u265_22
  4852     0E5E                     u265_21:
  4853     0E5E  02F5               	subwf	??_isr+5,f
  4854     0E5F                     u265_22:
  4855     0E5F  0872               	movf	??_isr+2,w
  4856     0E60  1C03               	skipc
  4857     0E61  0F72               	incfsz	??_isr+2,w
  4858     0E62  2E64               	goto	u265_23
  4859     0E63  2E65               	goto	u265_24
  4860     0E64                     u265_23:
  4861     0E64  02F6               	subwf	??_isr+6,f
  4862     0E65                     u265_24:
  4863     0E65  0873               	movf	??_isr+3,w
  4864     0E66  1C03               	skipc
  4865     0E67  0F73               	incfsz	??_isr+3,w
  4866     0E68  2E6A               	goto	u265_25
  4867     0E69  2E6B               	goto	u265_26
  4868     0E6A                     u265_25:
  4869     0E6A  02F7               	subwf	??_isr+7,f
  4870     0E6B                     u265_26:
  4871     0E6B  3008               	movlw	8
  4872     0E6C  00F8               	movwf	??_isr+8
  4873     0E6D                     u266_25:
  4874     0E6D  0D77               	rlf	??_isr+7,w
  4875     0E6E  0CF7               	rrf	??_isr+7,f
  4876     0E6F  0CF6               	rrf	??_isr+6,f
  4877     0E70  0CF5               	rrf	??_isr+5,f
  4878     0E71  0CF4               	rrf	??_isr+4,f
  4879     0E72                     u266_20:
  4880     0E72  0BF8               	decfsz	??_isr+8,f
  4881     0E73  2E6D               	goto	u266_25
  4882     0E74  0874               	movf	??_isr+4,w
  4883     0E75  1283               	bcf	3,5	;RP0=0, select bank0
  4884     0E76  1303               	bcf	3,6	;RP1=0, select bank0
  4885     0E77  008F               	movwf	15	;volatile
  4886                           
  4887                           ;main.c: 88:             TMR1L = (61314+(65535-HIGHpulse1)) & 0x00FF;
  4888     0E78  1683               	bsf	3,5	;RP0=1, select bank1
  4889     0E79  1303               	bcf	3,6	;RP1=0, select bank1
  4890     0E7A  0820               	movf	_HIGHpulse1^(0+128),w
  4891     0E7B  3C81               	sublw	129
  4892     0E7C  1283               	bcf	3,5	;RP0=0, select bank0
  4893     0E7D  1303               	bcf	3,6	;RP1=0, select bank0
  4894     0E7E  008E               	movwf	14	;volatile
  4895     0E7F                     i1l1958:
  4896                           
  4897                           ;main.c: 89:             PORTCbits.RC0 = 0;
  4898     0E7F  1007               	bcf	7,0	;volatile
  4899                           
  4900                           ;main.c: 90:         }
  4901     0E80  2E8E               	goto	i1l1966
  4902     0E81                     i1l1960:
  4903                           
  4904                           ;main.c: 93:             TMR1H = (HIGHpulse1&0xFF00) >> 8;
  4905     0E81  1683               	bsf	3,5	;RP0=1, select bank1
  4906     0E82  1303               	bcf	3,6	;RP1=0, select bank1
  4907     0E83  0821               	movf	(_HIGHpulse1+1)^(0+128),w
  4908     0E84  1283               	bcf	3,5	;RP0=0, select bank0
  4909     0E85  1303               	bcf	3,6	;RP1=0, select bank0
  4910     0E86  008F               	movwf	15	;volatile
  4911     0E87                     i1l1962:
  4912                           
  4913                           ;main.c: 94:             TMR1L = HIGHpulse1&0x00FF;
  4914     0E87  1683               	bsf	3,5	;RP0=1, select bank1
  4915     0E88  1303               	bcf	3,6	;RP1=0, select bank1
  4916     0E89  0820               	movf	_HIGHpulse1^(0+128),w
  4917     0E8A  1283               	bcf	3,5	;RP0=0, select bank0
  4918     0E8B  1303               	bcf	3,6	;RP1=0, select bank0
  4919     0E8C  008E               	movwf	14	;volatile
  4920     0E8D                     i1l1964:
  4921                           
  4922                           ;main.c: 95:             PORTCbits.RC0 = 1;
  4923     0E8D  1407               	bsf	7,0	;volatile
  4924     0E8E                     i1l1966:
  4925                           
  4926                           ;main.c: 98:         PIR1bits.TMR1IF = 0;
  4927     0E8E  100C               	bcf	12,0	;volatile
  4928     0E8F                     i1l109:
  4929     0E8F  087A               	movf	??_isr+10,w
  4930     0E90  008A               	movwf	10
  4931     0E91  0E79               	swapf	??_isr+9,w
  4932     0E92  0083               	movwf	3
  4933     0E93  0EFE               	swapf	btemp,f
  4934     0E94  0E7E               	swapf	btemp,w
  4935     0E95  0009               	retfie
  4936     0E96                     __end_of_isr:
  4937     007E                     btemp	set	126	;btemp
  4938     007E                     wtemp0	set	126
  4939                           
  4940                           	psect	intentry
  4941     0004                     __pintentry:	
  4942                           ;incstack = 0
  4943                           ; Regs used in _isr: [wreg+status,2+status,0]
  4944                           
  4945     0004                     interrupt_function:
  4946     007E                     saved_w	set	btemp
  4947     0004  00FE               	movwf	btemp
  4948     0005  0E03               	swapf	3,w
  4949     0006  00F9               	movwf	??_isr+9
  4950     0007  080A               	movf	10,w
  4951     0008  00FA               	movwf	??_isr+10
  4952     0009  120A  158A  2E23   	ljmp	_isr
  4953                           
  4954                           	psect	idloc
  4955                           
  4956                           ;Config register IDLOC0 @ 0x2000
  4957                           ;	unspecified, using default values
  4958     2000                     	org	8192
  4959     2000  3FFF               	dw	16383
  4960                           
  4961                           ;Config register IDLOC1 @ 0x2001
  4962                           ;	unspecified, using default values
  4963     2001                     	org	8193
  4964     2001  3FFF               	dw	16383
  4965                           
  4966                           ;Config register IDLOC2 @ 0x2002
  4967                           ;	unspecified, using default values
  4968     2002                     	org	8194
  4969     2002  3FFF               	dw	16383
  4970                           
  4971                           ;Config register IDLOC3 @ 0x2003
  4972                           ;	unspecified, using default values
  4973     2003                     	org	8195
  4974     2003  3FFF               	dw	16383
  4975                           
  4976                           	psect	config
  4977                           
  4978                           ;Config register CONFIG1 @ 0x2007
  4979                           ;	Oscillator Selection bits
  4980                           ;	FOSC = INTRC_NOCLKOUT, INTOSCIO oscillator: I/O function on RA6/OSC2/CLKOUT pin, I/O f
      +                          unction on RA7/OSC1/CLKIN
  4981                           ;	Watchdog Timer Enable bit
  4982                           ;	WDTE = OFF, WDT disabled and can be enabled by SWDTEN bit of the WDTCON register
  4983                           ;	Power-up Timer Enable bit
  4984                           ;	PWRTE = OFF, PWRT disabled
  4985                           ;	RE3/MCLR pin function select bit
  4986                           ;	MCLRE = OFF, RE3/MCLR pin function is digital input, MCLR internally tied to VDD
  4987                           ;	Code Protection bit
  4988                           ;	CP = OFF, Program memory code protection is disabled
  4989                           ;	Data Code Protection bit
  4990                           ;	CPD = OFF, Data memory code protection is disabled
  4991                           ;	Brown Out Reset Selection bits
  4992                           ;	BOREN = OFF, BOR disabled
  4993                           ;	Internal External Switchover bit
  4994                           ;	IESO = OFF, Internal/External Switchover mode is disabled
  4995                           ;	Fail-Safe Clock Monitor Enabled bit
  4996                           ;	FCMEN = OFF, Fail-Safe Clock Monitor is disabled
  4997                           ;	Low Voltage Programming Enable bit
  4998                           ;	LVP = OFF, RB3 pin has digital I/O, HV on MCLR must be used for programming
  4999                           ;	In-Circuit Debugger Mode bit
  5000                           ;	DEBUG = 0x1, unprogramme  5001     2007                     	org	8199
  5002     2007  20D4               	dw	8404
  5003                           
  5004                           ;Config register CONFIG2 @ 0x2008
  5005                           ;	Brown-out Reset Selection bit
  5006                           ;	BOR4V = BOR40V, Brown-out Reset set to 4.0V
  5007                           ;	Flash Program Memory Self Write Enable bits
  5008                           ;	WRT = OFF, Write protection off
  5009     2008                     	org	8200
  5010     2008  3FFF               	dw	16383

Data Sizes:
    Strings     0
    Constant    0
    Data        0
    BSS         12
    Persistent  0
    Stack       0

Auto Spaces:
    Space          Size  Autos    Used
    COMMON           14     11      13
    BANK0            80     79      79
    BANK1            80      0      10
    BANK3            96      0       0
    BANK2            96      0       0

Pointer List with Targets:

    None.

Critical Paths under _main in COMMON

    None.

Critical Paths under _isr in COMMON

    None.

Critical Paths under _main in BANK0

    _main->_modomanual
    _modomanual->_PWMtmr0
    _modomanual->_PWMtmr1
    _modomanual->_mapeo
    _mapeo->___fltol
    _PWMtmr1->___fltol
    _PWMtmr0->___fltol
    ___fltol->___fladd
    ___flmul->___xxtofl
    ___fladd->___flmul

Critical Paths under _isr in BANK0

    None.

Critical Paths under _main in BANK1

    None.

Critical Paths under _isr in BANK1

    None.

Critical Paths under _main in BANK3

    None.

Critical Paths under _isr in BANK3

    None.

Critical Paths under _main in BANK2

    None.

Critical Paths under _isr in BANK2

    None.

Call Graph Tables:

 ---------------------------------------------------------------------------------
 (Depth) Function   	        Calls       Base Space   Used Autos Params    Refs
 ---------------------------------------------------------------------------------
 (0) _main                                                 1     1      0   19058
                                             78 BANK0      1     1      0
                         _modomanual
                              _setup
                        _setupINTOSC
                          _setupTMR0
                          _setupTMR1
                          _setup_ADC
                         _setup_PWM1
                         _setup_PWM2
 ---------------------------------------------------------------------------------
 (1) _setup_PWM2                                           0     0      0       0
 ---------------------------------------------------------------------------------
 (1) _setup_PWM1                                           0     0      0       0
 ---------------------------------------------------------------------------------
 (1) _setup_ADC                                            1     1      0       0
                                              0 BANK0      1     1      0
 ---------------------------------------------------------------------------------
 (1) _setupTMR1                                            0     0      0       0
 ---------------------------------------------------------------------------------
 (1) _setupTMR0                                            0     0      0       0
 ---------------------------------------------------------------------------------
 (1) _setupINTOSC                                          1     1      0     176
                                              0 BANK0      1     1      0
 ---------------------------------------------------------------------------------
 (1) _setup                                                0     0      0       0
 ---------------------------------------------------------------------------------
 (1) _modomanual                                           3     3      0   18882
                                             75 BANK0      3     3      0
                            _PWMtmr0
                            _PWMtmr1
                              _mapeo
 ---------------------------------------------------------------------------------
 (2) _mapeo                                                5     5      0    6294
                                             70 BANK0      5     5      0
                            ___fladd
                            ___flmul
                            ___fltol
                           ___xxtofl
 ---------------------------------------------------------------------------------
 (2) _PWMtmr1                                              5     5      0    6294
                                             70 BANK0      5     5      0
                            ___fladd
                            ___flmul
                            ___fltol
                           ___xxtofl
 ---------------------------------------------------------------------------------
 (2) _PWMtmr0                                              5     5      0    6294
                                             70 BANK0      5     5      0
                            ___fladd
                            ___flmul
                            ___fltol
                           ___xxtofl
 ---------------------------------------------------------------------------------
 (3) ___xxtofl                                            14    10      4     550
                                              0 BANK0     14    10      4
 ---------------------------------------------------------------------------------
 (3) ___fltol                                             10     6      4     457
                                             60 BANK0     10     6      4
                            ___fladd (ARG)
                            ___flmul (ARG)
                           ___xxtofl (ARG)
 ---------------------------------------------------------------------------------
 (3) ___flmul                                             26    18      8    2721
                                             14 BANK0     26    18      8
                          __Umul8_16
                           ___xxtofl (ARG)
 ---------------------------------------------------------------------------------
 (4) __Umul8_16                                            9     7      2     799
                                              0 BANK0      9     7      2
 ---------------------------------------------------------------------------------
 (3) ___fladd                                             20    12      8    2566
                                             40 BANK0     20    12      8
                            ___flmul (ARG)
                           ___xxtofl (ARG)
 ---------------------------------------------------------------------------------
 Estimated maximum stack depth 4
 ---------------------------------------------------------------------------------
 (Depth) Function   	        Calls       Base Space   Used Autos Params    Refs
 ---------------------------------------------------------------------------------
 (5) _isr                                                 11    11      0       0
                                              0 COMMON    11    11      0
 ---------------------------------------------------------------------------------
 Estimated maximum stack depth 5
 ---------------------------------------------------------------------------------

 Call Graph Graphs:

 _main (ROOT)
   _modomanual
     _PWMtmr0
       ___fladd
         ___flmul (ARG)
           __Umul8_16
           ___xxtofl (ARG)
         ___xxtofl (ARG)
       ___flmul
       ___fltol
         ___fladd (ARG)
         ___flmul (ARG)
         ___xxtofl (ARG)
       ___xxtofl
     _PWMtmr1
       ___fladd
       ___flmul
       ___fltol
       ___xxtofl
     _mapeo
       ___fladd
       ___flmul
       ___fltol
       ___xxtofl
   _setup
   _setupINTOSC
   _setupTMR0
   _setupTMR1
   _setup_ADC
   _setup_PWM1
   _setup_PWM2

 _isr (ROOT)

 Address spaces:
Name               Size   Autos  Total    Cost      Usage
BITCOMMON            E      0       0       0        0.0%
EEDATA             100      0       0       0        0.0%
NULL                 0      0       0       0        0.0%
CODE                 0      0       0       0        0.0%
COMMON               E      B       D       1       92.9%
BITSFR0              0      0       0       1        0.0%
SFR0                 0      0       0       1        0.0%
BITSFR1              0      0       0       2        0.0%
SFR1                 0      0       0       2        0.0%
STACK                0      0       0       2        0.0%
ABS                  0      0      66       3        0.0%
BITBANK0            50      0       0       4        0.0%
BITSFR3              0      0       0       4        0.0%
SFR3                 0      0       0       4        0.0%
BANK0               50     4F      4F       5       98.8%
BITSFR2              0      0       0       5        0.0%
SFR2                 0      0       0       5        0.0%
BITBANK1            50      0       0       6        0.0%
BANK1               50      0       A       7       12.5%
BITBANK3            60      0       0       8        0.0%
BANK3               60      0       0       9        0.0%
BITBANK2            60      0       0      10        0.0%
BANK2               60      0       0      11        0.0%
DATA                 0      0      66      12        0.0%


Microchip Technology PIC Macro Assembler V2.40 build 20220703182018 
Symbol Table                                                                                   Sat Nov 12 16:18:14 2022

    __Umul8_16@word_mpld 0026                      l120 0D10                      l123 0DBA  
                    l132 0D2A                      l141 0D44                      l150 07BF  
                    l126 0D52                      l134 0D2E                      l135 0D31  
                    l144 0F0C                      l128 0D56                      l161 06F8  
                    l153 0686                      l129 0D59                      l162 0715  
                    l170 0DC8                      l138 0D1F                      l147 0FFF  
                    l155 068A                      l171 0DD5                      l164 0719  
                    l156 06B0                      l172 0DE2                      l165 0726  
                    l173 0DEF                      l158 06B4                      l174 0DFC  
                    l159 06F4                      l175 0E09                      l600 05BD  
                    l176 0E15                      l450 0F84                      l178 0E22  
                    l460 0F84                      l710 0641                      l711 064D  
                    l703 0625                      l561 0444                      l457 0F6F  
                    l570 05BD                      l563 041D                      l557 03C1  
                    l653 0365                      l582 0531                      l591 0591  
                    l672 0D70                      l665 0359                      l578 050D  
                    l674 0D82                      l659 02D5                      l588 0553  
                    l599 05B3                      l697 05E2                      l699 0677  
                    _PR2 0092                      _isr 0E23             ___flmul@aexp 0040  
           ___flmul@bexp 0041             ___flmul@sign 003B             ___flmul@temp 0046  
           ___flmul@prod 0042             ___fltol@exp1 0065                     l1400 0F21  
                   l1410 0F43                     l1402 0F34                     l1500 03E5  
                   l1404 0F35                     l1510 03EE                     l1502 03E7  
                   l1430 0366                     l1406 0F3D                     l1600 056B  
                   l1520 042E                     l1512 0405                     l1504 03E9  
                   l1440 0379                     l1432 036B                     l1424 0F64  
                   l1416 0F4B                     l1408 0F3F                     l1610 05A3  
                   l1602 056F                     l1530 044D                     l1522 042F  
                   l1514 0421                     l1506 03EB                     l1450 0391  
                   l1442 037E                     l1434 036F                     l1426 0F74  
                   l1418 0F5D                     l1620 05B8                     l1612 05A8  
                   l1604 058D                     l1540 0475                     l1524 0438  
                   l1516 0428                     l1508 03ED                     l1460 03A3  
                   l1452 0394                     l1444 0386                     l1436 0373  
                   l1380 0D5D                     l1700 0208                     l1428 0F79  
                   l1622 05BC                     l1614 05A9                     l1606 0596  
                   l1550 048C                     l1542 047C                     l1534 0456  
                   l1518 042A                     l1526 043C                     l1470 03B7  
                   l1462 03A4                     l1454 039A                     l1446 0387  
                   l1438 0374                     l1390 0D7E                     l1382 0D5F  
                   l1710 0298                     l1702 0233                     l1630 002E  
                   l1616 05AD                     l1608 059B                     l1560 04F0  
                   l1544 047E                     l1536 046D                     l1528 0448  
                   l1552 0491                     l1480 03D1                     l1464 03A9  
                   l1472 03B9                     l1456 039B                     l1448 0389  
                   l1384 0D66                     l1712 02A1                     l1720 02B5  
                   l1704 0259                     l1640 0043                     l1632 002F  
                   l1624 0021                     l1800 066A                     l1618 05AF  
                   l1570 0523                     l1554 04A7                     l1562 04FF  
                   l1546 0482                     l1538 0471                     l1490 03DB  
                   l1482 03D3                     l1474 03C7                     l1466 03AE  
                   l1458 039F                     l1386 0D6A                     l1722 02B9  
                   l1714 02A5                     l1706 0281                     l1650 0059  
                   l1642 004B                     l1634 0034                     l1626 0026  
                   l1394 0F0D                     l1802 066E                     l1810 0EB7  
                   l1580 053A                     l1572 052C                     l1564 0515  
                   l1556 04E5                     l1548 0483                     l1492 03DD  
                   l1484 03D5                     l1476 03CB                     l1468 03B6  
                   l1388 0D79                     l1740 030A                     l1732 02DA  
                   l1724 02BA                     l1716 02A6                     l1708 028A  
                   l1660 0075                     l1652 005E                     l1644 0050  
                   l1636 0039                     l1628 002A                     l1396 0F18  
                   l1804 066F                     l1812 0F85                     l1820 0748  
                   l1900 0690                     l1590 054A                     l1582 053F  
                   l1574 0530                     l1566 051A                     l1558 04EB  
                   l1494 03DF                     l1486 03D7                     l1478 03CF  
                   l1750 0341                     l1734 02DF                     l1742 0310  
                   l1726 02BE                     l1718 02AF                     l1670 0096  
                   l1662 007A                     l1654 0063                     l1646 0054  
                   l1638 0041                     l1814 0FA6                     l1822 079D  
                   l1910 06B5                     l1902 069C                     l1830 0DC4  
                   l1592 0550                     l1576 0535                     l1584 0541  
                   l1496 03E1                     l1488 03D9                     l1760 035D  
                   l1752 0343                     l1744 031D                     l1736 02ED  
                   l1728 02D2                     l1680 0120                     l1672 00A3  
                   l1664 007F                     l1656 006B                     l1648 0058  
                   l1808 0E96                     l1816 0FFB                     l1824 07A3  
                   l1920 06EA                     l1912 06BA                     l1904 06A2  
                   l1840 0E03                     l1832 0DCF                     l1578 0538  
                   l1586 0545                     l1498 03E3                     l1754 034F  
                   l1746 0328                     l1738 02F1                     l1690 017E  
                   l1682 013C                     l1674 00BE                     l1658 006D  
                   l1770 05DA                     l1818 0727                     l1930 070B  
                   l1922 06F1                     l1914 06C7                     l1906 06A6  
                   l1826 0D04                     l1842 0E0F                     l1834 0DDC  
                   l1850 0DB3                     l1596 0558                     l1588 0546  
                   l1756 0353                     l1748 0337                     l1692 019B  
                   l1684 0145                     l1676 00DA                     l1668 0088  
                   l1780 0603                     l1772 05EA                     l1764 05C1  
                   l1932 0712                     l1924 06F9                     l1916 06E0  
                   l1908 06AD                     l1844 0E1B                     l1836 0DE9  
                   l1828 0DBE                     l1860 0D51                     l1852 0D45  
                   l1598 055D                     l1758 0354                     l1694 01B2  
                   l1686 0153                     l1678 0104                     l1790 0637  
                   l1782 060A                     l1766 05C6                     l1934 071A  
                   l1926 06FE                     l1918 06E6                     l1846 0E1F  
                   l1838 0DF6                     l1870 0D18                     l1854 0D48  
                   l1862 0D20                     l1696 01CF                     l1688 0170  
                   l1792 063B                     l1784 060E                     l1776 05F3  
                   l1768 05CA                     l1936 071F                     l1928 0705  
                   l1872 0D1C                     l1880 0D38                     l1848 0D83  
                   l1856 0D4E                     l1864 0D23                     l1698 01FA  
                   l1794 0645                     l1786 061C                     l1778 05F6  
                   l1890 0D41                     l1882 0D39                     l1874 0D32  
                   l1858 0D4F                     l1866 0D29                     l1970 07C5  
                   l1796 064F                     l1788 062C                     l1892 0678  
                   l1868 0D11                     l1884 0D3B                     l1876 0D36  
                   l1980 07DF                     l1972 07CB                     l1798 0665  
                   l1894 067C                     l1886 0D3D                     l1878 0D37  
                   l1982 07E4                     l1974 07D0                     l1896 0683  
                   l1888 0D3E                     l1984 07EA                     l1976 07D5  
                   l1968 07C0                     l1898 068B                     l1986 07EE  
                   l1978 07DA                     l1988 07F3                     _ADIF 0066  
                   ?_isr 0070                     u2000 007F                     u2001 007E  
                   u2011 00CC                     u2012 00D3                     u2101 01EC  
                   u2021 00E8                     u2013 00DA                     u2102 01F3  
                   u2022 00EF                     u2111 0217                     u2103 01FA  
                   u2031 0112                     u2023 00F6                     u2200 02B9  
                   u2120 023F                     u2112 021E                     u2032 0119  
                   u1400 0F4A                     u2201 02B8                     u2113 0225  
                   u2041 012E                     u2033 0120                     u1401 0F49  
                   u2210 02BE                     u2042 0135                     u2211 02BD  
                   u2131 024B                     u2043 013C                     u1500 039A  
                   u1340 0D6A                     u2220 02D2                     u2140 0267  
                   u2132 0252                     u1420 0F5C                     u2300 05C6  
                   u1501 0399                     u1341 0D69                     u2221 02D1  
                   u2133 0259                     u2125 023A                     u2061 0162  
                   u1421 0F5B                     u2301 05C5                     u1510 03A3  
                   u2230 02D9                     u2062 0169                     u1430 0F63  
                   u2310 05CA                     u1511 03A2                     u2231 02D8  
                   u2151 0273                     u2071 018D                     u2063 0170  
                   u2055 013E                     u1431 0F62                     u1415 0F4C  
                   u2311 05C9                     u1600 042E                     u1520 03A9  
                   u1360 0D7E                     u2240 02DF                     u2152 027A  
                   u2072 0194                     u2400 0645                     u2320 05EA  
                   u1601 042D                     u1521 03A8                     u1361 0D7D  
                   u2241 02DE                     u2153 0281                     u2145 0262  
                   u2073 019B                     u2401 0644                     u2321 05E9  
                   u1530 03AE                     u2250 02F1                     u1450 0F74  
                   u1370 0F18                     u2410 065A                     u1531 03AD  
                   u1355 0D71                     u2251 02F0                     u2091 01C1  
                   u1451 0F73                     u1371 0F17                     u1700 04A7  
                   u1620 0444                     u1540 03C7                     u2260 0300  
                   u2180 02A5                     u2092 01C8                     u1460 0F79  
                   u1380 0F2F                     u2420 066A                     u2340 0609  
                   u2500 0DE9                     u1701 04A6                     u1621 0443  
                   u1541 03C6                     u2181 02A4                     u2165 0283  
                   u2093 01CF                     u2085 019D                     u1461 0F78  
                   u1445 0F66                     u2421 0669                     u2341 0608  
                   u2501 0DE8                     u1630 0448                     u1550 03CB  
                   u1470 0373                     u2270 031D                     u1390 0F43  
                   u2430 066E                     u2510 0DF6                     u1711 04BE  
                   u1703 04A3                     u1631 0447                     u1615 0431  
                   u1551 03CA                     u1471 0372                     u2271 031C  
                   u2175 029A                     u1391 0F42                     u2431 066D  
                   u2415 0655                     u2335 05FB                     u2511 0DF5  
                   u1800 0545                     u1720 04D2                     u1712 04BF  
                   u1640 044D                     u1560 0405                     u1480 0379  
                   u2280 0337                     u2360 062B                     u2600 0719  
                   u2520 0E03                     u1801 0544                     u1721 04D3  
                   u1713 04C4                     u1641 044C                     u1561 0404  
                   u1481 0378                     u2281 0336                     u2265 02FB  
                   u1385 0F2A                     u2361 062A                     u2601 0718  
                   u2521 0E02                     u1810 054A                     u1730 04F0  
                   u1722 04D8                     u1714 04C5                     u1570 0410  
                   u1490 037E                     u2290 0353                     u2530 0E0F  
                   u1811 0549                     u1731 04EF                     u1723 04D9  
                   u1715 04CA                     u1651 045F                     u1571 040E  
                   u1491 037D                     u2291 0352                     u2275 0319  
                   u2195 02A8                     u2355 061D                     u2531 0E0E  
                   u1900 05A8                     u1820 0550                     u1740 0515  
                   u1716 04CB                     u1660 0471                     u1652 0466  
                   u1580 0411                     u2380 063B                     u2540 0E1B  
                   u1901 05A7                     u1821 054F                     u1741 0514  
                   u1661 0470                     u1653 046D                     u1565 0401  
                   u2285 0333                     u2381 063A                     u2445 0E9D  
                   u2541 0E1A                     u1910 05AD                     u1830 0557  
                   u1750 051A                     u1670 0475                     u1590 0421  
                   u2390 0641                     u2470 0DC4                     u2550 0D56  
                   u1911 05AC                     u1831 0556                     u1751 0519  
                   u1671 0474                     u1591 0420                     u2391 0640  
                   u2375 0630                     u2455 0F8C                     u2471 0DC3  
                   u2551 0D55                     u1920 05BC                     u1840 055D  
                   u1680 0482                     u2480 0DCF                     u2560 0D2E  
                   u1921 05BB                     u1841 055C                     u1681 0481  
                   u2465 072E                     u2481 0DCE                     u2561 0D2D  
                   u1850 056F                     u1770 0530                     u1930 002E  
                   u2570 068A                     u2490 0DDC                     u1851 056E  
                   u1771 052F                     u1931 002D                     u2707 06AA  
                   u2571 0689                     u2491 0DDB                     u1860 057E  
                   u1780 0535                     u1940 0034                     u2580 06B4  
                   u1781 0534                     u1765 0525                     u1941 0033  
                   u2717 06EE                     u2581 06B3                     u1870 058D  
                   u1790 053F                     u1950 0039                     u2590 06F8  
                   u1871 058C                     u1791 053E                     u1695 0485  
                   u1951 0038                     u2727 0702                     u2591 06F7  
                   u1880 0596                     u1960 0058                     u1881 0595  
                   u1865 0579                     u1961 0057                     u2737 070F  
                   u1890 059B                     u1970 005E                     u1891 059A  
                   u1971 005D                     u2747 0723                     u1980 0063  
                   u1981 0062                     u2677 07F7                     u1990 007A  
                   u1991 0079                     u2687 0DB7                     u2697 0680  
                   _TMR0 0001                     _vPWM 00A8                     _main 07C0  
                   btemp 007E                     start 000C          __end_of_PWMtmr0 0F0D  
        __end_of_PWMtmr1 1000                    ??_isr 0070            ___fltol@sign1 0064  
        __end_of___fladd 05BE                    ?_main 0070          __end_of___flmul 0366  
        __end_of___fltol 0F85                    i1l109 0E8F                    _TMR1H 000F  
                  _TMR1L 000E                    _PORTC 0007                    _PORTD 0008  
                  _TRISB 0086                    _TRISC 0087                    _TRISD 0088  
                  _vPWMh 00A4                    _vPWMl 00A6                    _mapeo 0727  
                  _setup 0D04                    pclath 000A                    status 0003  
                  wtemp0 007E          __initialization 000F             __end_of_main 07FE  
                 ??_main 006E                   ?_mapeo 0070                   _ADRESH 001E  
                 _ADRESL 009E                   _CCPR1L 0015                   _CCPR2L 001B  
                 ?_setup 0070                   _ANSELH 0189                   i1l1940 0E27  
                 i1l1950 0E3C                   i1l1942 0E2D                   i1l1960 0E81  
                 i1l1944 0E33                   i1l1952 0E3D                   i1l1962 0E87  
                 i1l1954 0E43                   i1l1946 0E35                   i1l1938 0E23  
                 i1l1964 0E8D                   i1l1956 0E47                   i1l1948 0E3B  
                 i1l1966 0E8E                   i1l1958 0E7F                ??_PWMtmr0 0066  
              ??_PWMtmr1 0066                   u261_20 0E27                   u261_21 0E26  
                 u262_20 0E2D                   u262_21 0E2C                   u263_20 0E43  
                 u263_21 0E42                   u264_20 0E47                   u264_21 0E46  
                 u265_21 0E5E                   u265_22 0E5F                   u265_23 0E64  
                 u265_24 0E65                   u265_25 0E6A                   u265_26 0E6B  
                 u266_20 0E72                   u266_25 0E6D                   _TMR2IF 0061  
                 _TMR2ON 0092         __end_of___xxtofl 0678                ??___fladd 0050  
              ??___flmul 0036                ??___fltol 0060                   _valADC 007B  
           ?_setupINTOSC 0070                   saved_w 007E             ___xxtofl@arg 002A  
           ___xxtofl@exp 0029             ___xxtofl@val 0020  __end_of__initialization 001D  
             ___fltol@f1 005C           __pcstackCOMMON 0070            __end_of_mapeo 07C0  
          __end_of_setup 0D11           _OPTION_REGbits 0081                  ??_mapeo 0066  
                ??_setup 0020               __pbssBANK1 00A0        __end_of__Umul8_16 0D83  
             __pmaintext 07C0               __pintentry 0004                  _CCP1CON 0017  
                _CCP2CON 001D                ?___xxtofl 0020                  _PWMtmr0 0E96  
                _PWMtmr1 0F85                  ___fladd 0366                  ___flmul 0021  
                ___fltol 0F0D                _ANSELbits 0188                  __ptext1 0D20  
                __ptext2 0D45                  __ptext3 0D83                  __ptext4 0D32  
                __ptext5 0D11                  __ptext6 0DBB                  __ptext7 0D04  
                __ptext8 0678                  __ptext9 0727                _T1CONbits 0010  
              _T2CONbits 0012               ??___xxtofl 0024                _HIGHpulse 00A2  
             _modomanual 0678     end_of_initialization 001D        __end_of_setupTMR0 0D20  
      __end_of_setupTMR1 0D45        __end_of_setup_ADC 0DBB               _setup_PWM1 0D45  
             _setup_PWM2 0D20                _PORTAbits 0005                _PORTCbits 0007  
            ___fladd@grs 005B            ___xxtofl@sign 0028                _TRISAbits 0085  
              _TRISCbits 0087              ___flmul@grs 003C              _CCP1CONbits 0017  
            _CCP2CONbits 001D      start_initialization 000F              __end_of_isr 0E96  
            ?_modomanual 0070                __Umul8_16 0D5A              ?_setup_PWM1 0070  
            ?_setup_PWM2 0070                ___fladd@a 004C                ___fladd@b 0048  
              ___flmul@a 0032                ___flmul@b 002E              __pbssCOMMON 007B  
              ___latbits 0002            __pcstackBANK0 0020                 ?_PWMtmr0 0070  
               ?_PWMtmr1 0070          setupINTOSC@IRCF 0020                 ?___fladd 0048  
               ?___flmul 002E                 ?___fltol 005C               ?__Umul8_16 0020  
      interrupt_function 0004                 _PIE1bits 008C                 _PIR1bits 000C  
              _setupTMR0 0D11                _setupTMR1 0D32                _setup_ADC 0D83  
             _ADCON0bits 001F               _ADCON1bits 009F            ??_setupINTOSC 0020  
             ?_setupTMR0 0070               ?_setupTMR1 0070               ?_setup_ADC 0070  
            ??__Umul8_16 0022                 ___xxtofl 05BE                 __ptext10 0F85  
               __ptext11 0E96                 __ptext12 05BE                 __ptext13 0F0D  
               __ptext14 0021                 __ptext15 0D5A                 __ptext16 0366  
               __ptext17 0E23      __end_of_setupINTOSC 0E23             ??_modomanual 006B  
             _HIGHpulse1 00A0             ??_setup_PWM1 0020             ??_setup_PWM2 0020  
     __end_of_modomanual 0727               _INTCONbits 000B                 intlevel1 0000  
     __end_of_setup_PWM1 0D5A       __end_of_setup_PWM2 0D32               _OSCCONbits 008F  
            ??_setupTMR0 0020              ??_setupTMR1 0020              ??_setup_ADC 0020  
 __Umul8_16@multiplicand 0020              _setupINTOSC 0DBB            ___fladd@signs 0058  
           ___fladd@aexp 0059             ___fladd@bexp 005A     __Umul8_16@multiplier 0028  
      __Umul8_16@product 0024  
