

Microchip MPLAB XC8 Assembler V2.40 build 20220703182018 
                                                                                               Sat Nov 12 22:19:50 2022

Microchip MPLAB XC8 C Compiler v2.40 (Free license) build 20220703182018 Og1 
     1                           	processor	16F887
     2                           	pagewidth 120
     3                           	opt	flic
     4                           	psect	cinit,global,class=CODE,merge=1,delta=2
     5                           	psect	bssCOMMON,global,class=COMMON,space=1,delta=1,noexec
     6                           	psect	bssBANK1,global,class=BANK1,space=1,delta=1,noexec
     7                           	psect	cstackCOMMON,global,class=COMMON,space=1,delta=1,noexec
     8                           	psect	cstackBANK0,global,class=BANK0,space=1,delta=1,noexec
     9                           	psect	maintext,global,class=CODE,split=1,delta=2
    10                           	psect	text1,local,class=CODE,merge=1,delta=2
    11                           	psect	text2,local,class=CODE,merge=1,delta=2
    12                           	psect	text3,local,class=CODE,merge=1,delta=2
    13                           	psect	text4,local,class=CODE,merge=1,delta=2
    14                           	psect	text5,local,class=CODE,merge=1,delta=2
    15                           	psect	text6,local,class=CODE,merge=1,delta=2
    16                           	psect	text7,local,class=CODE,merge=1,delta=2
    17                           	psect	text8,local,class=CODE,merge=1,delta=2
    18                           	psect	text9,local,class=CODE,merge=1,delta=2
    19                           	psect	text10,local,class=CODE,merge=1,delta=2
    20                           	psect	text11,local,class=CODE,merge=1,delta=2
    21                           	psect	text12,local,class=CODE,merge=1,delta=2
    22                           	psect	text13,local,class=CODE,merge=1,delta=2,group=1
    23                           	psect	text14,local,class=CODE,merge=1,delta=2,group=1
    24                           	psect	text15,local,class=CODE,merge=1,delta=2,group=1
    25                           	psect	text16,local,class=CODE,merge=1,delta=2,group=1
    26                           	psect	text17,local,class=CODE,merge=1,delta=2,group=1
    27                           	psect	text18,local,class=CODE,merge=1,delta=2
    28                           	psect	intentry,global,class=CODE,delta=2
    29                           	psect	idloc,global,abs,ovrld,class=IDLOC,space=5,delta=2,noexec
    30                           	psect	config,global,abs,ovrld,class=CONFIG,space=4,delta=2,noexec
    31                           	dabs	1,0x7E,2
    32     0000                     
    33                           ; Version 2.40
    34                           ; Generated 17/11/2021 GMT
    35                           ; 
    36                           ; Copyright © 2021, Microchip Technology Inc. and its subsidiaries ("Microchip")
    37                           ; All rights reserved.
    38                           ; 
    39                           ; This software is developed by Microchip Technology Inc. and its subsidiaries ("Microch
      +                          ip").
    40                           ; 
    41                           ; Redistribution and use in source and binary forms, with or without modification, are
    42                           ; permitted provided that the following conditions are met:
    43                           ; 
    44                           ;     1. Redistributions of source code must retain the above copyright notice, this lis
      +                          t of
    45                           ;        conditions and the following disclaimer.
    46                           ; 
    47                           ;     2. Redistributions in binary form must reproduce the above copyright notice, this 
      +                          list
    48                           ;        of conditions and the following disclaimer in the documentation and/or other
    49                           ;        materials provided with the distribution. Publication is not required when
    50                           ;        this file is used in an embedded application.
    51                           ; 
    52                           ;     3. Microchip's name may not be used to endorse or promote products derived from th
      +                          is
    53                           ;        software without specific prior written permission.
    54                           ; 
    55                           ; THIS SOFTWARE IS PROVIDED BY MICROCHIP "AS IS" AND ANY EXPRESS OR IMPLIED WARRANTIES,
    56                           ; INCLUDING, BUT NOT LIMITED TO, THE IMPLIED WARRANTIES OF MERCHANTABILITY AND FITNESS F
      +                          OR
    57                           ; PURPOSE ARE DISCLAIMED.  IN NO EVENT SHALL MICROCHIP BE LIABLE FOR ANY DIRECT, INDIREC
      +                          T,
    58                           ; INCIDENTAL, SPECIAL, EXEMPLARY, OR CONSEQUENTIAL DAMAGES (INCLUDING BUT NOT LIMITED TO
    59                           ; PROCUREMENT OF SUBSTITUTE GOODS OR SERVICES; LOSS OF USE, DATA OR PROFITS; OR BUSINESS
    60                           ; INTERRUPTION) HOWSOEVER CAUSED AND ON ANY THEORY OF LIABILITY, WHETHER IN CONTRACT, ST
      +                          RICT
    61                           ; LIABILITY, OR TORT (INCLUDING NEGLIGENCE OR OTHERWISE) ARISING IN ANY WAY OUT OF THE U
      +                          SE OF
    62                           ; THIS SOFTWARE, EVEN IF ADVISED OF THE POSSIBILITY OF SUCH DAMAGE.
    63                           ; 
    64                           ; 
    65                           ; Code-generator required, PIC16F887 Definitions
    66                           ; 
    67                           ; SFR Addresses
    68     0000                     	;# 
    69     0001                     	;# 
    70     0002                     	;# 
    71     0003                     	;# 
    72     0004                     	;# 
    73     0005                     	;# 
    74     0006                     	;# 
    75     0007                     	;# 
    76     0008                     	;# 
    77     0009                     	;# 
    78     000A                     	;# 
    79     000B                     	;# 
    80     000C                     	;# 
    81     000D                     	;# 
    82     000E                     	;# 
    83     000E                     	;# 
    84     000F                     	;# 
    85     0010                     	;# 
    86     0011                     	;# 
    87     0012                     	;# 
    88     0013                     	;# 
    89     0014                     	;# 
    90     0015                     	;# 
    91     0015                     	;# 
    92     0016                     	;# 
    93     0017                     	;# 
    94     0018                     	;# 
    95     0019                     	;# 
    96     001A                     	;# 
    97     001B                     	;# 
    98     001B                     	;# 
    99     001C                     	;# 
   100     001D                     	;# 
   101     001E                     	;# 
   102     001F                     	;# 
   103     0081                     	;# 
   104     0085                     	;# 
   105     0086                     	;# 
   106     0087                     	;# 
   107     0088                     	;# 
   108     0089                     	;# 
   109     008C                     	;# 
   110     008D                     	;# 
   111     008E                     	;# 
   112     008F                     	;# 
   113     0090                     	;# 
   114     0091                     	;# 
   115     0092                     	;# 
   116     0093                     	;# 
   117     0093                     	;# 
   118     0093                     	;# 
   119     0094                     	;# 
   120     0095                     	;# 
   121     0096                     	;# 
   122     0097                     	;# 
   123     0098                     	;# 
   124     0099                     	;# 
   125     009A                     	;# 
   126     009B                     	;# 
   127     009C                     	;# 
   128     009D                     	;# 
   129     009E                     	;# 
   130     009F                     	;# 
   131     0105                     	;# 
   132     0107                     	;# 
   133     0108                     	;# 
   134     0109                     	;# 
   135     010C                     	;# 
   136     010C                     	;# 
   137     010D                     	;# 
   138     010E                     	;# 
   139     010F                     	;# 
   140     0185                     	;# 
   141     0187                     	;# 
   142     0188                     	;# 
   143     0189                     	;# 
   144     018C                     	;# 
   145     018D                     	;# 
   146     0000                     	;# 
   147     0001                     	;# 
   148     0002                     	;# 
   149     0003                     	;# 
   150     0004                     	;# 
   151     0005                     	;# 
   152     0006                     	;# 
   153     0007                     	;# 
   154     0008                     	;# 
   155     0009                     	;# 
   156     000A                     	;# 
   157     000B                     	;# 
   158     000C                     	;# 
   159     000D                     	;# 
   160     000E                     	;# 
   161     000E                     	;# 
   162     000F                     	;# 
   163     0010                     	;# 
   164     0011                     	;# 
   165     0012                     	;# 
   166     0013                     	;# 
   167     0014                     	;# 
   168     0015                     	;# 
   169     0015                     	;# 
   170     0016                     	;# 
   171     0017                     	;# 
   172     0018                     	;# 
   173     0019                     	;# 
   174     001A                     	;# 
   175     001B                     	;# 
   176     001B                     	;# 
   177     001C                     	;# 
   178     001D                     	;# 
   179     001E                     	;# 
   180     001F                     	;# 
   181     0081                     	;# 
   182     0085                     	;# 
   183     0086                     	;# 
   184     0087                     	;# 
   185     0088                     	;# 
   186     0089                     	;# 
   187     008C                     	;# 
   188     008D                     	;# 
   189     008E                     	;# 
   190     008F                     	;# 
   191     0090                     	;# 
   192     0091                     	;# 
   193     0092                     	;# 
   194     0093                     	;# 
   195     0093                     	;# 
   196     0093                     	;# 
   197     0094                     	;# 
   198     0095                     	;# 
   199     0096                     	;# 
   200     0097                     	;# 
   201     0098                     	;# 
   202     0099                     	;# 
   203     009A                     	;# 
   204     009B                     	;# 
   205     009C                     	;# 
   206     009D                     	;# 
   207     009E                     	;# 
   208     009F                     	;# 
   209     0105                     	;# 
   210     0107                     	;# 
   211     0108                     	;# 
   212     0109                     	;# 
   213     010C                     	;# 
   214     010C                     	;# 
   215     010D                     	;# 
   216     010E                     	;# 
   217     010F                     	;# 
   218     0185                     	;# 
   219     0187                     	;# 
   220     0188                     	;# 
   221     0189                     	;# 
   222     018C                     	;# 
   223     018D                     	;# 
   224     0000                     	;# 
   225     0001                     	;# 
   226     0002                     	;# 
   227     0003                     	;# 
   228     0004                     	;# 
   229     0005                     	;# 
   230     0006                     	;# 
   231     0007                     	;# 
   232     0008                     	;# 
   233     0009                     	;# 
   234     000A                     	;# 
   235     000B                     	;# 
   236     000C                     	;# 
   237     000D                     	;# 
   238     000E                     	;# 
   239     000E                     	;# 
   240     000F                     	;# 
   241     0010                     	;# 
   242     0011                     	;# 
   243     0012                     	;# 
   244     0013                     	;# 
   245     0014                     	;# 
   246     0015                     	;# 
   247     0015                     	;# 
   248     0016                     	;# 
   249     0017                     	;# 
   250     0018                     	;# 
   251     0019                     	;# 
   252     001A                     	;# 
   253     001B                     	;# 
   254     001B                     	;# 
   255     001C                     	;# 
   256     001D                     	;# 
   257     001E                     	;# 
   258     001F                     	;# 
   259     0081                     	;# 
   260     0085                     	;# 
   261     0086                     	;# 
   262     0087                     	;# 
   263     0088                     	;# 
   264     0089                     	;# 
   265     008C                     	;# 
   266     008D                     	;# 
   267     008E                     	;# 
   268     008F                     	;# 
   269     0090                     	;# 
   270     0091                     	;# 
   271     0092                     	;# 
   272     0093                     	;# 
   273     0093                     	;# 
   274     0093                     	;# 
   275     0094                     	;# 
   276     0095                     	;# 
   277     0096                     	;# 
   278     0097                     	;# 
   279     0098                     	;# 
   280     0099                     	;# 
   281     009A                     	;# 
   282     009B                     	;# 
   283     009C                     	;# 
   284     009D                     	;# 
   285     009E                     	;# 
   286     009F                     	;# 
   287     0105                     	;# 
   288     0107                     	;# 
   289     0108                     	;# 
   290     0109                     	;# 
   291     010C                     	;# 
   292     010C                     	;# 
   293     010D                     	;# 
   294     010E                     	;# 
   295     010F                     	;# 
   296     0185                     	;# 
   297     0187                     	;# 
   298     0188                     	;# 
   299     0189                     	;# 
   300     018C                     	;# 
   301     018D                     	;# 
   302     001B                     _CCPR2L	set	27
   303     001D                     _CCP2CONbits	set	29
   304     0015                     _CCPR1L	set	21
   305     0017                     _CCP1CONbits	set	23
   306     001E                     _ADRESH	set	30
   307     0010                     _T1CONbits	set	16
   308     001D                     _CCP2CON	set	29
   309     0012                     _T2CONbits	set	18
   310     0017                     _CCP1CON	set	23
   311     001F                     _ADCON0bits	set	31
   312     0005                     _PORTAbits	set	5
   313     0008                     _PORTD	set	8
   314     0007                     _PORTC	set	7
   315     0006                     _PORTBbits	set	6
   316     000E                     _TMR1L	set	14
   317     000F                     _TMR1H	set	15
   318     000C                     _PIR1bits	set	12
   319     0001                     _TMR0	set	1
   320     0007                     _PORTCbits	set	7
   321     000B                     _INTCONbits	set	11
   322     0066                     _ADIF	set	102
   323     0092                     _TMR2ON	set	146
   324     0061                     _TMR2IF	set	97
   325     008F                     _OSCCONbits	set	143
   326     009E                     _ADRESL	set	158
   327     0095                     _WPUB	set	149
   328     0096                     _IOCB	set	150
   329     008C                     _PIE1bits	set	140
   330     0081                     _OPTION_REGbits	set	129
   331     0092                     _PR2	set	146
   332     0087                     _TRISCbits	set	135
   333     009F                     _ADCON1bits	set	159
   334     0085                     _TRISAbits	set	133
   335     0088                     _TRISD	set	136
   336     0087                     _TRISC	set	135
   337     0086                     _TRISB	set	134
   338     0188                     _ANSELbits	set	392
   339     0189                     _ANSELH	set	393
   340                           
   341                           	psect	cinit
   342     000F                     start_initialization:	
   343                           ; #config settings
   344                           
   345     000F                     __initialization:
   346                           
   347                           ; Clear objects allocated to COMMON
   348     000F  01FB               	clrf	__pbssCOMMON& (0+127)
   349     0010  01FC               	clrf	(__pbssCOMMON+1)& (0+127)
   350                           
   351                           ; Clear objects allocated to BANK1
   352     0011  1683               	bsf	3,5	;RP0=1, select bank1
   353     0012  1303               	bcf	3,6	;RP1=0, select bank1
   354     0013  01A0               	clrf	__pbssBANK1& (0+127)
   355     0014  01A1               	clrf	(__pbssBANK1+1)& (0+127)
   356     0015  01A2               	clrf	(__pbssBANK1+2)& (0+127)
   357     0016  01A3               	clrf	(__pbssBANK1+3)& (0+127)
   358     0017  01A4               	clrf	(__pbssBANK1+4)& (0+127)
   359     0018  01A5               	clrf	(__pbssBANK1+5)& (0+127)
   360     0019  01A6               	clrf	(__pbssBANK1+6)& (0+127)
   361     001A  01A7               	clrf	(__pbssBANK1+7)& (0+127)
   362     001B  01A8               	clrf	(__pbssBANK1+8)& (0+127)
   363     001C  01A9               	clrf	(__pbssBANK1+9)& (0+127)
   364     001D  01AA               	clrf	(__pbssBANK1+10)& (0+127)
   365     001E  01AB               	clrf	(__pbssBANK1+11)& (0+127)
   366     001F                     end_of_initialization:	
   367                           ;End of C runtime variable initialization code
   368                           
   369     001F                     __end_of__initialization:
   370     001F  0183               	clrf	3
   371     0020  120A  158A  2D5C   	ljmp	_main	;jump to C main() function
   372                           
   373                           	psect	bssCOMMON
   374     007B                     __pbssCOMMON:
   375     007B                     _valADC:
   376     007B                     	ds	2
   377                           
   378                           	psect	bssBANK1
   379     00A0                     __pbssBANK1:
   380     00A0                     _modo:
   381     00A0                     	ds	2
   382     00A2                     _HIGHpulse1:
   383     00A2                     	ds	2
   384     00A4                     _HIGHpulse:
   385     00A4                     	ds	2
   386     00A6                     _vPWMh:
   387     00A6                     	ds	2
   388     00A8                     _vPWMl:
   389     00A8                     	ds	2
   390     00AA                     _vPWM:
   391     00AA                     	ds	2
   392                           
   393                           	psect	cstackCOMMON
   394     0070                     __pcstackCOMMON:
   395     0070                     ?_setup:
   396     0070                     ?_setupINTOSC:	
   397                           ; 1 bytes @ 0x0
   398                           
   399     0070                     ?_setup_ADC:	
   400                           ; 1 bytes @ 0x0
   401                           
   402     0070                     ?_setup_PWM1:	
   403                           ; 1 bytes @ 0x0
   404                           
   405     0070                     ?_setup_PWM2:	
   406                           ; 1 bytes @ 0x0
   407                           
   408     0070                     ?_setupTMR0:	
   409                           ; 1 bytes @ 0x0
   410                           
   411     0070                     ?_setupTMR1:	
   412                           ; 1 bytes @ 0x0
   413                           
   414     0070                     ?_setup_portb:	
   415                           ; 1 bytes @ 0x0
   416                           
   417     0070                     ?_modomanual:	
   418                           ; 1 bytes @ 0x0
   419                           
   420     0070                     ?_isr:	
   421                           ; 1 bytes @ 0x0
   422                           
   423     0070                     ??_isr:	
   424                           ; 1 bytes @ 0x0
   425                           
   426     0070                     ?_main:	
   427                           ; 1 bytes @ 0x0
   428                           
   429     0070                     ?_PWMtmr0:	
   430                           ; 1 bytes @ 0x0
   431                           
   432     0070                     ?_PWMtmr1:	
   433                           ; 1 bytes @ 0x0
   434                           
   435     0070                     ?_mapeo:	
   436                           ; 1 bytes @ 0x0
   437                           
   438                           
   439                           ; 1 bytes @ 0x0
   440     0070                     	ds	11
   441                           
   442                           	psect	cstackBANK0
   443     0020                     __pcstackBANK0:
   444     0020                     ??_setup:
   445     0020                     ??_setupINTOSC:	
   446                           ; 1 bytes @ 0x0
   447                           
   448     0020                     ??_setup_ADC:	
   449                           ; 1 bytes @ 0x0
   450                           
   451     0020                     ??_setup_PWM1:	
   452                           ; 1 bytes @ 0x0
   453                           
   454     0020                     ??_setup_PWM2:	
   455                           ; 1 bytes @ 0x0
   456                           
   457     0020                     ??_setupTMR0:	
   458                           ; 1 bytes @ 0x0
   459                           
   460     0020                     ??_setupTMR1:	
   461                           ; 1 bytes @ 0x0
   462                           
   463     0020                     ??_setup_portb:	
   464                           ; 1 bytes @ 0x0
   465                           
   466     0020                     ?__Umul8_16:	
   467                           ; 1 bytes @ 0x0
   468                           
   469     0020                     ?___xxtofl:	
   470                           ; 2 bytes @ 0x0
   471                           
   472     0020                     setupINTOSC@IRCF:	
   473                           ; 4 bytes @ 0x0
   474                           
   475     0020                     __Umul8_16@multiplicand:	
   476                           ; 1 bytes @ 0x0
   477                           
   478     0020                     ___xxtofl@val:	
   479                           ; 1 bytes @ 0x0
   480                           
   481                           
   482                           ; 4 bytes @ 0x0
   483     0020                     	ds	2
   484     0022                     ??__Umul8_16:
   485                           
   486                           ; 1 bytes @ 0x2
   487     0022                     	ds	2
   488     0024                     ??___xxtofl:
   489     0024                     __Umul8_16@product:	
   490                           ; 1 bytes @ 0x4
   491                           
   492                           
   493                           ; 2 bytes @ 0x4
   494     0024                     	ds	2
   495     0026                     __Umul8_16@word_mpld:
   496                           
   497                           ; 2 bytes @ 0x6
   498     0026                     	ds	2
   499     0028                     __Umul8_16@multiplier:
   500     0028                     ___xxtofl@sign:	
   501                           ; 1 bytes @ 0x8
   502                           
   503                           
   504                           ; 1 bytes @ 0x8
   505     0028                     	ds	1
   506     0029                     ___xxtofl@exp:
   507                           
   508                           ; 1 bytes @ 0x9
   509     0029                     	ds	1
   510     002A                     ___xxtofl@arg:
   511                           
   512                           ; 4 bytes @ 0xA
   513     002A                     	ds	4
   514     002E                     ?___flmul:
   515     002E                     ___flmul@b:	
   516                           ; 4 bytes @ 0xE
   517                           
   518                           
   519                           ; 4 bytes @ 0xE
   520     002E                     	ds	4
   521     0032                     ___flmul@a:
   522                           
   523                           ; 4 bytes @ 0x12
   524     0032                     	ds	4
   525     0036                     ??___flmul:
   526                           
   527                           ; 1 bytes @ 0x16
   528     0036                     	ds	5
   529     003B                     ___flmul@sign:
   530                           
   531                           ; 1 bytes @ 0x1B
   532     003B                     	ds	1
   533     003C                     ___flmul@grs:
   534                           
   535                           ; 4 bytes @ 0x1C
   536     003C                     	ds	4
   537     0040                     ___flmul@aexp:
   538                           
   539                           ; 1 bytes @ 0x20
   540     0040                     	ds	1
   541     0041                     ___flmul@bexp:
   542                           
   543                           ; 1 bytes @ 0x21
   544     0041                     	ds	1
   545     0042                     ___flmul@prod:
   546                           
   547                           ; 4 bytes @ 0x22
   548     0042                     	ds	4
   549     0046                     ___flmul@temp:
   550                           
   551                           ; 2 bytes @ 0x26
   552     0046                     	ds	2
   553     0048                     ?___fladd:
   554     0048                     ___fladd@b:	
   555                           ; 4 bytes @ 0x28
   556                           
   557                           
   558                           ; 4 bytes @ 0x28
   559     0048                     	ds	4
   560     004C                     ___fladd@a:
   561                           
   562                           ; 4 bytes @ 0x2C
   563     004C                     	ds	4
   564     0050                     ??___fladd:
   565                           
   566                           ; 1 bytes @ 0x30
   567     0050                     	ds	8
   568     0058                     ___fladd@signs:
   569                           
   570                           ; 1 bytes @ 0x38
   571     0058                     	ds	1
   572     0059                     ___fladd@aexp:
   573                           
   574                           ; 1 bytes @ 0x39
   575     0059                     	ds	1
   576     005A                     ___fladd@bexp:
   577                           
   578                           ; 1 bytes @ 0x3A
   579     005A                     	ds	1
   580     005B                     ___fladd@grs:
   581                           
   582                           ; 1 bytes @ 0x3B
   583     005B                     	ds	1
   584     005C                     ?___fltol:
   585     005C                     ___fltol@f1:	
   586                           ; 4 bytes @ 0x3C
   587                           
   588                           
   589                           ; 4 bytes @ 0x3C
   590     005C                     	ds	4
   591     0060                     ??___fltol:
   592                           
   593                           ; 1 bytes @ 0x40
   594     0060                     	ds	4
   595     0064                     ___fltol@sign1:
   596                           
   597                           ; 1 bytes @ 0x44
   598     0064                     	ds	1
   599     0065                     ___fltol@exp1:
   600                           
   601                           ; 1 bytes @ 0x45
   602     0065                     	ds	1
   603     0066                     ??_PWMtmr0:
   604     0066                     ??_PWMtmr1:	
   605                           ; 1 bytes @ 0x46
   606                           
   607     0066                     ??_mapeo:	
   608                           ; 1 bytes @ 0x46
   609                           
   610                           
   611                           ; 1 bytes @ 0x46
   612     0066                     	ds	5
   613     006B                     ??_modomanual:
   614                           
   615                           ; 1 bytes @ 0x4B
   616     006B                     	ds	3
   617     006E                     ??_main:
   618                           
   619                           ; 1 bytes @ 0x4E
   620     006E                     	ds	1
   621                           
   622                           	psect	maintext
   623     0D5C                     __pmaintext:	
   624 ;;
   625 ;;Main: autosize = 0, tempsize = 1, incstack = 0, save=0
   626 ;;
   627 ;; *************** function _main *****************
   628 ;; Defined at:
   629 ;;		line 115 in file "main.c"
   630 ;; Parameters:    Size  Location     Type
   631 ;;		None
   632 ;; Auto vars:     Size  Location     Type
   633 ;;		None
   634 ;; Return value:  Size  Location     Type
   635 ;;                  1    wreg      void 
   636 ;; Registers used:
   637 ;;		wreg, status,2, status,0, btemp+1, pclath, cstack
   638 ;; Tracked objects:
   639 ;;		On entry : B00/0
   640 ;;		On exit  : 0/0
   641 ;;		Unchanged: 0/0
   642 ;; Data sizes:     COMMON   BANK0   BANK1   BANK3   BANK2
   643 ;;      Params:         0       0       0       0       0
   644 ;;      Locals:         0       0       0       0       0
   645 ;;      Temps:          0       1       0       0       0
   646 ;;      Totals:         0       1       0       0       0
   647 ;;Total ram usage:        1 bytes
   648 ;; Hardware stack levels required when called: 5
   649 ;; This function calls:
   650 ;;		_modomanual
   651 ;;		_setup
   652 ;;		_setupINTOSC
   653 ;;		_setupTMR0
   654 ;;		_setupTMR1
   655 ;;		_setup_ADC
   656 ;;		_setup_PWM1
   657 ;;		_setup_PWM2
   658 ;;		_setup_portb
   659 ;; This function is called by:
   660 ;;		Startup code after reset
   661 ;; This function uses a non-reentrant model
   662 ;;
   663                           
   664     0D5C                     _main:	
   665                           ;psect for function _main
   666                           
   667     0D5C                     l2013:	
   668                           ;incstack = 0
   669                           ; Regs used in _main: [wreg+status,2+status,0+btemp+1+pclath+cstack]
   670                           
   671                           
   672                           ;main.c: 116:     setup();
   673     0D5C  120A  158A  24DD  120A  158A  	fcall	_setup
   674     0D61                     l2015:
   675                           
   676                           ;main.c: 117:     setupINTOSC(4);
   677     0D61  3004               	movlw	4
   678     0D62  120A  158A  259F  120A  158A  	fcall	_setupINTOSC
   679     0D67                     l2017:
   680                           
   681                           ;main.c: 118:     setup_ADC();
   682     0D67  120A  118A  27C2  120A  158A  	fcall	_setup_ADC
   683     0D6C                     l2019:
   684                           
   685                           ;main.c: 119:     setup_PWM1();
   686     0D6C  120A  158A  251E  120A  158A  	fcall	_setup_PWM1
   687     0D71                     l2021:
   688                           
   689                           ;main.c: 120:     setup_PWM2();
   690     0D71  120A  158A  24F9  120A  158A  	fcall	_setup_PWM2
   691     0D76                     l2023:
   692                           
   693                           ;main.c: 121:     setupTMR0();
   694     0D76  120A  158A  24EA  120A  158A  	fcall	_setupTMR0
   695     0D7B                     l2025:
   696                           
   697                           ;main.c: 122:     setupTMR1();
   698     0D7B  120A  158A  250B  120A  158A  	fcall	_setupTMR1
   699     0D80                     l2027:
   700                           
   701                           ;main.c: 123:     setup_portb();
   702     0D80  120A  158A  24D3  120A  158A  	fcall	_setup_portb
   703                           
   704                           ;main.c: 124:     HIGHpulse = 241;
   705     0D85  30F1               	movlw	241
   706     0D86  1683               	bsf	3,5	;RP0=1, select bank1
   707     0D87  1303               	bcf	3,6	;RP1=0, select bank1
   708     0D88  00A4               	movwf	_HIGHpulse^(0+128)
   709     0D89  3000               	movlw	0
   710     0D8A  00A5               	movwf	(_HIGHpulse^(0+128)+1)
   711                           
   712                           ;main.c: 125:     HIGHpulse1 = 65411;
   713     0D8B  3083               	movlw	131
   714     0D8C  00A2               	movwf	_HIGHpulse1^(0+128)
   715     0D8D  30FF               	movlw	255
   716     0D8E  00A3               	movwf	(_HIGHpulse1^(0+128)+1)
   717     0D8F                     l2029:
   718                           
   719                           ;main.c: 127:         modomanual();
   720     0D8F  120A  118A  267A  120A  158A  	fcall	_modomanual
   721     0D94                     l2031:
   722                           
   723                           ;main.c: 128:         _delay((unsigned long)((1)*(1000000/4000.0)));
   724     0D94  3052               	movlw	82
   725     0D95  1283               	bcf	3,5	;RP0=0, select bank0
   726     0D96  1303               	bcf	3,6	;RP1=0, select bank0
   727     0D97  00EE               	movwf	??_main
   728     0D98                     u2717:
   729     0D98  0BEE               	decfsz	??_main,f
   730     0D99  2D98               	goto	u2717
   731     0D9A  0000               	nop
   732     0D9B  2D8F               	goto	l2029
   733     0D9C  120A  118A  280C   	ljmp	start
   734     0D9F                     __end_of_main:
   735                           
   736                           	psect	text1
   737     0CD3                     __ptext1:	
   738 ;; *************** function _setup_portb *****************
   739 ;; Defined at:
   740 ;;		line 226 in file "main.c"
   741 ;; Parameters:    Size  Location     Type
   742 ;;		None
   743 ;; Auto vars:     Size  Location     Type
   744 ;;		None
   745 ;; Return value:  Size  Location     Type
   746 ;;                  1    wreg      void 
   747 ;; Registers used:
   748 ;;		wreg
   749 ;; Tracked objects:
   750 ;;		On entry : 0/0
   751 ;;		On exit  : 0/0
   752 ;;		Unchanged: 0/0
   753 ;; Data sizes:     COMMON   BANK0   BANK1   BANK3   BANK2
   754 ;;      Params:         0       0       0       0       0
   755 ;;      Locals:         0       0       0       0       0
   756 ;;      Temps:          0       0       0       0       0
   757 ;;      Totals:         0       0       0       0       0
   758 ;;Total ram usage:        0 bytes
   759 ;; Hardware stack levels used: 1
   760 ;; Hardware stack levels required when called: 1
   761 ;; This function calls:
   762 ;;		Nothing
   763 ;; This function is called by:
   764 ;;		_main
   765 ;; This function uses a non-reentrant model
   766 ;;
   767                           
   768     0CD3                     _setup_portb:	
   769                           ;psect for function _setup_portb
   770                           
   771     0CD3                     l1921:	
   772                           ;incstack = 0
   773                           ; Regs used in _setup_portb: [wreg]
   774                           
   775                           
   776                           ;main.c: 227:     INTCONbits.RBIE = 1;
   777     0CD3  158B               	bsf	11,3	;volatile
   778                           
   779                           ;main.c: 228:     INTCONbits.RBIF = 0;
   780     0CD4  100B               	bcf	11,0	;volatile
   781     0CD5                     l1923:
   782                           
   783                           ;main.c: 229:     IOCB = 0b11000000;
   784     0CD5  30C0               	movlw	192
   785     0CD6  1683               	bsf	3,5	;RP0=1, select bank1
   786     0CD7  1303               	bcf	3,6	;RP1=0, select bank1
   787     0CD8  0096               	movwf	22	;volatile
   788                           
   789                           ;main.c: 230:     WPUB = 0b11000000;
   790     0CD9  30C0               	movlw	192
   791     0CDA  0095               	movwf	21	;volatile
   792     0CDB                     l1925:
   793                           
   794                           ;main.c: 231:     OPTION_REGbits.nRBPU = 0;
   795     0CDB  1381               	bcf	1,7	;volatile
   796     0CDC                     l156:
   797     0CDC  0008               	return
   798     0CDD                     __end_of_setup_portb:
   799                           
   800                           	psect	text2
   801     0CF9                     __ptext2:	
   802 ;; *************** function _setup_PWM2 *****************
   803 ;; Defined at:
   804 ;;		line 186 in file "main.c"
   805 ;; Parameters:    Size  Location     Type
   806 ;;		None
   807 ;; Auto vars:     Size  Location     Type
   808 ;;		None
   809 ;; Return value:  Size  Location     Type
   810 ;;                  1    wreg      void 
   811 ;; Registers used:
   812 ;;		wreg
   813 ;; Tracked objects:
   814 ;;		On entry : 0/0
   815 ;;		On exit  : 0/0
   816 ;;		Unchanged: 0/0
   817 ;; Data sizes:     COMMON   BANK0   BANK1   BANK3   BANK2
   818 ;;      Params:         0       0       0       0       0
   819 ;;      Locals:         0       0       0       0       0
   820 ;;      Temps:          0       0       0       0       0
   821 ;;      Totals:         0       0       0       0       0
   822 ;;Total ram usage:        0 bytes
   823 ;; Hardware stack levels used: 1
   824 ;; Hardware stack levels required when called: 1
   825 ;; This function calls:
   826 ;;		Nothing
   827 ;; This function is called by:
   828 ;;		_main
   829 ;; This function uses a non-reentrant model
   830 ;;
   831                           
   832     0CF9                     _setup_PWM2:	
   833                           ;psect for function _setup_PWM2
   834                           
   835     0CF9                     l1891:	
   836                           ;incstack = 0
   837                           ; Regs used in _setup_PWM2: [wreg]
   838                           
   839                           
   840                           ;main.c: 187:     TRISCbits.TRISC1 = 1;
   841     0CF9  1683               	bsf	3,5	;RP0=1, select bank1
   842     0CFA  1303               	bcf	3,6	;RP1=0, select bank1
   843     0CFB  1487               	bsf	7,1	;volatile
   844     0CFC                     l1893:
   845                           
   846                           ;main.c: 188:     PR2 = 254;
   847     0CFC  30FE               	movlw	254
   848     0CFD  0092               	movwf	18	;volatile
   849                           
   850                           ;main.c: 189:     CCP2CON = 0b00001100;
   851     0CFE  300C               	movlw	12
   852     0CFF  1283               	bcf	3,5	;RP0=0, select bank0
   853     0D00  1303               	bcf	3,6	;RP1=0, select bank0
   854     0D01  009D               	movwf	29	;volatile
   855     0D02                     l1895:
   856                           
   857                           ;main.c: 190:     TMR2IF = 0;
   858     0D02  108C               	bcf	12,1	;volatile
   859     0D03                     l144:	
   860                           ;main.c: 191:     while(!TMR2IF);
   861                           
   862     0D03  1C8C               	btfss	12,1	;volatile
   863     0D04  2D06               	goto	u2581
   864     0D05  2D07               	goto	u2580
   865     0D06                     u2581:
   866     0D06  2D03               	goto	l144
   867     0D07                     u2580:
   868     0D07                     l146:
   869                           
   870                           ;main.c: 192:     TRISCbits.TRISC1 = 0;
   871     0D07  1683               	bsf	3,5	;RP0=1, select bank1
   872     0D08  1303               	bcf	3,6	;RP1=0, select bank1
   873     0D09  1087               	bcf	7,1	;volatile
   874     0D0A                     l147:
   875     0D0A  0008               	return
   876     0D0B                     __end_of_setup_PWM2:
   877                           
   878                           	psect	text3
   879     0D1E                     __ptext3:	
   880 ;; *************** function _setup_PWM1 *****************
   881 ;; Defined at:
   882 ;;		line 176 in file "main.c"
   883 ;; Parameters:    Size  Location     Type
   884 ;;		None
   885 ;; Auto vars:     Size  Location     Type
   886 ;;		None
   887 ;; Return value:  Size  Location     Type
   888 ;;                  1    wreg      void 
   889 ;; Registers used:
   890 ;;		wreg, status,2, status,0
   891 ;; Tracked objects:
   892 ;;		On entry : 0/0
   893 ;;		On exit  : 0/0
   894 ;;		Unchanged: 0/0
   895 ;; Data sizes:     COMMON   BANK0   BANK1   BANK3   BANK2
   896 ;;      Params:         0       0       0       0       0
   897 ;;      Locals:         0       0       0       0       0
   898 ;;      Temps:          0       0       0       0       0
   899 ;;      Totals:         0       0       0       0       0
   900 ;;Total ram usage:        0 bytes
   901 ;; Hardware stack levels used: 1
   902 ;; Hardware stack levels required when called: 1
   903 ;; This function calls:
   904 ;;		Nothing
   905 ;; This function is called by:
   906 ;;		_main
   907 ;; This function uses a non-reentrant model
   908 ;;
   909                           
   910     0D1E                     _setup_PWM1:	
   911                           ;psect for function _setup_PWM1
   912                           
   913     0D1E                     l1881:	
   914                           ;incstack = 0
   915                           ; Regs used in _setup_PWM1: [wreg+status,2+status,0]
   916                           
   917                           
   918                           ;main.c: 177:     TRISCbits.TRISC2 = 1;
   919     0D1E  1683               	bsf	3,5	;RP0=1, select bank1
   920     0D1F  1303               	bcf	3,6	;RP1=0, select bank1
   921     0D20  1507               	bsf	7,2	;volatile
   922     0D21                     l1883:
   923                           
   924                           ;main.c: 178:     PR2 = 254;
   925     0D21  30FE               	movlw	254
   926     0D22  0092               	movwf	18	;volatile
   927                           
   928                           ;main.c: 179:     CCP1CON = 0b00001100;
   929     0D23  300C               	movlw	12
   930     0D24  1283               	bcf	3,5	;RP0=0, select bank0
   931     0D25  1303               	bcf	3,6	;RP1=0, select bank0
   932     0D26  0097               	movwf	23	;volatile
   933     0D27                     l1885:
   934                           
   935                           ;main.c: 180:     TMR2IF = 0;
   936     0D27  108C               	bcf	12,1	;volatile
   937     0D28                     l1887:
   938                           
   939                           ;main.c: 181:     T2CONbits.T2CKPS = 0b11;
   940     0D28  3003               	movlw	3
   941     0D29  0492               	iorwf	18,f	;volatile
   942     0D2A                     l1889:
   943                           
   944                           ;main.c: 182:     TMR2ON = 1;
   945     0D2A  1512               	bsf	18,2	;volatile
   946     0D2B                     l138:	
   947                           ;main.c: 183:     while(!TMR2IF);
   948                           
   949     0D2B  1C8C               	btfss	12,1	;volatile
   950     0D2C  2D2E               	goto	u2571
   951     0D2D  2D2F               	goto	u2570
   952     0D2E                     u2571:
   953     0D2E  2D2B               	goto	l138
   954     0D2F                     u2570:
   955     0D2F                     l140:
   956                           
   957                           ;main.c: 184:     TRISCbits.TRISC2 = 0;
   958     0D2F  1683               	bsf	3,5	;RP0=1, select bank1
   959     0D30  1303               	bcf	3,6	;RP1=0, select bank1
   960     0D31  1107               	bcf	7,2	;volatile
   961     0D32                     l141:
   962     0D32  0008               	return
   963     0D33                     __end_of_setup_PWM1:
   964                           
   965                           	psect	text4
   966     07C2                     __ptext4:	
   967 ;; *************** function _setup_ADC *****************
   968 ;; Defined at:
   969 ;;		line 145 in file "main.c"
   970 ;; Parameters:    Size  Location     Type
   971 ;;		None
   972 ;; Auto vars:     Size  Location     Type
   973 ;;		None
   974 ;; Return value:  Size  Location     Type
   975 ;;                  1    wreg      void 
   976 ;; Registers used:
   977 ;;		wreg
   978 ;; Tracked objects:
   979 ;;		On entry : 0/0
   980 ;;		On exit  : 0/0
   981 ;;		Unchanged: 0/0
   982 ;; Data sizes:     COMMON   BANK0   BANK1   BANK3   BANK2
   983 ;;      Params:         0       0       0       0       0
   984 ;;      Locals:         0       0       0       0       0
   985 ;;      Temps:          0       1       0       0       0
   986 ;;      Totals:         0       1       0       0       0
   987 ;;Total ram usage:        1 bytes
   988 ;; Hardware stack levels used: 1
   989 ;; Hardware stack levels required when called: 1
   990 ;; This function calls:
   991 ;;		Nothing
   992 ;; This function is called by:
   993 ;;		_main
   994 ;; This function uses a non-reentrant model
   995 ;;
   996                           
   997     07C2                     _setup_ADC:	
   998                           ;psect for function _setup_ADC
   999                           
  1000     07C2                     l1877:	
  1001                           ;incstack = 0
  1002                           ; Regs used in _setup_ADC: [wreg]
  1003                           
  1004                           
  1005                           ;main.c: 146:     PORTAbits.RA0 = 0;
  1006     07C2  1283               	bcf	3,5	;RP0=0, select bank0
  1007     07C3  1303               	bcf	3,6	;RP1=0, select bank0
  1008     07C4  1005               	bcf	5,0	;volatile
  1009                           
  1010                           ;main.c: 147:     TRISAbits.TRISA0 = 1;
  1011     07C5  1683               	bsf	3,5	;RP0=1, select bank1
  1012     07C6  1303               	bcf	3,6	;RP1=0, select bank1
  1013     07C7  1405               	bsf	5,0	;volatile
  1014                           
  1015                           ;main.c: 148:     ANSELbits.ANS0 = 1;
  1016     07C8  1683               	bsf	3,5	;RP0=1, select bank3
  1017     07C9  1703               	bsf	3,6	;RP1=1, select bank3
  1018     07CA  1408               	bsf	8,0	;volatile
  1019                           
  1020                           ;main.c: 150:     PORTAbits.RA1 = 0;
  1021     07CB  1283               	bcf	3,5	;RP0=0, select bank0
  1022     07CC  1303               	bcf	3,6	;RP1=0, select bank0
  1023     07CD  1085               	bcf	5,1	;volatile
  1024                           
  1025                           ;main.c: 151:     TRISAbits.TRISA1 = 1;
  1026     07CE  1683               	bsf	3,5	;RP0=1, select bank1
  1027     07CF  1303               	bcf	3,6	;RP1=0, select bank1
  1028     07D0  1485               	bsf	5,1	;volatile
  1029                           
  1030                           ;main.c: 152:     ANSELbits.ANS1 = 1;
  1031     07D1  1683               	bsf	3,5	;RP0=1, select bank3
  1032     07D2  1703               	bsf	3,6	;RP1=1, select bank3
  1033     07D3  1488               	bsf	8,1	;volatile
  1034                           
  1035                           ;main.c: 154:     PORTAbits.RA2 = 0;
  1036     07D4  1283               	bcf	3,5	;RP0=0, select bank0
  1037     07D5  1303               	bcf	3,6	;RP1=0, select bank0
  1038     07D6  1105               	bcf	5,2	;volatile
  1039                           
  1040                           ;main.c: 155:     TRISAbits.TRISA2 = 1;
  1041     07D7  1683               	bsf	3,5	;RP0=1, select bank1
  1042     07D8  1303               	bcf	3,6	;RP1=0, select bank1
  1043     07D9  1505               	bsf	5,2	;volatile
  1044                           
  1045                           ;main.c: 156:     ANSELbits.ANS2 = 1;
  1046     07DA  1683               	bsf	3,5	;RP0=1, select bank3
  1047     07DB  1703               	bsf	3,6	;RP1=1, select bank3
  1048     07DC  1508               	bsf	8,2	;volatile
  1049                           
  1050                           ;main.c: 158:     PORTAbits.RA3 = 0;
  1051     07DD  1283               	bcf	3,5	;RP0=0, select bank0
  1052     07DE  1303               	bcf	3,6	;RP1=0, select bank0
  1053     07DF  1185               	bcf	5,3	;volatile
  1054                           
  1055                           ;main.c: 159:     TRISAbits.TRISA3 = 1;
  1056     07E0  1683               	bsf	3,5	;RP0=1, select bank1
  1057     07E1  1303               	bcf	3,6	;RP1=0, select bank1
  1058     07E2  1585               	bsf	5,3	;volatile
  1059                           
  1060                           ;main.c: 160:     ANSELbits.ANS3 = 1;
  1061     07E3  1683               	bsf	3,5	;RP0=1, select bank3
  1062     07E4  1703               	bsf	3,6	;RP1=1, select bank3
  1063     07E5  1588               	bsf	8,3	;volatile
  1064                           
  1065                           ;main.c: 162:     ADCON0bits.ADCS1 = 0;
  1066     07E6  1283               	bcf	3,5	;RP0=0, select bank0
  1067     07E7  1303               	bcf	3,6	;RP1=0, select bank0
  1068     07E8  139F               	bcf	31,7	;volatile
  1069                           
  1070                           ;main.c: 163:     ADCON0bits.ADCS0 = 1;
  1071     07E9  171F               	bsf	31,6	;volatile
  1072                           
  1073                           ;main.c: 165:     ADCON1bits.VCFG1 = 0;
  1074     07EA  1683               	bsf	3,5	;RP0=1, select bank1
  1075     07EB  1303               	bcf	3,6	;RP1=0, select bank1
  1076     07EC  129F               	bcf	31,5	;volatile
  1077                           
  1078                           ;main.c: 166:     ADCON1bits.VCFG0 = 0;
  1079     07ED  121F               	bcf	31,4	;volatile
  1080                           
  1081                           ;main.c: 168:     ADCON1bits.ADFM = 0;
  1082     07EE  139F               	bcf	31,7	;volatile
  1083                           
  1084                           ;main.c: 170:     ADCON0bits.ADON = 1;
  1085     07EF  1283               	bcf	3,5	;RP0=0, select bank0
  1086     07F0  1303               	bcf	3,6	;RP1=0, select bank0
  1087     07F1  141F               	bsf	31,0	;volatile
  1088     07F2                     l1879:
  1089                           
  1090                           ;main.c: 171:     _delay((unsigned long)((100)*(1000000/4000000.0)));
  1091     07F2  3007               	movlw	7
  1092     07F3  1283               	bcf	3,5	;RP0=0, select bank0
  1093     07F4  1303               	bcf	3,6	;RP1=0, select bank0
  1094     07F5  00A0               	movwf	??_setup_ADC
  1095     07F6                     u2727:
  1096     07F6  0BA0               	decfsz	??_setup_ADC,f
  1097     07F7  2FF6               	goto	u2727
  1098     07F8  0000               	nop
  1099     07F9                     l135:
  1100     07F9  0008               	return
  1101     07FA                     __end_of_setup_ADC:
  1102                           
  1103                           	psect	text5
  1104     0D0B                     __ptext5:	
  1105 ;; *************** function _setupTMR1 *****************
  1106 ;; Defined at:
  1107 ;;		line 210 in file "main.c"
  1108 ;; Parameters:    Size  Location     Type
  1109 ;;		None
  1110 ;; Auto vars:     Size  Location     Type
  1111 ;;		None
  1112 ;; Return value:  Size  Location     Type
  1113 ;;                  1    wreg      void 
  1114 ;; Registers used:
  1115 ;;		wreg, status,2, status,0
  1116 ;; Tracked objects:
  1117 ;;		On entry : 0/0
  1118 ;;		On exit  : 0/0
  1119 ;;		Unchanged: 0/0
  1120 ;; Data sizes:     COMMON   BANK0   BANK1   BANK3   BANK2
  1121 ;;      Params:         0       0       0       0       0
  1122 ;;      Locals:         0       0       0       0       0
  1123 ;;      Temps:          0       0       0       0       0
  1124 ;;      Totals:         0       0       0       0       0
  1125 ;;Total ram usage:        0 bytes
  1126 ;; Hardware stack levels used: 1
  1127 ;; Hardware stack levels required when called: 1
  1128 ;; This function calls:
  1129 ;;		Nothing
  1130 ;; This function is called by:
  1131 ;;		_main
  1132 ;; This function uses a non-reentrant model
  1133 ;;
  1134                           
  1135     0D0B                     _setupTMR1:	
  1136                           ;psect for function _setupTMR1
  1137                           
  1138     0D0B                     l1903:	
  1139                           ;incstack = 0
  1140                           ; Regs used in _setupTMR1: [wreg+status,2+status,0]
  1141                           
  1142                           
  1143                           ;main.c: 211:     T1CONbits.T1CKPS = 0;
  1144     0D0B  30CF               	movlw	-49
  1145     0D0C  1283               	bcf	3,5	;RP0=0, select bank0
  1146     0D0D  1303               	bcf	3,6	;RP1=0, select bank0
  1147     0D0E  0590               	andwf	16,f	;volatile
  1148     0D0F                     l1905:
  1149                           
  1150                           ;main.c: 212:     T1CONbits.T1OSCEN = 0;
  1151     0D0F  1190               	bcf	16,3	;volatile
  1152     0D10                     l1907:
  1153                           
  1154                           ;main.c: 213:     T1CONbits.TMR1CS = 0;
  1155     0D10  1090               	bcf	16,1	;volatile
  1156     0D11                     l1909:
  1157                           
  1158                           ;main.c: 214:     T1CONbits.TMR1ON = 1;
  1159     0D11  1410               	bsf	16,0	;volatile
  1160     0D12                     l1911:
  1161                           
  1162                           ;main.c: 216:     TMR1H = 0xEF;
  1163     0D12  30EF               	movlw	239
  1164     0D13  008F               	movwf	15	;volatile
  1165     0D14                     l1913:
  1166                           
  1167                           ;main.c: 217:     TMR1L = 0x82;
  1168     0D14  3082               	movlw	130
  1169     0D15  008E               	movwf	14	;volatile
  1170     0D16                     l1915:
  1171                           
  1172                           ;main.c: 218:     INTCONbits.PEIE = 1;
  1173     0D16  170B               	bsf	11,6	;volatile
  1174     0D17                     l1917:
  1175                           
  1176                           ;main.c: 219:     PIE1bits.TMR1IE = 1;
  1177     0D17  1683               	bsf	3,5	;RP0=1, select bank1
  1178     0D18  1303               	bcf	3,6	;RP1=0, select bank1
  1179     0D19  140C               	bsf	12,0	;volatile
  1180     0D1A                     l1919:
  1181                           
  1182                           ;main.c: 220:     PIR1bits.TMR1IF = 0;
  1183     0D1A  1283               	bcf	3,5	;RP0=0, select bank0
  1184     0D1B  1303               	bcf	3,6	;RP1=0, select bank0
  1185     0D1C  100C               	bcf	12,0	;volatile
  1186     0D1D                     l153:
  1187     0D1D  0008               	return
  1188     0D1E                     __end_of_setupTMR1:
  1189                           
  1190                           	psect	text6
  1191     0CEA                     __ptext6:	
  1192 ;; *************** function _setupTMR0 *****************
  1193 ;; Defined at:
  1194 ;;		line 197 in file "main.c"
  1195 ;; Parameters:    Size  Location     Type
  1196 ;;		None
  1197 ;; Auto vars:     Size  Location     Type
  1198 ;;		None
  1199 ;; Return value:  Size  Location     Type
  1200 ;;                  1    wreg      void 
  1201 ;; Registers used:
  1202 ;;		wreg, status,2, status,0
  1203 ;; Tracked objects:
  1204 ;;		On entry : 0/0
  1205 ;;		On exit  : 0/0
  1206 ;;		Unchanged: 0/0
  1207 ;; Data sizes:     COMMON   BANK0   BANK1   BANK3   BANK2
  1208 ;;      Params:         0       0       0       0       0
  1209 ;;      Locals:         0       0       0       0       0
  1210 ;;      Temps:          0       0       0       0       0
  1211 ;;      Totals:         0       0       0       0       0
  1212 ;;Total ram usage:        0 bytes
  1213 ;; Hardware stack levels used: 1
  1214 ;; Hardware stack levels required when called: 1
  1215 ;; This function calls:
  1216 ;;		Nothing
  1217 ;; This function is called by:
  1218 ;;		_main
  1219 ;; This function uses a non-reentrant model
  1220 ;;
  1221                           
  1222     0CEA                     _setupTMR0:	
  1223                           ;psect for function _setupTMR0
  1224                           
  1225     0CEA                     l1897:	
  1226                           ;incstack = 0
  1227                           ; Regs used in _setupTMR0: [wreg+status,2+status,0]
  1228                           
  1229                           
  1230                           ;main.c: 198:     INTCONbits.GIE = 1;
  1231     0CEA  178B               	bsf	11,7	;volatile
  1232                           
  1233                           ;main.c: 199:     INTCONbits.T0IE = 1;
  1234     0CEB  168B               	bsf	11,5	;volatile
  1235                           
  1236                           ;main.c: 200:     INTCONbits.T0IF = 0;
  1237     0CEC  110B               	bcf	11,2	;volatile
  1238                           
  1239                           ;main.c: 202:     OPTION_REGbits.T0CS = 0;
  1240     0CED  1683               	bsf	3,5	;RP0=1, select bank1
  1241     0CEE  1303               	bcf	3,6	;RP1=0, select bank1
  1242     0CEF  1281               	bcf	1,5	;volatile
  1243                           
  1244                           ;main.c: 203:     OPTION_REGbits.PSA = 0;
  1245     0CF0  1181               	bcf	1,3	;volatile
  1246     0CF1                     l1899:
  1247                           
  1248                           ;main.c: 204:     OPTION_REGbits.PS = 0b011;
  1249     0CF1  0801               	movf	1,w	;volatile
  1250     0CF2  39F8               	andlw	-8
  1251     0CF3  3803               	iorlw	3
  1252     0CF4  0081               	movwf	1	;volatile
  1253     0CF5                     l1901:
  1254                           
  1255                           ;main.c: 205:     TMR0 = 0;
  1256     0CF5  1283               	bcf	3,5	;RP0=0, select bank0
  1257     0CF6  1303               	bcf	3,6	;RP1=0, select bank0
  1258     0CF7  0181               	clrf	1	;volatile
  1259     0CF8                     l150:
  1260     0CF8  0008               	return
  1261     0CF9                     __end_of_setupTMR0:
  1262                           
  1263                           	psect	text7
  1264     0D9F                     __ptext7:	
  1265 ;; *************** function _setupINTOSC *****************
  1266 ;; Defined at:
  1267 ;;		line 10 in file "oscilador.c"
  1268 ;; Parameters:    Size  Location     Type
  1269 ;;  IRCF            1    wreg     unsigned char 
  1270 ;; Auto vars:     Size  Location     Type
  1271 ;;  IRCF            1    0[BANK0 ] unsigned char 
  1272 ;; Return value:  Size  Location     Type
  1273 ;;                  1    wreg      void 
  1274 ;; Registers used:
  1275 ;;		wreg, status,2, status,0
  1276 ;; Tracked objects:
  1277 ;;		On entry : 0/0
  1278 ;;		On exit  : 0/0
  1279 ;;		Unchanged: 0/0
  1280 ;; Data sizes:     COMMON   BANK0   BANK1   BANK3   BANK2
  1281 ;;      Params:         0       0       0       0       0
  1282 ;;      Locals:         0       1       0       0       0
  1283 ;;      Temps:          0       0       0       0       0
  1284 ;;      Totals:         0       1       0       0       0
  1285 ;;Total ram usage:        1 bytes
  1286 ;; Hardware stack levels used: 1
  1287 ;; Hardware stack levels required when called: 1
  1288 ;; This function calls:
  1289 ;;		Nothing
  1290 ;; This function is called by:
  1291 ;;		_main
  1292 ;; This function uses a non-reentrant model
  1293 ;;
  1294                           
  1295     0D9F                     _setupINTOSC:	
  1296                           ;psect for function _setupINTOSC
  1297                           
  1298                           
  1299                           ;incstack = 0
  1300                           ; Regs used in _setupINTOSC: [wreg+status,2+status,0]
  1301                           ;setupINTOSC@IRCF stored from wreg
  1302     0D9F  1283               	bcf	3,5	;RP0=0, select bank0
  1303     0DA0  1303               	bcf	3,6	;RP1=0, select bank0
  1304     0DA1  00A0               	movwf	setupINTOSC@IRCF
  1305     0DA2                     l1857:
  1306                           
  1307                           ;oscilador.c: 11:     if (IRCF == 7){
  1308     0DA2  3007               	movlw	7
  1309     0DA3  0620               	xorwf	setupINTOSC@IRCF,w
  1310     0DA4  1D03               	btfss	3,2
  1311     0DA5  2DA7               	goto	u2491
  1312     0DA6  2DA8               	goto	u2490
  1313     0DA7                     u2491:
  1314     0DA7  2DAC               	goto	l185
  1315     0DA8                     u2490:
  1316     0DA8                     l1859:
  1317                           
  1318                           ;oscilador.c: 12:         OSCCONbits.IRCF = 0b111;
  1319     0DA8  3070               	movlw	112
  1320     0DA9  1683               	bsf	3,5	;RP0=1, select bank1
  1321     0DAA  1303               	bcf	3,6	;RP1=0, select bank1
  1322     0DAB  048F               	iorwf	15,f	;volatile
  1323     0DAC                     l185:	
  1324                           ;oscilador.c: 13:     }
  1325                           
  1326                           
  1327                           ;oscilador.c: 14:     if (IRCF == 6){
  1328     0DAC  3006               	movlw	6
  1329     0DAD  1283               	bcf	3,5	;RP0=0, select bank0
  1330     0DAE  0620               	xorwf	setupINTOSC@IRCF,w
  1331     0DAF  1D03               	btfss	3,2
  1332     0DB0  2DB2               	goto	u2501
  1333     0DB1  2DB3               	goto	u2500
  1334     0DB2                     u2501:
  1335     0DB2  2DB9               	goto	l186
  1336     0DB3                     u2500:
  1337     0DB3                     l1861:
  1338                           
  1339                           ;oscilador.c: 15:         OSCCONbits.IRCF = 0b110;
  1340     0DB3  1683               	bsf	3,5	;RP0=1, select bank1
  1341     0DB4  1303               	bcf	3,6	;RP1=0, select bank1
  1342     0DB5  080F               	movf	15,w	;volatile
  1343     0DB6  398F               	andlw	-113
  1344     0DB7  3860               	iorlw	96
  1345     0DB8  008F               	movwf	15	;volatile
  1346     0DB9                     l186:	
  1347                           ;oscilador.c: 16:     }
  1348                           
  1349                           
  1350                           ;oscilador.c: 17:     if (IRCF == 5){
  1351     0DB9  3005               	movlw	5
  1352     0DBA  1283               	bcf	3,5	;RP0=0, select bank0
  1353     0DBB  0620               	xorwf	setupINTOSC@IRCF,w
  1354     0DBC  1D03               	btfss	3,2
  1355     0DBD  2DBF               	goto	u2511
  1356     0DBE  2DC0               	goto	u2510
  1357     0DBF                     u2511:
  1358     0DBF  2DC6               	goto	l187
  1359     0DC0                     u2510:
  1360     0DC0                     l1863:
  1361                           
  1362                           ;oscilador.c: 18:         OSCCONbits.IRCF = 0b101;
  1363     0DC0  1683               	bsf	3,5	;RP0=1, select bank1
  1364     0DC1  1303               	bcf	3,6	;RP1=0, select bank1
  1365     0DC2  080F               	movf	15,w	;volatile
  1366     0DC3  398F               	andlw	-113
  1367     0DC4  3850               	iorlw	80
  1368     0DC5  008F               	movwf	15	;volatile
  1369     0DC6                     l187:	
  1370                           ;oscilador.c: 19:     }
  1371                           
  1372                           
  1373                           ;oscilador.c: 20:     if (IRCF == 4){
  1374     0DC6  3004               	movlw	4
  1375     0DC7  1283               	bcf	3,5	;RP0=0, select bank0
  1376     0DC8  0620               	xorwf	setupINTOSC@IRCF,w
  1377     0DC9  1D03               	btfss	3,2
  1378     0DCA  2DCC               	goto	u2521
  1379     0DCB  2DCD               	goto	u2520
  1380     0DCC                     u2521:
  1381     0DCC  2DD3               	goto	l188
  1382     0DCD                     u2520:
  1383     0DCD                     l1865:
  1384                           
  1385                           ;oscilador.c: 21:         OSCCONbits.IRCF = 0b100;
  1386     0DCD  1683               	bsf	3,5	;RP0=1, select bank1
  1387     0DCE  1303               	bcf	3,6	;RP1=0, select bank1
  1388     0DCF  080F               	movf	15,w	;volatile
  1389     0DD0  398F               	andlw	-113
  1390     0DD1  3840               	iorlw	64
  1391     0DD2  008F               	movwf	15	;volatile
  1392     0DD3                     l188:	
  1393                           ;oscilador.c: 22:     }
  1394                           
  1395                           
  1396                           ;oscilador.c: 23:     if (IRCF == 3){
  1397     0DD3  3003               	movlw	3
  1398     0DD4  1283               	bcf	3,5	;RP0=0, select bank0
  1399     0DD5  0620               	xorwf	setupINTOSC@IRCF,w
  1400     0DD6  1D03               	btfss	3,2
  1401     0DD7  2DD9               	goto	u2531
  1402     0DD8  2DDA               	goto	u2530
  1403     0DD9                     u2531:
  1404     0DD9  2DE0               	goto	l189
  1405     0DDA                     u2530:
  1406     0DDA                     l1867:
  1407                           
  1408                           ;oscilador.c: 24:         OSCCONbits.IRCF = 0b011;
  1409     0DDA  1683               	bsf	3,5	;RP0=1, select bank1
  1410     0DDB  1303               	bcf	3,6	;RP1=0, select bank1
  1411     0DDC  080F               	movf	15,w	;volatile
  1412     0DDD  398F               	andlw	-113
  1413     0DDE  3830               	iorlw	48
  1414     0DDF  008F               	movwf	15	;volatile
  1415     0DE0                     l189:	
  1416                           ;oscilador.c: 25:     }
  1417                           
  1418                           
  1419                           ;oscilador.c: 26:     if (IRCF == 2){
  1420     0DE0  3002               	movlw	2
  1421     0DE1  1283               	bcf	3,5	;RP0=0, select bank0
  1422     0DE2  0620               	xorwf	setupINTOSC@IRCF,w
  1423     0DE3  1D03               	btfss	3,2
  1424     0DE4  2DE6               	goto	u2541
  1425     0DE5  2DE7               	goto	u2540
  1426     0DE6                     u2541:
  1427     0DE6  2DED               	goto	l190
  1428     0DE7                     u2540:
  1429     0DE7                     l1869:
  1430                           
  1431                           ;oscilador.c: 27:         OSCCONbits.IRCF = 0b010;
  1432     0DE7  1683               	bsf	3,5	;RP0=1, select bank1
  1433     0DE8  1303               	bcf	3,6	;RP1=0, select bank1
  1434     0DE9  080F               	movf	15,w	;volatile
  1435     0DEA  398F               	andlw	-113
  1436     0DEB  3820               	iorlw	32
  1437     0DEC  008F               	movwf	15	;volatile
  1438     0DED                     l190:	
  1439                           ;oscilador.c: 28:     }
  1440                           
  1441                           
  1442                           ;oscilador.c: 29:     if (IRCF == 1){
  1443     0DED  1283               	bcf	3,5	;RP0=0, select bank0
  1444     0DEE  0320               	decf	setupINTOSC@IRCF,w
  1445     0DEF  1D03               	btfss	3,2
  1446     0DF0  2DF2               	goto	u2551
  1447     0DF1  2DF3               	goto	u2550
  1448     0DF2                     u2551:
  1449     0DF2  2DF9               	goto	l191
  1450     0DF3                     u2550:
  1451     0DF3                     l1871:
  1452                           
  1453                           ;oscilador.c: 30:         OSCCONbits.IRCF = 0b001;
  1454     0DF3  1683               	bsf	3,5	;RP0=1, select bank1
  1455     0DF4  1303               	bcf	3,6	;RP1=0, select bank1
  1456     0DF5  080F               	movf	15,w	;volatile
  1457     0DF6  398F               	andlw	-113
  1458     0DF7  3810               	iorlw	16
  1459     0DF8  008F               	movwf	15	;volatile
  1460     0DF9                     l191:	
  1461                           ;oscilador.c: 31:     }
  1462                           
  1463                           
  1464                           ;oscilador.c: 32:     if (IRCF == 0){
  1465     0DF9  1283               	bcf	3,5	;RP0=0, select bank0
  1466     0DFA  0820               	movf	setupINTOSC@IRCF,w
  1467     0DFB  1D03               	btfss	3,2
  1468     0DFC  2DFE               	goto	u2561
  1469     0DFD  2DFF               	goto	u2560
  1470     0DFE                     u2561:
  1471     0DFE  2E03               	goto	l1875
  1472     0DFF                     u2560:
  1473     0DFF                     l1873:
  1474                           
  1475                           ;oscilador.c: 33:         OSCCONbits.IRCF = 0b000;
  1476     0DFF  308F               	movlw	-113
  1477     0E00  1683               	bsf	3,5	;RP0=1, select bank1
  1478     0E01  1303               	bcf	3,6	;RP1=0, select bank1
  1479     0E02  058F               	andwf	15,f	;volatile
  1480     0E03                     l1875:
  1481                           
  1482                           ;oscilador.c: 36:     OSCCONbits.SCS = 1;
  1483     0E03  1683               	bsf	3,5	;RP0=1, select bank1
  1484     0E04  1303               	bcf	3,6	;RP1=0, select bank1
  1485     0E05  140F               	bsf	15,0	;volatile
  1486     0E06                     l193:
  1487     0E06  0008               	return
  1488     0E07                     __end_of_setupINTOSC:
  1489                           
  1490                           	psect	text8
  1491     0CDD                     __ptext8:	
  1492 ;; *************** function _setup *****************
  1493 ;; Defined at:
  1494 ;;		line 134 in file "main.c"
  1495 ;; Parameters:    Size  Location     Type
  1496 ;;		None
  1497 ;; Auto vars:     Size  Location     Type
  1498 ;;		None
  1499 ;; Return value:  Size  Location     Type
  1500 ;;                  1    wreg      void 
  1501 ;; Registers used:
  1502 ;;		status,2
  1503 ;; Tracked objects:
  1504 ;;		On entry : 0/0
  1505 ;;		On exit  : 0/0
  1506 ;;		Unchanged: 0/0
  1507 ;; Data sizes:     COMMON   BANK0   BANK1   BANK3   BANK2
  1508 ;;      Params:         0       0       0       0       0
  1509 ;;      Locals:         0       0       0       0       0
  1510 ;;      Temps:          0       0       0       0       0
  1511 ;;      Totals:         0       0       0       0       0
  1512 ;;Total ram usage:        0 bytes
  1513 ;; Hardware stack levels used: 1
  1514 ;; Hardware stack levels required when called: 1
  1515 ;; This function calls:
  1516 ;;		Nothing
  1517 ;; This function is called by:
  1518 ;;		_main
  1519 ;; This function uses a non-reentrant model
  1520 ;;
  1521                           
  1522     0CDD                     _setup:	
  1523                           ;psect for function _setup
  1524                           
  1525     0CDD                     l1855:	
  1526                           ;incstack = 0
  1527                           ; Regs used in _setup: [status,2]
  1528                           
  1529                           
  1530                           ;main.c: 135:     ANSELH = 0;
  1531     0CDD  1683               	bsf	3,5	;RP0=1, select bank3
  1532     0CDE  1703               	bsf	3,6	;RP1=1, select bank3
  1533     0CDF  0189               	clrf	9	;volatile
  1534                           
  1535                           ;main.c: 136:     TRISB = 0;
  1536     0CE0  1683               	bsf	3,5	;RP0=1, select bank1
  1537     0CE1  1303               	bcf	3,6	;RP1=0, select bank1
  1538     0CE2  0186               	clrf	6	;volatile
  1539                           
  1540                           ;main.c: 137:     TRISC = 0;
  1541     0CE3  0187               	clrf	7	;volatile
  1542                           
  1543                           ;main.c: 138:     TRISD = 0;
  1544     0CE4  0188               	clrf	8	;volatile
  1545                           
  1546                           ;main.c: 139:     PORTC = 0;
  1547     0CE5  1283               	bcf	3,5	;RP0=0, select bank0
  1548     0CE6  1303               	bcf	3,6	;RP1=0, select bank0
  1549     0CE7  0187               	clrf	7	;volatile
  1550                           
  1551                           ;main.c: 140:     PORTD = 0;
  1552     0CE8  0188               	clrf	8	;volatile
  1553     0CE9                     l132:
  1554     0CE9  0008               	return
  1555     0CEA                     __end_of_setup:
  1556                           
  1557                           	psect	text9
  1558     067A                     __ptext9:	
  1559 ;; *************** function _modomanual *****************
  1560 ;; Defined at:
  1561 ;;		line 265 in file "main.c"
  1562 ;; Parameters:    Size  Location     Type
  1563 ;;		None
  1564 ;; Auto vars:     Size  Location     Type
  1565 ;;		None
  1566 ;; Return value:  Size  Location     Type
  1567 ;;                  1    wreg      void 
  1568 ;; Registers used:
  1569 ;;		wreg, status,2, status,0, btemp+1, pclath, cstack
  1570 ;; Tracked objects:
  1571 ;;		On entry : 0/0
  1572 ;;		On exit  : 0/0
  1573 ;;		Unchanged: 0/0
  1574 ;; Data sizes:     COMMON   BANK0   BANK1   BANK3   BANK2
  1575 ;;      Params:         0       0       0       0       0
  1576 ;;      Locals:         0       0       0       0       0
  1577 ;;      Temps:          0       3       0       0       0
  1578 ;;      Totals:         0       3       0       0       0
  1579 ;;Total ram usage:        3 bytes
  1580 ;; Hardware stack levels used: 1
  1581 ;; Hardware stack levels required when called: 4
  1582 ;; This function calls:
  1583 ;;		_PWMtmr0
  1584 ;;		_PWMtmr1
  1585 ;;		_mapeo
  1586 ;; This function is called by:
  1587 ;;		_main
  1588 ;; This function uses a non-reentrant model
  1589 ;;
  1590                           
  1591     067A                     _modomanual:	
  1592                           ;psect for function _modomanual
  1593                           
  1594     067A                     l1927:	
  1595                           ;incstack = 0
  1596                           ; Regs used in _modomanual: [wreg+status,2+status,0+btemp+1+pclath+cstack]
  1597                           
  1598                           
  1599                           ;main.c: 267:     ADCON0bits.CHS = 0b0000;
  1600     067A  30C3               	movlw	-61
  1601     067B  1283               	bcf	3,5	;RP0=0, select bank0
  1602     067C  1303               	bcf	3,6	;RP1=0, select bank0
  1603     067D  059F               	andwf	31,f	;volatile
  1604     067E                     l1929:
  1605                           
  1606                           ;main.c: 268:     _delay((unsigned long)((100)*(1000000/4000000.0)));
  1607     067E  3007               	movlw	7
  1608     067F  1283               	bcf	3,5	;RP0=0, select bank0
  1609     0680  1303               	bcf	3,6	;RP1=0, select bank0
  1610     0681  00EB               	movwf	??_modomanual
  1611     0682                     u2737:
  1612     0682  0BEB               	decfsz	??_modomanual,f
  1613     0683  2E82               	goto	u2737
  1614     0684  0000               	nop
  1615     0685                     l1931:
  1616                           
  1617                           ;main.c: 269:     ADCON0bits.GO = 1;
  1618     0685  1283               	bcf	3,5	;RP0=0, select bank0
  1619     0686  1303               	bcf	3,6	;RP1=0, select bank0
  1620     0687  149F               	bsf	31,1	;volatile
  1621     0688                     l168:	
  1622                           ;main.c: 270:     while (ADCON0bits.GO == 1);
  1623                           
  1624     0688  189F               	btfsc	31,1	;volatile
  1625     0689  2E8B               	goto	u2591
  1626     068A  2E8C               	goto	u2590
  1627     068B                     u2591:
  1628     068B  2E88               	goto	l168
  1629     068C                     u2590:
  1630     068C                     l170:
  1631                           
  1632                           ;main.c: 271:     ADIF = 0;
  1633     068C  130C               	bcf	12,6	;volatile
  1634     068D                     l1933:
  1635                           
  1636                           ;main.c: 273:     mapeo();
  1637     068D  120A  118A  2729  120A  118A  	fcall	_mapeo
  1638     0692                     l1935:
  1639                           
  1640                           ;main.c: 275:     CCP1CONbits.DC1B = vPWMl;
  1641     0692  1683               	bsf	3,5	;RP0=1, select bank1
  1642     0693  1303               	bcf	3,6	;RP1=0, select bank1
  1643     0694  0828               	movf	_vPWMl^(0+128),w
  1644     0695  1283               	bcf	3,5	;RP0=0, select bank0
  1645     0696  1303               	bcf	3,6	;RP1=0, select bank0
  1646     0697  00EB               	movwf	??_modomanual
  1647     0698  0EEB               	swapf	??_modomanual,f
  1648     0699  0817               	movf	23,w	;volatile
  1649     069A  066B               	xorwf	??_modomanual,w
  1650     069B  39CF               	andlw	-49
  1651     069C  066B               	xorwf	??_modomanual,w
  1652     069D  0097               	movwf	23	;volatile
  1653     069E                     l1937:
  1654                           
  1655                           ;main.c: 277:     CCPR1L = vPWMh;
  1656     069E  1683               	bsf	3,5	;RP0=1, select bank1
  1657     069F  1303               	bcf	3,6	;RP1=0, select bank1
  1658     06A0  0826               	movf	_vPWMh^(0+128),w
  1659     06A1  1283               	bcf	3,5	;RP0=0, select bank0
  1660     06A2  1303               	bcf	3,6	;RP1=0, select bank0
  1661     06A3  0095               	movwf	21	;volatile
  1662     06A4                     l1939:
  1663                           
  1664                           ;main.c: 280:     ADCON0bits.CHS = 0b0001;
  1665     06A4  081F               	movf	31,w	;volatile
  1666     06A5  39C3               	andlw	-61
  1667     06A6  3804               	iorlw	4
  1668     06A7  009F               	movwf	31	;volatile
  1669     06A8                     l1941:
  1670                           
  1671                           ;main.c: 281:     _delay((unsigned long)((100)*(1000000/4000000.0)));
  1672     06A8  3007               	movlw	7
  1673     06A9  1283               	bcf	3,5	;RP0=0, select bank0
  1674     06AA  1303               	bcf	3,6	;RP1=0, select bank0
  1675     06AB  00EB               	movwf	??_modomanual
  1676     06AC                     u2747:
  1677     06AC  0BEB               	decfsz	??_modomanual,f
  1678     06AD  2EAC               	goto	u2747
  1679     06AE  0000               	nop
  1680     06AF                     l1943:
  1681                           
  1682                           ;main.c: 282:     ADCON0bits.GO = 1;
  1683     06AF  1283               	bcf	3,5	;RP0=0, select bank0
  1684     06B0  1303               	bcf	3,6	;RP1=0, select bank0
  1685     06B1  149F               	bsf	31,1	;volatile
  1686     06B2                     l171:	
  1687                           ;main.c: 283:     while (ADCON0bits.GO == 1);
  1688                           
  1689     06B2  189F               	btfsc	31,1	;volatile
  1690     06B3  2EB5               	goto	u2601
  1691     06B4  2EB6               	goto	u2600
  1692     06B5                     u2601:
  1693     06B5  2EB2               	goto	l171
  1694     06B6                     u2600:
  1695     06B6                     l173:
  1696                           
  1697                           ;main.c: 284:     ADIF = 0;
  1698     06B6  130C               	bcf	12,6	;volatile
  1699     06B7                     l1945:
  1700                           
  1701                           ;main.c: 286:     mapeo();
  1702     06B7  120A  118A  2729  120A  118A  	fcall	_mapeo
  1703     06BC                     l1947:
  1704                           
  1705                           ;main.c: 288:     CCP2CONbits.DC2B0 = vPWMl & 0x01;
  1706     06BC  1683               	bsf	3,5	;RP0=1, select bank1
  1707     06BD  1303               	bcf	3,6	;RP1=0, select bank1
  1708     06BE  0828               	movf	_vPWMl^(0+128),w
  1709     06BF  3901               	andlw	1
  1710     06C0  1283               	bcf	3,5	;RP0=0, select bank0
  1711     06C1  1303               	bcf	3,6	;RP1=0, select bank0
  1712     06C2  00EB               	movwf	??_modomanual
  1713     06C3  0EEB               	swapf	??_modomanual,f
  1714     06C4  081D               	movf	29,w	;volatile
  1715     06C5  066B               	xorwf	??_modomanual,w
  1716     06C6  39EF               	andlw	-17
  1717     06C7  066B               	xorwf	??_modomanual,w
  1718     06C8  009D               	movwf	29	;volatile
  1719     06C9                     l1949:
  1720                           
  1721                           ;main.c: 289:     CCP2CONbits.DC2B1 = ((vPWMl & 0x02) >> 1);
  1722     06C9  1683               	bsf	3,5	;RP0=1, select bank1
  1723     06CA  1303               	bcf	3,6	;RP1=0, select bank1
  1724     06CB  0829               	movf	(_vPWMl+1)^(0+128),w
  1725     06CC  1283               	bcf	3,5	;RP0=0, select bank0
  1726     06CD  1303               	bcf	3,6	;RP1=0, select bank0
  1727     06CE  00EC               	movwf	??_modomanual+1
  1728     06CF  1683               	bsf	3,5	;RP0=1, select bank1
  1729     06D0  1303               	bcf	3,6	;RP1=0, select bank1
  1730     06D1  0828               	movf	_vPWMl^(0+128),w
  1731     06D2  1283               	bcf	3,5	;RP0=0, select bank0
  1732     06D3  1303               	bcf	3,6	;RP1=0, select bank0
  1733     06D4  00EB               	movwf	??_modomanual
  1734     06D5  1003               	clrc
  1735     06D6  0CEC               	rrf	??_modomanual+1,f
  1736     06D7  0CEB               	rrf	??_modomanual,f
  1737     06D8  086B               	movf	??_modomanual,w
  1738     06D9  3901               	andlw	1
  1739     06DA  00ED               	movwf	??_modomanual+2
  1740     06DB  0EED               	swapf	??_modomanual+2,f
  1741     06DC  0DED               	rlf	??_modomanual+2,f
  1742     06DD  081D               	movf	29,w	;volatile
  1743     06DE  066D               	xorwf	??_modomanual+2,w
  1744     06DF  39DF               	andlw	-33
  1745     06E0  066D               	xorwf	??_modomanual+2,w
  1746     06E1  009D               	movwf	29	;volatile
  1747     06E2                     l1951:
  1748                           
  1749                           ;main.c: 291:     CCPR2L = vPWMh;
  1750     06E2  1683               	bsf	3,5	;RP0=1, select bank1
  1751     06E3  1303               	bcf	3,6	;RP1=0, select bank1
  1752     06E4  0826               	movf	_vPWMh^(0+128),w
  1753     06E5  1283               	bcf	3,5	;RP0=0, select bank0
  1754     06E6  1303               	bcf	3,6	;RP1=0, select bank0
  1755     06E7  009B               	movwf	27	;volatile
  1756     06E8                     l1953:
  1757                           
  1758                           ;main.c: 294:     ADCON0bits.CHS = 0b0010;
  1759     06E8  081F               	movf	31,w	;volatile
  1760     06E9  39C3               	andlw	-61
  1761     06EA  3808               	iorlw	8
  1762     06EB  009F               	movwf	31	;volatile
  1763     06EC                     l1955:
  1764                           
  1765                           ;main.c: 295:     _delay((unsigned long)((100)*(1000000/4000000.0)));
  1766     06EC  3007               	movlw	7
  1767     06ED  1283               	bcf	3,5	;RP0=0, select bank0
  1768     06EE  1303               	bcf	3,6	;RP1=0, select bank0
  1769     06EF  00EB               	movwf	??_modomanual
  1770     06F0                     u2757:
  1771     06F0  0BEB               	decfsz	??_modomanual,f
  1772     06F1  2EF0               	goto	u2757
  1773     06F2  0000               	nop
  1774     06F3                     l1957:
  1775                           
  1776                           ;main.c: 296:     ADCON0bits.GO = 1;
  1777     06F3  1283               	bcf	3,5	;RP0=0, select bank0
  1778     06F4  1303               	bcf	3,6	;RP1=0, select bank0
  1779     06F5  149F               	bsf	31,1	;volatile
  1780     06F6                     l174:	
  1781                           ;main.c: 297:     while (ADCON0bits.GO == 1);
  1782                           
  1783     06F6  189F               	btfsc	31,1	;volatile
  1784     06F7  2EF9               	goto	u2611
  1785     06F8  2EFA               	goto	u2610
  1786     06F9                     u2611:
  1787     06F9  2EF6               	goto	l174
  1788     06FA                     u2610:
  1789     06FA                     l176:
  1790                           
  1791                           ;main.c: 298:     ADIF = 0;
  1792     06FA  130C               	bcf	12,6	;volatile
  1793     06FB                     l1959:
  1794                           
  1795                           ;main.c: 299:     PWMtmr0();
  1796     06FB  120A  158A  2607  120A  118A  	fcall	_PWMtmr0
  1797     0700                     l1961:
  1798                           
  1799                           ;main.c: 300:     _delay((unsigned long)((100)*(1000000/4000000.0)));
  1800     0700  3007               	movlw	7
  1801     0701  1283               	bcf	3,5	;RP0=0, select bank0
  1802     0702  1303               	bcf	3,6	;RP1=0, select bank0
  1803     0703  00EB               	movwf	??_modomanual
  1804     0704                     u2767:
  1805     0704  0BEB               	decfsz	??_modomanual,f
  1806     0705  2F04               	goto	u2767
  1807     0706  0000               	nop
  1808     0707                     l1963:
  1809                           
  1810                           ;main.c: 303:     ADCON0bits.CHS = 0b0011;
  1811     0707  1283               	bcf	3,5	;RP0=0, select bank0
  1812     0708  1303               	bcf	3,6	;RP1=0, select bank0
  1813     0709  081F               	movf	31,w	;volatile
  1814     070A  39C3               	andlw	-61
  1815     070B  380C               	iorlw	12
  1816     070C  009F               	movwf	31	;volatile
  1817     070D                     l1965:
  1818                           
  1819                           ;main.c: 304:     _delay((unsigned long)((100)*(1000000/4000000.0)));
  1820     070D  3007               	movlw	7
  1821     070E  1283               	bcf	3,5	;RP0=0, select bank0
  1822     070F  1303               	bcf	3,6	;RP1=0, select bank0
  1823     0710  00EB               	movwf	??_modomanual
  1824     0711                     u2777:
  1825     0711  0BEB               	decfsz	??_modomanual,f
  1826     0712  2F11               	goto	u2777
  1827     0713  0000               	nop
  1828     0714                     l1967:
  1829                           
  1830                           ;main.c: 305:     ADCON0bits.GO = 1;
  1831     0714  1283               	bcf	3,5	;RP0=0, select bank0
  1832     0715  1303               	bcf	3,6	;RP1=0, select bank0
  1833     0716  149F               	bsf	31,1	;volatile
  1834     0717                     l177:	
  1835                           ;main.c: 306:     while (ADCON0bits.GO == 1);
  1836                           
  1837     0717  189F               	btfsc	31,1	;volatile
  1838     0718  2F1A               	goto	u2621
  1839     0719  2F1B               	goto	u2620
  1840     071A                     u2621:
  1841     071A  2F17               	goto	l177
  1842     071B                     u2620:
  1843     071B                     l179:
  1844                           
  1845                           ;main.c: 307:     ADIF = 0;
  1846     071B  130C               	bcf	12,6	;volatile
  1847     071C                     l1969:
  1848                           
  1849                           ;main.c: 308:     PWMtmr1();
  1850     071C  120A  158A  26F6  120A  118A  	fcall	_PWMtmr1
  1851     0721                     l1971:
  1852                           
  1853                           ;main.c: 309:     _delay((unsigned long)((100)*(1000000/4000000.0)));
  1854     0721  3007               	movlw	7
  1855     0722  1283               	bcf	3,5	;RP0=0, select bank0
  1856     0723  1303               	bcf	3,6	;RP1=0, select bank0
  1857     0724  00EB               	movwf	??_modomanual
  1858     0725                     u2787:
  1859     0725  0BEB               	decfsz	??_modomanual,f
  1860     0726  2F25               	goto	u2787
  1861     0727  0000               	nop
  1862     0728                     l180:
  1863     0728  0008               	return
  1864     0729                     __end_of_modomanual:
  1865                           
  1866                           	psect	text10
  1867     0729                     __ptext10:	
  1868 ;; *************** function _mapeo *****************
  1869 ;; Defined at:
  1870 ;;		line 251 in file "main.c"
  1871 ;; Parameters:    Size  Location     Type
  1872 ;;		None
  1873 ;; Auto vars:     Size  Location     Type
  1874 ;;		None
  1875 ;; Return value:  Size  Location     Type
  1876 ;;                  1    wreg      void 
  1877 ;; Registers used:
  1878 ;;		wreg, status,2, status,0, btemp+1, pclath, cstack
  1879 ;; Tracked objects:
  1880 ;;		On entry : 0/0
  1881 ;;		On exit  : 0/0
  1882 ;;		Unchanged: 0/0
  1883 ;; Data sizes:     COMMON   BANK0   BANK1   BANK3   BANK2
  1884 ;;      Params:         0       0       0       0       0
  1885 ;;      Locals:         0       0       0       0       0
  1886 ;;      Temps:          0       5       0       0       0
  1887 ;;      Totals:         0       5       0       0       0
  1888 ;;Total ram usage:        5 bytes
  1889 ;; Hardware stack levels used: 1
  1890 ;; Hardware stack levels required when called: 3
  1891 ;; This function calls:
  1892 ;;		___fladd
  1893 ;;		___flmul
  1894 ;;		___fltol
  1895 ;;		___xxtofl
  1896 ;; This function is called by:
  1897 ;;		_modomanual
  1898 ;; This function uses a non-reentrant model
  1899 ;;
  1900                           
  1901     0729                     _mapeo:	
  1902                           ;psect for function _mapeo
  1903                           
  1904     0729                     l1847:	
  1905                           ;incstack = 0
  1906                           ; Regs used in _mapeo: [wreg+status,2+status,0+btemp+1+pclath+cstack]
  1907                           
  1908                           
  1909                           ;main.c: 253:     valADC = ((ADRESH << 2) + (ADRESL >> 6));
  1910     0729  1683               	bsf	3,5	;RP0=1, select bank1
  1911     072A  1303               	bcf	3,6	;RP1=0, select bank1
  1912     072B  081E               	movf	30,w	;volatile
  1913     072C  1283               	bcf	3,5	;RP0=0, select bank0
  1914     072D  1303               	bcf	3,6	;RP1=0, select bank0
  1915     072E  00E6               	movwf	??_mapeo
  1916     072F  3006               	movlw	6
  1917     0730                     u2485:
  1918     0730  1003               	clrc
  1919     0731  0CE6               	rrf	??_mapeo,f
  1920     0732  3EFF               	addlw	-1
  1921     0733  1D03               	skipz
  1922     0734  2F30               	goto	u2485
  1923     0735  081E               	movf	30,w	;volatile
  1924     0736  00E7               	movwf	??_mapeo+1
  1925     0737  01E8               	clrf	??_mapeo+2
  1926     0738  1003               	clrc
  1927     0739  0DE7               	rlf	??_mapeo+1,f
  1928     073A  0DE8               	rlf	??_mapeo+2,f
  1929     073B  1003               	clrc
  1930     073C  0DE7               	rlf	??_mapeo+1,f
  1931     073D  0DE8               	rlf	??_mapeo+2,f
  1932     073E  0866               	movf	??_mapeo,w
  1933     073F  0767               	addwf	??_mapeo+1,w
  1934     0740  00E9               	movwf	??_mapeo+3
  1935     0741  3000               	movlw	0
  1936     0742  1803               	skipnc
  1937     0743  3001               	movlw	1
  1938     0744  0768               	addwf	??_mapeo+2,w
  1939     0745  00EA               	movwf	??_mapeo+4
  1940     0746  0869               	movf	??_mapeo+3,w
  1941     0747  00FB               	movwf	_valADC
  1942     0748  086A               	movf	??_mapeo+4,w
  1943     0749  00FC               	movwf	_valADC+1
  1944     074A                     l1849:
  1945                           
  1946                           ;main.c: 255:     vPWM = (0.061*valADC + 63);
  1947     074A  087B               	movf	_valADC,w
  1948     074B  00A0               	movwf	___xxtofl@val
  1949     074C  087C               	movf	_valADC+1,w
  1950     074D  00A1               	movwf	___xxtofl@val+1
  1951     074E  01A2               	clrf	___xxtofl@val+2
  1952     074F  01A3               	clrf	___xxtofl@val+3
  1953     0750  3000               	movlw	0
  1954     0751  120A  118A  25C0  120A  118A  	fcall	___xxtofl
  1955     0756  1283               	bcf	3,5	;RP0=0, select bank0
  1956     0757  1303               	bcf	3,6	;RP1=0, select bank0
  1957     0758  0823               	movf	?___xxtofl+3,w
  1958     0759  00B5               	movwf	___flmul@a+3
  1959     075A  0822               	movf	?___xxtofl+2,w
  1960     075B  00B4               	movwf	___flmul@a+2
  1961     075C  0821               	movf	?___xxtofl+1,w
  1962     075D  00B3               	movwf	___flmul@a+1
  1963     075E  0820               	movf	?___xxtofl,w
  1964     075F  00B2               	movwf	___flmul@a
  1965     0760  303D               	movlw	61
  1966     0761  00B1               	movwf	___flmul@b+3
  1967     0762  3079               	movlw	121
  1968     0763  00B0               	movwf	___flmul@b+2
  1969     0764  30DB               	movlw	219
  1970     0765  00AF               	movwf	___flmul@b+1
  1971     0766  3023               	movlw	35
  1972     0767  00AE               	movwf	___flmul@b
  1973     0768  120A  118A  2023  120A  118A  	fcall	___flmul
  1974     076D  1283               	bcf	3,5	;RP0=0, select bank0
  1975     076E  1303               	bcf	3,6	;RP1=0, select bank0
  1976     076F  0831               	movf	?___flmul+3,w
  1977     0770  00CF               	movwf	___fladd@a+3
  1978     0771  0830               	movf	?___flmul+2,w
  1979     0772  00CE               	movwf	___fladd@a+2
  1980     0773  082F               	movf	?___flmul+1,w
  1981     0774  00CD               	movwf	___fladd@a+1
  1982     0775  082E               	movf	?___flmul,w
  1983     0776  00CC               	movwf	___fladd@a
  1984     0777  3042               	movlw	66
  1985     0778  00CB               	movwf	___fladd@b+3
  1986     0779  307C               	movlw	124
  1987     077A  00CA               	movwf	___fladd@b+2
  1988     077B  3000               	movlw	0
  1989     077C  00C9               	movwf	___fladd@b+1
  1990     077D  3000               	movlw	0
  1991     077E  00C8               	movwf	___fladd@b
  1992     077F  120A  118A  2368  120A  118A  	fcall	___fladd
  1993     0784  1283               	bcf	3,5	;RP0=0, select bank0
  1994     0785  1303               	bcf	3,6	;RP1=0, select bank0
  1995     0786  084B               	movf	?___fladd+3,w
  1996     0787  00DF               	movwf	___fltol@f1+3
  1997     0788  084A               	movf	?___fladd+2,w
  1998     0789  00DE               	movwf	___fltol@f1+2
  1999     078A  0849               	movf	?___fladd+1,w
  2000     078B  00DD               	movwf	___fltol@f1+1
  2001     078C  0848               	movf	?___fladd,w
  2002     078D  00DC               	movwf	___fltol@f1
  2003     078E  120A  158A  267E  120A  118A  	fcall	___fltol
  2004     0793  1283               	bcf	3,5	;RP0=0, select bank0
  2005     0794  1303               	bcf	3,6	;RP1=0, select bank0
  2006     0795  085D               	movf	?___fltol+1,w
  2007     0796  1683               	bsf	3,5	;RP0=1, select bank1
  2008     0797  1303               	bcf	3,6	;RP1=0, select bank1
  2009     0798  00AB               	movwf	(_vPWM+1)^(0+128)
  2010     0799  1283               	bcf	3,5	;RP0=0, select bank0
  2011     079A  1303               	bcf	3,6	;RP1=0, select bank0
  2012     079B  085C               	movf	?___fltol,w
  2013     079C  1683               	bsf	3,5	;RP0=1, select bank1
  2014     079D  1303               	bcf	3,6	;RP1=0, select bank1
  2015     079E  00AA               	movwf	_vPWM^(0+128)
  2016     079F                     l1851:
  2017                           
  2018                           ;main.c: 257:     vPWMl = vPWM & 0x003;
  2019     079F  3003               	movlw	3
  2020     07A0  052A               	andwf	_vPWM^(0+128),w
  2021     07A1  00A8               	movwf	_vPWMl^(0+128)
  2022     07A2  3000               	movlw	0
  2023     07A3  052B               	andwf	(_vPWM+1)^(0+128),w
  2024     07A4  00A9               	movwf	(_vPWMl+1)^(0+128)
  2025     07A5                     l1853:
  2026                           
  2027                           ;main.c: 259:     vPWMh = (vPWM & 0x3FC) >> 2;
  2028     07A5  082B               	movf	(_vPWM+1)^(0+128),w
  2029     07A6  1283               	bcf	3,5	;RP0=0, select bank0
  2030     07A7  1303               	bcf	3,6	;RP1=0, select bank0
  2031     07A8  00E7               	movwf	??_mapeo+1
  2032     07A9  1683               	bsf	3,5	;RP0=1, select bank1
  2033     07AA  1303               	bcf	3,6	;RP1=0, select bank1
  2034     07AB  082A               	movf	_vPWM^(0+128),w
  2035     07AC  1283               	bcf	3,5	;RP0=0, select bank0
  2036     07AD  1303               	bcf	3,6	;RP1=0, select bank0
  2037     07AE  00E6               	movwf	??_mapeo
  2038     07AF  1003               	clrc
  2039     07B0  0CE7               	rrf	??_mapeo+1,f
  2040     07B1  0CE6               	rrf	??_mapeo,f
  2041     07B2  1003               	clrc
  2042     07B3  0CE7               	rrf	??_mapeo+1,f
  2043     07B4  0CE6               	rrf	??_mapeo,f
  2044     07B5  30FF               	movlw	255
  2045     07B6  0566               	andwf	??_mapeo,w
  2046     07B7  1683               	bsf	3,5	;RP0=1, select bank1
  2047     07B8  1303               	bcf	3,6	;RP1=0, select bank1
  2048     07B9  00A6               	movwf	_vPWMh^(0+128)
  2049     07BA  3000               	movlw	0
  2050     07BB  1283               	bcf	3,5	;RP0=0, select bank0
  2051     07BC  1303               	bcf	3,6	;RP1=0, select bank0
  2052     07BD  0567               	andwf	??_mapeo+1,w
  2053     07BE  1683               	bsf	3,5	;RP0=1, select bank1
  2054     07BF  1303               	bcf	3,6	;RP1=0, select bank1
  2055     07C0  00A7               	movwf	(_vPWMh+1)^(0+128)
  2056     07C1                     l165:
  2057     07C1  0008               	return
  2058     07C2                     __end_of_mapeo:
  2059                           
  2060                           	psect	text11
  2061     0EF6                     __ptext11:	
  2062 ;; *************** function _PWMtmr1 *****************
  2063 ;; Defined at:
  2064 ;;		line 243 in file "main.c"
  2065 ;; Parameters:    Size  Location     Type
  2066 ;;		None
  2067 ;; Auto vars:     Size  Location     Type
  2068 ;;		None
  2069 ;; Return value:  Size  Location     Type
  2070 ;;                  1    wreg      void 
  2071 ;; Registers used:
  2072 ;;		wreg, status,2, status,0, btemp+1, pclath, cstack
  2073 ;; Tracked objects:
  2074 ;;		On entry : 0/0
  2075 ;;		On exit  : 0/0
  2076 ;;		Unchanged: 0/0
  2077 ;; Data sizes:     COMMON   BANK0   BANK1   BANK3   BANK2
  2078 ;;      Params:         0       0       0       0       0
  2079 ;;      Locals:         0       0       0       0       0
  2080 ;;      Temps:          0       5       0       0       0
  2081 ;;      Totals:         0       5       0       0       0
  2082 ;;Total ram usage:        5 bytes
  2083 ;; Hardware stack levels used: 1
  2084 ;; Hardware stack levels required when called: 3
  2085 ;; This function calls:
  2086 ;;		___fladd
  2087 ;;		___flmul
  2088 ;;		___fltol
  2089 ;;		___xxtofl
  2090 ;; This function is called by:
  2091 ;;		_modomanual
  2092 ;; This function uses a non-reentrant model
  2093 ;;
  2094                           
  2095     0EF6                     _PWMtmr1:	
  2096                           ;psect for function _PWMtmr1
  2097                           
  2098     0EF6                     l1841:	
  2099                           ;incstack = 0
  2100                           ; Regs used in _PWMtmr1: [wreg+status,2+status,0+btemp+1+pclath+cstack]
  2101                           
  2102                           
  2103                           ;main.c: 244:     valADC = ((ADRESH << 2) + (ADRESL >> 6));
  2104     0EF6  1683               	bsf	3,5	;RP0=1, select bank1
  2105     0EF7  1303               	bcf	3,6	;RP1=0, select bank1
  2106     0EF8  081E               	movf	30,w	;volatile
  2107     0EF9  1283               	bcf	3,5	;RP0=0, select bank0
  2108     0EFA  1303               	bcf	3,6	;RP1=0, select bank0
  2109     0EFB  00E6               	movwf	??_PWMtmr1
  2110     0EFC  3006               	movlw	6
  2111     0EFD                     u2475:
  2112     0EFD  1003               	clrc
  2113     0EFE  0CE6               	rrf	??_PWMtmr1,f
  2114     0EFF  3EFF               	addlw	-1
  2115     0F00  1D03               	skipz
  2116     0F01  2EFD               	goto	u2475
  2117     0F02  081E               	movf	30,w	;volatile
  2118     0F03  00E7               	movwf	??_PWMtmr1+1
  2119     0F04  01E8               	clrf	??_PWMtmr1+2
  2120     0F05  1003               	clrc
  2121     0F06  0DE7               	rlf	??_PWMtmr1+1,f
  2122     0F07  0DE8               	rlf	??_PWMtmr1+2,f
  2123     0F08  1003               	clrc
  2124     0F09  0DE7               	rlf	??_PWMtmr1+1,f
  2125     0F0A  0DE8               	rlf	??_PWMtmr1+2,f
  2126     0F0B  0866               	movf	??_PWMtmr1,w
  2127     0F0C  0767               	addwf	??_PWMtmr1+1,w
  2128     0F0D  00E9               	movwf	??_PWMtmr1+3
  2129     0F0E  3000               	movlw	0
  2130     0F0F  1803               	skipnc
  2131     0F10  3001               	movlw	1
  2132     0F11  0768               	addwf	??_PWMtmr1+2,w
  2133     0F12  00EA               	movwf	??_PWMtmr1+4
  2134     0F13  0869               	movf	??_PWMtmr1+3,w
  2135     0F14  00FB               	movwf	_valADC
  2136     0F15  086A               	movf	??_PWMtmr1+4,w
  2137     0F16  00FC               	movwf	_valADC+1
  2138     0F17                     l1843:
  2139                           
  2140                           ;main.c: 245:     HIGHpulse1 = (0.37*valADC + 65036);
  2141     0F17  087B               	movf	_valADC,w
  2142     0F18  00A0               	movwf	___xxtofl@val
  2143     0F19  087C               	movf	_valADC+1,w
  2144     0F1A  00A1               	movwf	___xxtofl@val+1
  2145     0F1B  01A2               	clrf	___xxtofl@val+2
  2146     0F1C  01A3               	clrf	___xxtofl@val+3
  2147     0F1D  3000               	movlw	0
  2148     0F1E  120A  118A  25C0  120A  158A  	fcall	___xxtofl
  2149     0F23  1283               	bcf	3,5	;RP0=0, select bank0
  2150     0F24  1303               	bcf	3,6	;RP1=0, select bank0
  2151     0F25  0823               	movf	?___xxtofl+3,w
  2152     0F26  00B5               	movwf	___flmul@a+3
  2153     0F27  0822               	movf	?___xxtofl+2,w
  2154     0F28  00B4               	movwf	___flmul@a+2
  2155     0F29  0821               	movf	?___xxtofl+1,w
  2156     0F2A  00B3               	movwf	___flmul@a+1
  2157     0F2B  0820               	movf	?___xxtofl,w
  2158     0F2C  00B2               	movwf	___flmul@a
  2159     0F2D  303E               	movlw	62
  2160     0F2E  00B1               	movwf	___flmul@b+3
  2161     0F2F  30BD               	movlw	189
  2162     0F30  00B0               	movwf	___flmul@b+2
  2163     0F31  3070               	movlw	112
  2164     0F32  00AF               	movwf	___flmul@b+1
  2165     0F33  30A4               	movlw	164
  2166     0F34  00AE               	movwf	___flmul@b
  2167     0F35  120A  118A  2023  120A  158A  	fcall	___flmul
  2168     0F3A  1283               	bcf	3,5	;RP0=0, select bank0
  2169     0F3B  1303               	bcf	3,6	;RP1=0, select bank0
  2170     0F3C  0831               	movf	?___flmul+3,w
  2171     0F3D  00CF               	movwf	___fladd@a+3
  2172     0F3E  0830               	movf	?___flmul+2,w
  2173     0F3F  00CE               	movwf	___fladd@a+2
  2174     0F40  082F               	movf	?___flmul+1,w
  2175     0F41  00CD               	movwf	___fladd@a+1
  2176     0F42  082E               	movf	?___flmul,w
  2177     0F43  00CC               	movwf	___fladd@a
  2178     0F44  3047               	movlw	71
  2179     0F45  00CB               	movwf	___fladd@b+3
  2180     0F46  307E               	movlw	126
  2181     0F47  00CA               	movwf	___fladd@b+2
  2182     0F48  300C               	movlw	12
  2183     0F49  00C9               	movwf	___fladd@b+1
  2184     0F4A  3000               	movlw	0
  2185     0F4B  00C8               	movwf	___fladd@b
  2186     0F4C  120A  118A  2368  120A  158A  	fcall	___fladd
  2187     0F51  1283               	bcf	3,5	;RP0=0, select bank0
  2188     0F52  1303               	bcf	3,6	;RP1=0, select bank0
  2189     0F53  084B               	movf	?___fladd+3,w
  2190     0F54  00DF               	movwf	___fltol@f1+3
  2191     0F55  084A               	movf	?___fladd+2,w
  2192     0F56  00DE               	movwf	___fltol@f1+2
  2193     0F57  0849               	movf	?___fladd+1,w
  2194     0F58  00DD               	movwf	___fltol@f1+1
  2195     0F59  0848               	movf	?___fladd,w
  2196     0F5A  00DC               	movwf	___fltol@f1
  2197     0F5B  120A  158A  267E  120A  158A  	fcall	___fltol
  2198     0F60  1283               	bcf	3,5	;RP0=0, select bank0
  2199     0F61  1303               	bcf	3,6	;RP1=0, select bank0
  2200     0F62  085D               	movf	?___fltol+1,w
  2201     0F63  1683               	bsf	3,5	;RP0=1, select bank1
  2202     0F64  1303               	bcf	3,6	;RP1=0, select bank1
  2203     0F65  00A3               	movwf	(_HIGHpulse1+1)^(0+128)
  2204     0F66  1283               	bcf	3,5	;RP0=0, select bank0
  2205     0F67  1303               	bcf	3,6	;RP1=0, select bank0
  2206     0F68  085C               	movf	?___fltol,w
  2207     0F69  1683               	bsf	3,5	;RP0=1, select bank1
  2208     0F6A  1303               	bcf	3,6	;RP1=0, select bank1
  2209     0F6B  00A2               	movwf	_HIGHpulse1^(0+128)
  2210     0F6C                     l1845:
  2211                           
  2212                           ;main.c: 246:     PORTD = valADC;
  2213     0F6C  087B               	movf	_valADC,w
  2214     0F6D  1283               	bcf	3,5	;RP0=0, select bank0
  2215     0F6E  1303               	bcf	3,6	;RP1=0, select bank0
  2216     0F6F  0088               	movwf	8	;volatile
  2217     0F70                     l162:
  2218     0F70  0008               	return
  2219     0F71                     __end_of_PWMtmr1:
  2220                           
  2221                           	psect	text12
  2222     0E07                     __ptext12:	
  2223 ;; *************** function _PWMtmr0 *****************
  2224 ;; Defined at:
  2225 ;;		line 236 in file "main.c"
  2226 ;; Parameters:    Size  Location     Type
  2227 ;;		None
  2228 ;; Auto vars:     Size  Location     Type
  2229 ;;		None
  2230 ;; Return value:  Size  Location     Type
  2231 ;;                  1    wreg      void 
  2232 ;; Registers used:
  2233 ;;		wreg, status,2, status,0, btemp+1, pclath, cstack
  2234 ;; Tracked objects:
  2235 ;;		On entry : 0/0
  2236 ;;		On exit  : 0/0
  2237 ;;		Unchanged: 0/0
  2238 ;; Data sizes:     COMMON   BANK0   BANK1   BANK3   BANK2
  2239 ;;      Params:         0       0       0       0       0
  2240 ;;      Locals:         0       0       0       0       0
  2241 ;;      Temps:          0       5       0       0       0
  2242 ;;      Totals:         0       5       0       0       0
  2243 ;;Total ram usage:        5 bytes
  2244 ;; Hardware stack levels used: 1
  2245 ;; Hardware stack levels required when called: 3
  2246 ;; This function calls:
  2247 ;;		___fladd
  2248 ;;		___flmul
  2249 ;;		___fltol
  2250 ;;		___xxtofl
  2251 ;; This function is called by:
  2252 ;;		_modomanual
  2253 ;; This function uses a non-reentrant model
  2254 ;;
  2255                           
  2256     0E07                     _PWMtmr0:	
  2257                           ;psect for function _PWMtmr0
  2258                           
  2259     0E07                     l1837:	
  2260                           ;incstack = 0
  2261                           ; Regs used in _PWMtmr0: [wreg+status,2+status,0+btemp+1+pclath+cstack]
  2262                           
  2263                           
  2264                           ;main.c: 237:     valADC = ((ADRESH << 2) + (ADRESL >> 6));
  2265     0E07  1683               	bsf	3,5	;RP0=1, select bank1
  2266     0E08  1303               	bcf	3,6	;RP1=0, select bank1
  2267     0E09  081E               	movf	30,w	;volatile
  2268     0E0A  1283               	bcf	3,5	;RP0=0, select bank0
  2269     0E0B  1303               	bcf	3,6	;RP1=0, select bank0
  2270     0E0C  00E6               	movwf	??_PWMtmr0
  2271     0E0D  3006               	movlw	6
  2272     0E0E                     u2465:
  2273     0E0E  1003               	clrc
  2274     0E0F  0CE6               	rrf	??_PWMtmr0,f
  2275     0E10  3EFF               	addlw	-1
  2276     0E11  1D03               	skipz
  2277     0E12  2E0E               	goto	u2465
  2278     0E13  081E               	movf	30,w	;volatile
  2279     0E14  00E7               	movwf	??_PWMtmr0+1
  2280     0E15  01E8               	clrf	??_PWMtmr0+2
  2281     0E16  1003               	clrc
  2282     0E17  0DE7               	rlf	??_PWMtmr0+1,f
  2283     0E18  0DE8               	rlf	??_PWMtmr0+2,f
  2284     0E19  1003               	clrc
  2285     0E1A  0DE7               	rlf	??_PWMtmr0+1,f
  2286     0E1B  0DE8               	rlf	??_PWMtmr0+2,f
  2287     0E1C  0866               	movf	??_PWMtmr0,w
  2288     0E1D  0767               	addwf	??_PWMtmr0+1,w
  2289     0E1E  00E9               	movwf	??_PWMtmr0+3
  2290     0E1F  3000               	movlw	0
  2291     0E20  1803               	skipnc
  2292     0E21  3001               	movlw	1
  2293     0E22  0768               	addwf	??_PWMtmr0+2,w
  2294     0E23  00EA               	movwf	??_PWMtmr0+4
  2295     0E24  0869               	movf	??_PWMtmr0+3,w
  2296     0E25  00FB               	movwf	_valADC
  2297     0E26  086A               	movf	??_PWMtmr0+4,w
  2298     0E27  00FC               	movwf	_valADC+1
  2299     0E28                     l1839:
  2300                           
  2301                           ;main.c: 238:     HIGHpulse = (0.017*valADC + 226);
  2302     0E28  087B               	movf	_valADC,w
  2303     0E29  00A0               	movwf	___xxtofl@val
  2304     0E2A  087C               	movf	_valADC+1,w
  2305     0E2B  00A1               	movwf	___xxtofl@val+1
  2306     0E2C  01A2               	clrf	___xxtofl@val+2
  2307     0E2D  01A3               	clrf	___xxtofl@val+3
  2308     0E2E  3000               	movlw	0
  2309     0E2F  120A  118A  25C0  120A  158A  	fcall	___xxtofl
  2310     0E34  1283               	bcf	3,5	;RP0=0, select bank0
  2311     0E35  1303               	bcf	3,6	;RP1=0, select bank0
  2312     0E36  0823               	movf	?___xxtofl+3,w
  2313     0E37  00B5               	movwf	___flmul@a+3
  2314     0E38  0822               	movf	?___xxtofl+2,w
  2315     0E39  00B4               	movwf	___flmul@a+2
  2316     0E3A  0821               	movf	?___xxtofl+1,w
  2317     0E3B  00B3               	movwf	___flmul@a+1
  2318     0E3C  0820               	movf	?___xxtofl,w
  2319     0E3D  00B2               	movwf	___flmul@a
  2320     0E3E  303C               	movlw	60
  2321     0E3F  00B1               	movwf	___flmul@b+3
  2322     0E40  308B               	movlw	139
  2323     0E41  00B0               	movwf	___flmul@b+2
  2324     0E42  3043               	movlw	67
  2325     0E43  00AF               	movwf	___flmul@b+1
  2326     0E44  3096               	movlw	150
  2327     0E45  00AE               	movwf	___flmul@b
  2328     0E46  120A  118A  2023  120A  158A  	fcall	___flmul
  2329     0E4B  1283               	bcf	3,5	;RP0=0, select bank0
  2330     0E4C  1303               	bcf	3,6	;RP1=0, select bank0
  2331     0E4D  0831               	movf	?___flmul+3,w
  2332     0E4E  00CF               	movwf	___fladd@a+3
  2333     0E4F  0830               	movf	?___flmul+2,w
  2334     0E50  00CE               	movwf	___fladd@a+2
  2335     0E51  082F               	movf	?___flmul+1,w
  2336     0E52  00CD               	movwf	___fladd@a+1
  2337     0E53  082E               	movf	?___flmul,w
  2338     0E54  00CC               	movwf	___fladd@a
  2339     0E55  3043               	movlw	67
  2340     0E56  00CB               	movwf	___fladd@b+3
  2341     0E57  3062               	movlw	98
  2342     0E58  00CA               	movwf	___fladd@b+2
  2343     0E59  3000               	movlw	0
  2344     0E5A  00C9               	movwf	___fladd@b+1
  2345     0E5B  3000               	movlw	0
  2346     0E5C  00C8               	movwf	___fladd@b
  2347     0E5D  120A  118A  2368  120A  158A  	fcall	___fladd
  2348     0E62  1283               	bcf	3,5	;RP0=0, select bank0
  2349     0E63  1303               	bcf	3,6	;RP1=0, select bank0
  2350     0E64  084B               	movf	?___fladd+3,w
  2351     0E65  00DF               	movwf	___fltol@f1+3
  2352     0E66  084A               	movf	?___fladd+2,w
  2353     0E67  00DE               	movwf	___fltol@f1+2
  2354     0E68  0849               	movf	?___fladd+1,w
  2355     0E69  00DD               	movwf	___fltol@f1+1
  2356     0E6A  0848               	movf	?___fladd,w
  2357     0E6B  00DC               	movwf	___fltol@f1
  2358     0E6C  120A  158A  267E  120A  158A  	fcall	___fltol
  2359     0E71  1283               	bcf	3,5	;RP0=0, select bank0
  2360     0E72  1303               	bcf	3,6	;RP1=0, select bank0
  2361     0E73  085D               	movf	?___fltol+1,w
  2362     0E74  1683               	bsf	3,5	;RP0=1, select bank1
  2363     0E75  1303               	bcf	3,6	;RP1=0, select bank1
  2364     0E76  00A5               	movwf	(_HIGHpulse+1)^(0+128)
  2365     0E77  1283               	bcf	3,5	;RP0=0, select bank0
  2366     0E78  1303               	bcf	3,6	;RP1=0, select bank0
  2367     0E79  085C               	movf	?___fltol,w
  2368     0E7A  1683               	bsf	3,5	;RP0=1, select bank1
  2369     0E7B  1303               	bcf	3,6	;RP1=0, select bank1
  2370     0E7C  00A4               	movwf	_HIGHpulse^(0+128)
  2371     0E7D                     l159:
  2372     0E7D  0008               	return
  2373     0E7E                     __end_of_PWMtmr0:
  2374                           
  2375                           	psect	text13
  2376     05C0                     __ptext13:	
  2377 ;; *************** function ___xxtofl *****************
  2378 ;; Defined at:
  2379 ;;		line 10 in file "C:\Program Files\Microchip\xc8\v2.40\pic\sources\c90\common\xxtofl.c"
  2380 ;; Parameters:    Size  Location     Type
  2381 ;;  sign            1    wreg     unsigned char 
  2382 ;;  val             4    0[BANK0 ] long 
  2383 ;; Auto vars:     Size  Location     Type
  2384 ;;  sign            1    8[BANK0 ] unsigned char 
  2385 ;;  arg             4   10[BANK0 ] unsigned long 
  2386 ;;  exp             1    9[BANK0 ] unsigned char 
  2387 ;; Return value:  Size  Location     Type
  2388 ;;                  4    0[BANK0 ] unsigned char 
  2389 ;; Registers used:
  2390 ;;		wreg, status,2, status,0
  2391 ;; Tracked objects:
  2392 ;;		On entry : 0/0
  2393 ;;		On exit  : 0/0
  2394 ;;		Unchanged: 0/0
  2395 ;; Data sizes:     COMMON   BANK0   BANK1   BANK3   BANK2
  2396 ;;      Params:         0       4       0       0       0
  2397 ;;      Locals:         0       6       0       0       0
  2398 ;;      Temps:          0       4       0       0       0
  2399 ;;      Totals:         0      14       0       0       0
  2400 ;;Total ram usage:       14 bytes
  2401 ;; Hardware stack levels used: 1
  2402 ;; Hardware stack levels required when called: 1
  2403 ;; This function calls:
  2404 ;;		Nothing
  2405 ;; This function is called by:
  2406 ;;		_PWMtmr0
  2407 ;;		_PWMtmr1
  2408 ;;		_mapeo
  2409 ;; This function uses a non-reentrant model
  2410 ;;
  2411                           
  2412     05C0                     ___xxtofl:	
  2413                           ;psect for function ___xxtofl
  2414                           
  2415                           
  2416                           ;incstack = 0
  2417                           ; Regs used in ___xxtofl: [wreg+status,2+status,0]
  2418                           ;___xxtofl@sign stored from wreg
  2419     05C0  1283               	bcf	3,5	;RP0=0, select bank0
  2420     05C1  1303               	bcf	3,6	;RP1=0, select bank0
  2421     05C2  00A8               	movwf	___xxtofl@sign
  2422     05C3                     l1793:
  2423     05C3  0828               	movf	___xxtofl@sign,w
  2424     05C4  1903               	btfsc	3,2
  2425     05C5  2DC7               	goto	u2321
  2426     05C6  2DC8               	goto	u2320
  2427     05C7                     u2321:
  2428     05C7  2DDC               	goto	l1799
  2429     05C8                     u2320:
  2430     05C8                     l1795:
  2431     05C8  1FA3               	btfss	___xxtofl@val+3,7
  2432     05C9  2DCB               	goto	u2331
  2433     05CA  2DCC               	goto	u2330
  2434     05CB                     u2331:
  2435     05CB  2DDC               	goto	l1799
  2436     05CC                     u2330:
  2437     05CC                     l1797:
  2438     05CC  0920               	comf	___xxtofl@val,w
  2439     05CD  00AA               	movwf	___xxtofl@arg
  2440     05CE  0921               	comf	___xxtofl@val+1,w
  2441     05CF  00AB               	movwf	___xxtofl@arg+1
  2442     05D0  0922               	comf	___xxtofl@val+2,w
  2443     05D1  00AC               	movwf	___xxtofl@arg+2
  2444     05D2  0923               	comf	___xxtofl@val+3,w
  2445     05D3  00AD               	movwf	___xxtofl@arg+3
  2446     05D4  0AAA               	incf	___xxtofl@arg,f
  2447     05D5  1903               	skipnz
  2448     05D6  0AAB               	incf	___xxtofl@arg+1,f
  2449     05D7  1903               	skipnz
  2450     05D8  0AAC               	incf	___xxtofl@arg+2,f
  2451     05D9  1903               	skipnz
  2452     05DA  0AAD               	incf	___xxtofl@arg+3,f
  2453     05DB  2DE4               	goto	l712
  2454     05DC                     l1799:
  2455     05DC  0823               	movf	___xxtofl@val+3,w
  2456     05DD  00AD               	movwf	___xxtofl@arg+3
  2457     05DE  0822               	movf	___xxtofl@val+2,w
  2458     05DF  00AC               	movwf	___xxtofl@arg+2
  2459     05E0  0821               	movf	___xxtofl@val+1,w
  2460     05E1  00AB               	movwf	___xxtofl@arg+1
  2461     05E2  0820               	movf	___xxtofl@val,w
  2462     05E3  00AA               	movwf	___xxtofl@arg
  2463     05E4                     l712:
  2464     05E4  0823               	movf	___xxtofl@val+3,w
  2465     05E5  0422               	iorwf	___xxtofl@val+2,w
  2466     05E6  0421               	iorwf	___xxtofl@val+1,w
  2467     05E7  0420               	iorwf	___xxtofl@val,w
  2468     05E8  1D03               	skipz
  2469     05E9  2DEB               	goto	u2341
  2470     05EA  2DEC               	goto	u2340
  2471     05EB                     u2341:
  2472     05EB  2DF5               	goto	l1805
  2473     05EC                     u2340:
  2474     05EC                     l1801:
  2475     05EC  3000               	movlw	0
  2476     05ED  00A3               	movwf	?___xxtofl+3
  2477     05EE  3000               	movlw	0
  2478     05EF  00A2               	movwf	?___xxtofl+2
  2479     05F0  3000               	movlw	0
  2480     05F1  00A1               	movwf	?___xxtofl+1
  2481     05F2  3000               	movlw	0
  2482     05F3  00A0               	movwf	?___xxtofl
  2483     05F4  2E79               	goto	l714
  2484     05F5                     l1805:
  2485     05F5  3096               	movlw	150
  2486     05F6  00A9               	movwf	___xxtofl@exp
  2487     05F7  2E05               	goto	l1809
  2488     05F8                     l1807:
  2489     05F8  3001               	movlw	1
  2490     05F9  00A4               	movwf	??___xxtofl
  2491     05FA  0824               	movf	??___xxtofl,w
  2492     05FB  07A9               	addwf	___xxtofl@exp,f
  2493     05FC  3001               	movlw	1
  2494     05FD                     u2355:
  2495     05FD  1003               	clrc
  2496     05FE  0CAD               	rrf	___xxtofl@arg+3,f
  2497     05FF  0CAC               	rrf	___xxtofl@arg+2,f
  2498     0600  0CAB               	rrf	___xxtofl@arg+1,f
  2499     0601  0CAA               	rrf	___xxtofl@arg,f
  2500     0602  3EFF               	addlw	-1
  2501     0603  1D03               	skipz
  2502     0604  2DFD               	goto	u2355
  2503     0605                     l1809:
  2504     0605  30FE               	movlw	254
  2505     0606  052D               	andwf	___xxtofl@arg+3,w
  2506     0607  1D03               	btfss	3,2
  2507     0608  2E0A               	goto	u2361
  2508     0609  2E0B               	goto	u2360
  2509     060A                     u2361:
  2510     060A  2DF8               	goto	l1807
  2511     060B                     u2360:
  2512     060B  2E27               	goto	l718
  2513     060C                     l1811:
  2514     060C  3001               	movlw	1
  2515     060D  00A4               	movwf	??___xxtofl
  2516     060E  0824               	movf	??___xxtofl,w
  2517     060F  07A9               	addwf	___xxtofl@exp,f
  2518     0610                     l1813:
  2519     0610  3001               	movlw	1
  2520     0611  07AA               	addwf	___xxtofl@arg,f
  2521     0612  3000               	movlw	0
  2522     0613  1803               	skipnc
  2523     0614  3001               	movlw	1
  2524     0615  07AB               	addwf	___xxtofl@arg+1,f
  2525     0616  3000               	movlw	0
  2526     0617  1803               	skipnc
  2527     0618  3001               	movlw	1
  2528     0619  07AC               	addwf	___xxtofl@arg+2,f
  2529     061A  3000               	movlw	0
  2530     061B  1803               	skipnc
  2531     061C  3001               	movlw	1
  2532     061D  07AD               	addwf	___xxtofl@arg+3,f
  2533     061E                     l1815:
  2534     061E  3001               	movlw	1
  2535     061F                     u2375:
  2536     061F  1003               	clrc
  2537     0620  0CAD               	rrf	___xxtofl@arg+3,f
  2538     0621  0CAC               	rrf	___xxtofl@arg+2,f
  2539     0622  0CAB               	rrf	___xxtofl@arg+1,f
  2540     0623  0CAA               	rrf	___xxtofl@arg,f
  2541     0624  3EFF               	addlw	-1
  2542     0625  1D03               	skipz
  2543     0626  2E1F               	goto	u2375
  2544     0627                     l718:
  2545     0627  30FF               	movlw	255
  2546     0628  052D               	andwf	___xxtofl@arg+3,w
  2547     0629  1D03               	btfss	3,2
  2548     062A  2E2C               	goto	u2381
  2549     062B  2E2D               	goto	u2380
  2550     062C                     u2381:
  2551     062C  2E0C               	goto	l1811
  2552     062D                     u2380:
  2553     062D  2E39               	goto	l1819
  2554     062E                     l1817:
  2555     062E  3001               	movlw	1
  2556     062F  02A9               	subwf	___xxtofl@exp,f
  2557     0630  3001               	movlw	1
  2558     0631  00A4               	movwf	??___xxtofl
  2559     0632                     u2395:
  2560     0632  1003               	clrc
  2561     0633  0DAA               	rlf	___xxtofl@arg,f
  2562     0634  0DAB               	rlf	___xxtofl@arg+1,f
  2563     0635  0DAC               	rlf	___xxtofl@arg+2,f
  2564     0636  0DAD               	rlf	___xxtofl@arg+3,f
  2565     0637  0BA4               	decfsz	??___xxtofl,f
  2566     0638  2E32               	goto	u2395
  2567     0639                     l1819:
  2568     0639  1BAC               	btfsc	___xxtofl@arg+2,7
  2569     063A  2E3C               	goto	u2401
  2570     063B  2E3D               	goto	u2400
  2571     063C                     u2401:
  2572     063C  2E43               	goto	l725
  2573     063D                     u2400:
  2574     063D                     l1821:
  2575     063D  3002               	movlw	2
  2576     063E  0229               	subwf	___xxtofl@exp,w
  2577     063F  1803               	skipnc
  2578     0640  2E42               	goto	u2411
  2579     0641  2E43               	goto	u2410
  2580     0642                     u2411:
  2581     0642  2E2E               	goto	l1817
  2582     0643                     u2410:
  2583     0643                     l725:
  2584     0643  1829               	btfsc	___xxtofl@exp,0
  2585     0644  2E46               	goto	u2421
  2586     0645  2E47               	goto	u2420
  2587     0646                     u2421:
  2588     0646  2E4F               	goto	l726
  2589     0647                     u2420:
  2590     0647                     l1823:
  2591     0647  30FF               	movlw	255
  2592     0648  05AA               	andwf	___xxtofl@arg,f
  2593     0649  30FF               	movlw	255
  2594     064A  05AB               	andwf	___xxtofl@arg+1,f
  2595     064B  307F               	movlw	127
  2596     064C  05AC               	andwf	___xxtofl@arg+2,f
  2597     064D  30FF               	movlw	255
  2598     064E  05AD               	andwf	___xxtofl@arg+3,f
  2599     064F                     l726:
  2600     064F  1003               	clrc
  2601     0650  0CA9               	rrf	___xxtofl@exp,f
  2602     0651                     l1825:
  2603     0651  0829               	movf	___xxtofl@exp,w
  2604     0652  00A4               	movwf	??___xxtofl
  2605     0653  01A5               	clrf	??___xxtofl+1
  2606     0654  01A6               	clrf	??___xxtofl+2
  2607     0655  01A7               	clrf	??___xxtofl+3
  2608     0656  3018               	movlw	24
  2609     0657                     u2435:
  2610     0657  1003               	clrc
  2611     0658  0DA4               	rlf	??___xxtofl,f
  2612     0659  0DA5               	rlf	??___xxtofl+1,f
  2613     065A  0DA6               	rlf	??___xxtofl+2,f
  2614     065B  0DA7               	rlf	??___xxtofl+3,f
  2615     065C                     u2430:
  2616     065C  3EFF               	addlw	-1
  2617     065D  1D03               	skipz
  2618     065E  2E57               	goto	u2435
  2619     065F  0824               	movf	??___xxtofl,w
  2620     0660  04AA               	iorwf	___xxtofl@arg,f
  2621     0661  0825               	movf	??___xxtofl+1,w
  2622     0662  04AB               	iorwf	___xxtofl@arg+1,f
  2623     0663  0826               	movf	??___xxtofl+2,w
  2624     0664  04AC               	iorwf	___xxtofl@arg+2,f
  2625     0665  0827               	movf	??___xxtofl+3,w
  2626     0666  04AD               	iorwf	___xxtofl@arg+3,f
  2627     0667                     l1827:
  2628     0667  0828               	movf	___xxtofl@sign,w
  2629     0668  1903               	btfsc	3,2
  2630     0669  2E6B               	goto	u2441
  2631     066A  2E6C               	goto	u2440
  2632     066B                     u2441:
  2633     066B  2E71               	goto	l1833
  2634     066C                     u2440:
  2635     066C                     l1829:
  2636     066C  1FA3               	btfss	___xxtofl@val+3,7
  2637     066D  2E6F               	goto	u2451
  2638     066E  2E70               	goto	u2450
  2639     066F                     u2451:
  2640     066F  2E71               	goto	l1833
  2641     0670                     u2450:
  2642     0670                     l1831:
  2643     0670  17AD               	bsf	___xxtofl@arg+3,7
  2644     0671                     l1833:
  2645     0671  082D               	movf	___xxtofl@arg+3,w
  2646     0672  00A3               	movwf	?___xxtofl+3
  2647     0673  082C               	movf	___xxtofl@arg+2,w
  2648     0674  00A2               	movwf	?___xxtofl+2
  2649     0675  082B               	movf	___xxtofl@arg+1,w
  2650     0676  00A1               	movwf	?___xxtofl+1
  2651     0677  082A               	movf	___xxtofl@arg,w
  2652     0678  00A0               	movwf	?___xxtofl
  2653     0679                     l714:
  2654     0679  0008               	return
  2655     067A                     __end_of___xxtofl:
  2656                           
  2657                           	psect	text14
  2658     0E7E                     __ptext14:	
  2659 ;; *************** function ___fltol *****************
  2660 ;; Defined at:
  2661 ;;		line 43 in file "C:\Program Files\Microchip\xc8\v2.40\pic\sources\c90\common\fltol.c"
  2662 ;; Parameters:    Size  Location     Type
  2663 ;;  f1              4   60[BANK0 ] unsigned char 
  2664 ;; Auto vars:     Size  Location     Type
  2665 ;;  exp1            1   69[BANK0 ] unsigned char 
  2666 ;;  sign1           1   68[BANK0 ] unsigned char 
  2667 ;; Return value:  Size  Location     Type
  2668 ;;                  4   60[BANK0 ] long 
  2669 ;; Registers used:
  2670 ;;		wreg, status,2, status,0
  2671 ;; Tracked objects:
  2672 ;;		On entry : 0/0
  2673 ;;		On exit  : 0/0
  2674 ;;		Unchanged: 0/0
  2675 ;; Data sizes:     COMMON   BANK0   BANK1   BANK3   BANK2
  2676 ;;      Params:         0       4       0       0       0
  2677 ;;      Locals:         0       2       0       0       0
  2678 ;;      Temps:          0       4       0       0       0
  2679 ;;      Totals:         0      10       0       0       0
  2680 ;;Total ram usage:       10 bytes
  2681 ;; Hardware stack levels used: 1
  2682 ;; Hardware stack levels required when called: 1
  2683 ;; This function calls:
  2684 ;;		Nothing
  2685 ;; This function is called by:
  2686 ;;		_PWMtmr0
  2687 ;;		_PWMtmr1
  2688 ;;		_mapeo
  2689 ;; This function uses a non-reentrant model
  2690 ;;
  2691                           
  2692     0E7E                     ___fltol:	
  2693                           ;psect for function ___fltol
  2694                           
  2695     0E7E                     l1423:	
  2696                           ;incstack = 0
  2697                           ; Regs used in ___fltol: [wreg+status,2+status,0]
  2698                           
  2699     0E7E  1003               	clrc
  2700     0E7F  1283               	bcf	3,5	;RP0=0, select bank0
  2701     0E80  1303               	bcf	3,6	;RP1=0, select bank0
  2702     0E81  0D5E               	rlf	___fltol@f1+2,w
  2703     0E82  0D5F               	rlf	___fltol@f1+3,w
  2704     0E83  00E5               	movwf	___fltol@exp1
  2705     0E84  0865               	movf	___fltol@exp1,w
  2706     0E85  1D03               	btfss	3,2
  2707     0E86  2E88               	goto	u1391
  2708     0E87  2E89               	goto	u1390
  2709     0E88                     u1391:
  2710     0E88  2E92               	goto	l1429
  2711     0E89                     u1390:
  2712     0E89                     l1425:
  2713     0E89  3000               	movlw	0
  2714     0E8A  00DF               	movwf	?___fltol+3
  2715     0E8B  3000               	movlw	0
  2716     0E8C  00DE               	movwf	?___fltol+2
  2717     0E8D  3000               	movlw	0
  2718     0E8E  00DD               	movwf	?___fltol+1
  2719     0E8F  3000               	movlw	0
  2720     0E90  00DC               	movwf	?___fltol
  2721     0E91  2EF5               	goto	l465
  2722     0E92                     l1429:
  2723     0E92  085C               	movf	___fltol@f1,w
  2724     0E93  00E0               	movwf	??___fltol
  2725     0E94  085D               	movf	___fltol@f1+1,w
  2726     0E95  00E1               	movwf	??___fltol+1
  2727     0E96  085E               	movf	___fltol@f1+2,w
  2728     0E97  00E2               	movwf	??___fltol+2
  2729     0E98  085F               	movf	___fltol@f1+3,w
  2730     0E99  00E3               	movwf	??___fltol+3
  2731     0E9A  301F               	movlw	31
  2732     0E9B                     u1405:
  2733     0E9B  1003               	clrc
  2734     0E9C  0CE3               	rrf	??___fltol+3,f
  2735     0E9D  0CE2               	rrf	??___fltol+2,f
  2736     0E9E  0CE1               	rrf	??___fltol+1,f
  2737     0E9F  0CE0               	rrf	??___fltol,f
  2738     0EA0                     u1400:
  2739     0EA0  3EFF               	addlw	-1
  2740     0EA1  1D03               	skipz
  2741     0EA2  2E9B               	goto	u1405
  2742     0EA3  0860               	movf	??___fltol,w
  2743     0EA4  00E4               	movwf	___fltol@sign1
  2744     0EA5                     l1431:
  2745     0EA5  17DE               	bsf	___fltol@f1+2,7
  2746     0EA6                     l1433:
  2747     0EA6  30FF               	movlw	255
  2748     0EA7  05DC               	andwf	___fltol@f1,f
  2749     0EA8  30FF               	movlw	255
  2750     0EA9  05DD               	andwf	___fltol@f1+1,f
  2751     0EAA  30FF               	movlw	255
  2752     0EAB  05DE               	andwf	___fltol@f1+2,f
  2753     0EAC  3000               	movlw	0
  2754     0EAD  05DF               	andwf	___fltol@f1+3,f
  2755     0EAE                     l1435:
  2756     0EAE  3096               	movlw	150
  2757     0EAF  02E5               	subwf	___fltol@exp1,f
  2758     0EB0                     l1437:
  2759     0EB0  1FE5               	btfss	___fltol@exp1,7
  2760     0EB1  2EB3               	goto	u1411
  2761     0EB2  2EB4               	goto	u1410
  2762     0EB3                     u1411:
  2763     0EB3  2ECE               	goto	l1447
  2764     0EB4                     u1410:
  2765     0EB4                     l1439:
  2766     0EB4  0865               	movf	___fltol@exp1,w
  2767     0EB5  3A80               	xorlw	128
  2768     0EB6  3E97               	addlw	151
  2769     0EB7  1803               	skipnc
  2770     0EB8  2EBA               	goto	u1421
  2771     0EB9  2EBB               	goto	u1420
  2772     0EBA                     u1421:
  2773     0EBA  2EBC               	goto	l1445
  2774     0EBB                     u1420:
  2775     0EBB  2E89               	goto	l1425
  2776     0EBC                     l1445:
  2777     0EBC  3001               	movlw	1
  2778     0EBD                     u1435:
  2779     0EBD  1003               	clrc
  2780     0EBE  0CDF               	rrf	___fltol@f1+3,f
  2781     0EBF  0CDE               	rrf	___fltol@f1+2,f
  2782     0EC0  0CDD               	rrf	___fltol@f1+1,f
  2783     0EC1  0CDC               	rrf	___fltol@f1,f
  2784     0EC2  3EFF               	addlw	-1
  2785     0EC3  1D03               	skipz
  2786     0EC4  2EBD               	goto	u1435
  2787     0EC5  3001               	movlw	1
  2788     0EC6  00E0               	movwf	??___fltol
  2789     0EC7  0860               	movf	??___fltol,w
  2790     0EC8  07E5               	addwf	___fltol@exp1,f
  2791     0EC9  1D03               	btfss	3,2
  2792     0ECA  2ECC               	goto	u1441
  2793     0ECB  2ECD               	goto	u1440
  2794     0ECC                     u1441:
  2795     0ECC  2EBC               	goto	l1445
  2796     0ECD                     u1440:
  2797     0ECD  2EE5               	goto	l1455
  2798     0ECE                     l1447:
  2799     0ECE  3020               	movlw	32
  2800     0ECF  0265               	subwf	___fltol@exp1,w
  2801     0ED0  1C03               	skipc
  2802     0ED1  2ED3               	goto	u1451
  2803     0ED2  2ED4               	goto	u1450
  2804     0ED3                     u1451:
  2805     0ED3  2EE0               	goto	l472
  2806     0ED4                     u1450:
  2807     0ED4  2E89               	goto	l1425
  2808     0ED5                     l1453:
  2809     0ED5  3001               	movlw	1
  2810     0ED6  00E0               	movwf	??___fltol
  2811     0ED7                     u1465:
  2812     0ED7  1003               	clrc
  2813     0ED8  0DDC               	rlf	___fltol@f1,f
  2814     0ED9  0DDD               	rlf	___fltol@f1+1,f
  2815     0EDA  0DDE               	rlf	___fltol@f1+2,f
  2816     0EDB  0DDF               	rlf	___fltol@f1+3,f
  2817     0EDC  0BE0               	decfsz	??___fltol,f
  2818     0EDD  2ED7               	goto	u1465
  2819     0EDE  3001               	movlw	1
  2820     0EDF  02E5               	subwf	___fltol@exp1,f
  2821     0EE0                     l472:
  2822     0EE0  0865               	movf	___fltol@exp1,w
  2823     0EE1  1D03               	btfss	3,2
  2824     0EE2  2EE4               	goto	u1471
  2825     0EE3  2EE5               	goto	u1470
  2826     0EE4                     u1471:
  2827     0EE4  2ED5               	goto	l1453
  2828     0EE5                     u1470:
  2829     0EE5                     l1455:
  2830     0EE5  0864               	movf	___fltol@sign1,w
  2831     0EE6  1903               	btfsc	3,2
  2832     0EE7  2EE9               	goto	u1481
  2833     0EE8  2EEA               	goto	u1480
  2834     0EE9                     u1481:
  2835     0EE9  2EF5               	goto	l475
  2836     0EEA                     u1480:
  2837     0EEA                     l1457:
  2838     0EEA  09DC               	comf	___fltol@f1,f
  2839     0EEB  09DD               	comf	___fltol@f1+1,f
  2840     0EEC  09DE               	comf	___fltol@f1+2,f
  2841     0EED  09DF               	comf	___fltol@f1+3,f
  2842     0EEE  0ADC               	incf	___fltol@f1,f
  2843     0EEF  1903               	skipnz
  2844     0EF0  0ADD               	incf	___fltol@f1+1,f
  2845     0EF1  1903               	skipnz
  2846     0EF2  0ADE               	incf	___fltol@f1+2,f
  2847     0EF3  1903               	skipnz
  2848     0EF4  0ADF               	incf	___fltol@f1+3,f
  2849     0EF5                     l475:
  2850     0EF5                     l465:
  2851     0EF5  0008               	return
  2852     0EF6                     __end_of___fltol:
  2853                           
  2854                           	psect	text15
  2855     0023                     __ptext15:	
  2856 ;; *************** function ___flmul *****************
  2857 ;; Defined at:
  2858 ;;		line 8 in file "C:\Program Files\Microchip\xc8\v2.40\pic\sources\c90\common\sprcmul.c"
  2859 ;; Parameters:    Size  Location     Type
  2860 ;;  b               4   14[BANK0 ] long 
  2861 ;;  a               4   18[BANK0 ] long 
  2862 ;; Auto vars:     Size  Location     Type
  2863 ;;  prod            4   34[BANK0 ] struct .
  2864 ;;  grs             4   28[BANK0 ] unsigned long 
  2865 ;;  temp            2   38[BANK0 ] struct .
  2866 ;;  bexp            1   33[BANK0 ] unsigned char 
  2867 ;;  aexp            1   32[BANK0 ] unsigned char 
  2868 ;;  sign            1   27[BANK0 ] unsigned char 
  2869 ;; Return value:  Size  Location     Type
  2870 ;;                  4   14[BANK0 ] unsigned char 
  2871 ;; Registers used:
  2872 ;;		wreg, status,2, status,0, btemp+1, pclath, cstack
  2873 ;; Tracked objects:
  2874 ;;		On entry : 0/0
  2875 ;;		On exit  : 0/0
  2876 ;;		Unchanged: 0/0
  2877 ;; Data sizes:     COMMON   BANK0   BANK1   BANK3   BANK2
  2878 ;;      Params:         0       8       0       0       0
  2879 ;;      Locals:         0      13       0       0       0
  2880 ;;      Temps:          0       5       0       0       0
  2881 ;;      Totals:         0      26       0       0       0
  2882 ;;Total ram usage:       26 bytes
  2883 ;; Hardware stack levels used: 1
  2884 ;; Hardware stack levels required when called: 2
  2885 ;; This function calls:
  2886 ;;		__Umul8_16
  2887 ;; This function is called by:
  2888 ;;		_PWMtmr0
  2889 ;;		_PWMtmr1
  2890 ;;		_mapeo
  2891 ;; This function uses a non-reentrant model
  2892 ;;
  2893                           
  2894     0023                     ___flmul:	
  2895                           ;psect for function ___flmul
  2896                           
  2897     0023                     l1653:	
  2898                           ;incstack = 0
  2899                           ; Regs used in ___flmul: [wreg+status,2+status,0+btemp+1+pclath+cstack]
  2900                           
  2901     0023  1283               	bcf	3,5	;RP0=0, select bank0
  2902     0024  1303               	bcf	3,6	;RP1=0, select bank0
  2903     0025  0831               	movf	___flmul@b+3,w
  2904     0026  3980               	andlw	128
  2905     0027  00BB               	movwf	___flmul@sign
  2906     0028                     l1655:
  2907     0028  0831               	movf	___flmul@b+3,w
  2908     0029  00B6               	movwf	??___flmul
  2909     002A  0736               	addwf	??___flmul,w
  2910     002B  00C1               	movwf	___flmul@bexp
  2911     002C                     l1657:
  2912     002C  1FB0               	btfss	___flmul@b+2,7
  2913     002D  282F               	goto	u1951
  2914     002E  2830               	goto	u1950
  2915     002F                     u1951:
  2916     002F  2831               	goto	l1661
  2917     0030                     u1950:
  2918     0030                     l1659:
  2919     0030  1441               	bsf	___flmul@bexp,0
  2920     0031                     l1661:
  2921     0031  0841               	movf	___flmul@bexp,w
  2922     0032  1903               	btfsc	3,2
  2923     0033  2835               	goto	u1961
  2924     0034  2836               	goto	u1960
  2925     0035                     u1961:
  2926     0035  2845               	goto	l1669
  2927     0036                     u1960:
  2928     0036                     l1663:
  2929     0036  0A41               	incf	___flmul@bexp,w
  2930     0037  1D03               	btfss	3,2
  2931     0038  283A               	goto	u1971
  2932     0039  283B               	goto	u1970
  2933     003A                     u1971:
  2934     003A  2843               	goto	l1667
  2935     003B                     u1970:
  2936     003B                     l1665:
  2937     003B  3000               	movlw	0
  2938     003C  00B1               	movwf	___flmul@b+3
  2939     003D  3000               	movlw	0
  2940     003E  00B0               	movwf	___flmul@b+2
  2941     003F  3000               	movlw	0
  2942     0040  00AF               	movwf	___flmul@b+1
  2943     0041  3000               	movlw	0
  2944     0042  00AE               	movwf	___flmul@b
  2945     0043                     l1667:
  2946     0043  17B0               	bsf	___flmul@b+2,7
  2947     0044  284D               	goto	l1671
  2948     0045                     l1669:
  2949     0045  3000               	movlw	0
  2950     0046  00B1               	movwf	___flmul@b+3
  2951     0047  3000               	movlw	0
  2952     0048  00B0               	movwf	___flmul@b+2
  2953     0049  3000               	movlw	0
  2954     004A  00AF               	movwf	___flmul@b+1
  2955     004B  3000               	movlw	0
  2956     004C  00AE               	movwf	___flmul@b
  2957     004D                     l1671:
  2958     004D  0835               	movf	___flmul@a+3,w
  2959     004E  3980               	andlw	128
  2960     004F  00B6               	movwf	??___flmul
  2961     0050  0836               	movf	??___flmul,w
  2962     0051  06BB               	xorwf	___flmul@sign,f
  2963     0052                     l1673:
  2964     0052  0835               	movf	___flmul@a+3,w
  2965     0053  00B6               	movwf	??___flmul
  2966     0054  0736               	addwf	??___flmul,w
  2967     0055  00C0               	movwf	___flmul@aexp
  2968     0056                     l1675:
  2969     0056  1FB4               	btfss	___flmul@a+2,7
  2970     0057  2859               	goto	u1981
  2971     0058  285A               	goto	u1980
  2972     0059                     u1981:
  2973     0059  285B               	goto	l1679
  2974     005A                     u1980:
  2975     005A                     l1677:
  2976     005A  1440               	bsf	___flmul@aexp,0
  2977     005B                     l1679:
  2978     005B  0840               	movf	___flmul@aexp,w
  2979     005C  1903               	btfsc	3,2
  2980     005D  285F               	goto	u1991
  2981     005E  2860               	goto	u1990
  2982     005F                     u1991:
  2983     005F  286F               	goto	l1687
  2984     0060                     u1990:
  2985     0060                     l1681:
  2986     0060  0A40               	incf	___flmul@aexp,w
  2987     0061  1D03               	btfss	3,2
  2988     0062  2864               	goto	u2001
  2989     0063  2865               	goto	u2000
  2990     0064                     u2001:
  2991     0064  286D               	goto	l1685
  2992     0065                     u2000:
  2993     0065                     l1683:
  2994     0065  3000               	movlw	0
  2995     0066  00B5               	movwf	___flmul@a+3
  2996     0067  3000               	movlw	0
  2997     0068  00B4               	movwf	___flmul@a+2
  2998     0069  3000               	movlw	0
  2999     006A  00B3               	movwf	___flmul@a+1
  3000     006B  3000               	movlw	0
  3001     006C  00B2               	movwf	___flmul@a
  3002     006D                     l1685:
  3003     006D  17B4               	bsf	___flmul@a+2,7
  3004     006E  2877               	goto	l1689
  3005     006F                     l1687:
  3006     006F  3000               	movlw	0
  3007     0070  00B5               	movwf	___flmul@a+3
  3008     0071  3000               	movlw	0
  3009     0072  00B4               	movwf	___flmul@a+2
  3010     0073  3000               	movlw	0
  3011     0074  00B3               	movwf	___flmul@a+1
  3012     0075  3000               	movlw	0
  3013     0076  00B2               	movwf	___flmul@a
  3014     0077                     l1689:
  3015     0077  0840               	movf	___flmul@aexp,w
  3016     0078  1903               	btfsc	3,2
  3017     0079  287B               	goto	u2011
  3018     007A  287C               	goto	u2010
  3019     007B                     u2011:
  3020     007B  2881               	goto	l1693
  3021     007C                     u2010:
  3022     007C                     l1691:
  3023     007C  0841               	movf	___flmul@bexp,w
  3024     007D  1D03               	btfss	3,2
  3025     007E  2880               	goto	u2021
  3026     007F  2881               	goto	u2020
  3027     0080                     u2021:
  3028     0080  288A               	goto	l1697
  3029     0081                     u2020:
  3030     0081                     l1693:
  3031     0081  3000               	movlw	0
  3032     0082  00B1               	movwf	?___flmul+3
  3033     0083  3000               	movlw	0
  3034     0084  00B0               	movwf	?___flmul+2
  3035     0085  3000               	movlw	0
  3036     0086  00AF               	movwf	?___flmul+1
  3037     0087  3000               	movlw	0
  3038     0088  00AE               	movwf	?___flmul
  3039     0089  2B67               	goto	l668
  3040     008A                     l1697:
  3041     008A  082E               	movf	___flmul@b,w
  3042     008B  00A0               	movwf	__Umul8_16@multiplicand
  3043     008C  0834               	movf	___flmul@a+2,w
  3044     008D  120A  158A  2533  120A  118A  	fcall	__Umul8_16
  3045     0092  1283               	bcf	3,5	;RP0=0, select bank0
  3046     0093  1303               	bcf	3,6	;RP1=0, select bank0
  3047     0094  0821               	movf	?__Umul8_16+1,w
  3048     0095  00C7               	movwf	___flmul@temp+1
  3049     0096  0820               	movf	?__Umul8_16,w
  3050     0097  00C6               	movwf	___flmul@temp
  3051     0098                     l1699:
  3052     0098  0846               	movf	___flmul@temp,w
  3053     0099  00B6               	movwf	??___flmul
  3054     009A  01B7               	clrf	??___flmul+1
  3055     009B  01B8               	clrf	??___flmul+2
  3056     009C  01B9               	clrf	??___flmul+3
  3057     009D  0839               	movf	??___flmul+3,w
  3058     009E  00BF               	movwf	___flmul@grs+3
  3059     009F  0838               	movf	??___flmul+2,w
  3060     00A0  00BE               	movwf	___flmul@grs+2
  3061     00A1  0837               	movf	??___flmul+1,w
  3062     00A2  00BD               	movwf	___flmul@grs+1
  3063     00A3  0836               	movf	??___flmul,w
  3064     00A4  00BC               	movwf	___flmul@grs
  3065     00A5                     l1701:
  3066     00A5  0847               	movf	___flmul@temp+1,w
  3067     00A6  00B6               	movwf	??___flmul
  3068     00A7  01B7               	clrf	??___flmul+1
  3069     00A8  01B8               	clrf	??___flmul+2
  3070     00A9  01B9               	clrf	??___flmul+3
  3071     00AA  0839               	movf	??___flmul+3,w
  3072     00AB  00C5               	movwf	___flmul@prod+3
  3073     00AC  0838               	movf	??___flmul+2,w
  3074     00AD  00C4               	movwf	___flmul@prod+2
  3075     00AE  0837               	movf	??___flmul+1,w
  3076     00AF  00C3               	movwf	___flmul@prod+1
  3077     00B0  0836               	movf	??___flmul,w
  3078     00B1  00C2               	movwf	___flmul@prod
  3079     00B2  082F               	movf	___flmul@b+1,w
  3080     00B3  00A0               	movwf	__Umul8_16@multiplicand
  3081     00B4  0833               	movf	___flmul@a+1,w
  3082     00B5  120A  158A  2533  120A  118A  	fcall	__Umul8_16
  3083     00BA  1283               	bcf	3,5	;RP0=0, select bank0
  3084     00BB  1303               	bcf	3,6	;RP1=0, select bank0
  3085     00BC  0821               	movf	?__Umul8_16+1,w
  3086     00BD  00C7               	movwf	___flmul@temp+1
  3087     00BE  0820               	movf	?__Umul8_16,w
  3088     00BF  00C6               	movwf	___flmul@temp
  3089     00C0                     l1703:
  3090     00C0  0846               	movf	___flmul@temp,w
  3091     00C1  00B6               	movwf	??___flmul
  3092     00C2  01B7               	clrf	??___flmul+1
  3093     00C3  01B8               	clrf	??___flmul+2
  3094     00C4  01B9               	clrf	??___flmul+3
  3095     00C5  0836               	movf	??___flmul,w
  3096     00C6  07BC               	addwf	___flmul@grs,f
  3097     00C7  0837               	movf	??___flmul+1,w
  3098     00C8  1103               	clrz
  3099     00C9  1803               	skipnc
  3100     00CA  3E01               	addlw	1
  3101     00CB  1903               	skipnz
  3102     00CC  28CE               	goto	u2031
  3103     00CD  07BD               	addwf	___flmul@grs+1,f
  3104     00CE                     u2031:
  3105     00CE  0838               	movf	??___flmul+2,w
  3106     00CF  1103               	clrz
  3107     00D0  1803               	skipnc
  3108     00D1  3E01               	addlw	1
  3109     00D2  1903               	skipnz
  3110     00D3  28D5               	goto	u2032
  3111     00D4  07BE               	addwf	___flmul@grs+2,f
  3112     00D5                     u2032:
  3113     00D5  0839               	movf	??___flmul+3,w
  3114     00D6  1103               	clrz
  3115     00D7  1803               	skipnc
  3116     00D8  3E01               	addlw	1
  3117     00D9  1903               	skipnz
  3118     00DA  28DC               	goto	u2033
  3119     00DB  07BF               	addwf	___flmul@grs+3,f
  3120     00DC                     u2033:
  3121     00DC                     l1705:
  3122     00DC  0847               	movf	___flmul@temp+1,w
  3123     00DD  00B6               	movwf	??___flmul
  3124     00DE  01B7               	clrf	??___flmul+1
  3125     00DF  01B8               	clrf	??___flmul+2
  3126     00E0  01B9               	clrf	??___flmul+3
  3127     00E1  0836               	movf	??___flmul,w
  3128     00E2  07C2               	addwf	___flmul@prod,f
  3129     00E3  0837               	movf	??___flmul+1,w
  3130     00E4  1103               	clrz
  3131     00E5  1803               	skipnc
  3132     00E6  3E01               	addlw	1
  3133     00E7  1903               	skipnz
  3134     00E8  28EA               	goto	u2041
  3135     00E9  07C3               	addwf	___flmul@prod+1,f
  3136     00EA                     u2041:
  3137     00EA  0838               	movf	??___flmul+2,w
  3138     00EB  1103               	clrz
  3139     00EC  1803               	skipnc
  3140     00ED  3E01               	addlw	1
  3141     00EE  1903               	skipnz
  3142     00EF  28F1               	goto	u2042
  3143     00F0  07C4               	addwf	___flmul@prod+2,f
  3144     00F1                     u2042:
  3145     00F1  0839               	movf	??___flmul+3,w
  3146     00F2  1103               	clrz
  3147     00F3  1803               	skipnc
  3148     00F4  3E01               	addlw	1
  3149     00F5  1903               	skipnz
  3150     00F6  28F8               	goto	u2043
  3151     00F7  07C5               	addwf	___flmul@prod+3,f
  3152     00F8                     u2043:
  3153     00F8  0830               	movf	___flmul@b+2,w
  3154     00F9  00A0               	movwf	__Umul8_16@multiplicand
  3155     00FA  0832               	movf	___flmul@a,w
  3156     00FB  120A  158A  2533  120A  118A  	fcall	__Umul8_16
  3157     0100  1283               	bcf	3,5	;RP0=0, select bank0
  3158     0101  1303               	bcf	3,6	;RP1=0, select bank0
  3159     0102  0821               	movf	?__Umul8_16+1,w
  3160     0103  00C7               	movwf	___flmul@temp+1
  3161     0104  0820               	movf	?__Umul8_16,w
  3162     0105  00C6               	movwf	___flmul@temp
  3163     0106                     l1707:
  3164     0106  0846               	movf	___flmul@temp,w
  3165     0107  00B6               	movwf	??___flmul
  3166     0108  01B7               	clrf	??___flmul+1
  3167     0109  01B8               	clrf	??___flmul+2
  3168     010A  01B9               	clrf	??___flmul+3
  3169     010B  0836               	movf	??___flmul,w
  3170     010C  07BC               	addwf	___flmul@grs,f
  3171     010D  0837               	movf	??___flmul+1,w
  3172     010E  1103               	clrz
  3173     010F  1803               	skipnc
  3174     0110  3E01               	addlw	1
  3175     0111  1903               	skipnz
  3176     0112  2914               	goto	u2051
  3177     0113  07BD               	addwf	___flmul@grs+1,f
  3178     0114                     u2051:
  3179     0114  0838               	movf	??___flmul+2,w
  3180     0115  1103               	clrz
  3181     0116  1803               	skipnc
  3182     0117  3E01               	addlw	1
  3183     0118  1903               	skipnz
  3184     0119  291B               	goto	u2052
  3185     011A  07BE               	addwf	___flmul@grs+2,f
  3186     011B                     u2052:
  3187     011B  0839               	movf	??___flmul+3,w
  3188     011C  1103               	clrz
  3189     011D  1803               	skipnc
  3190     011E  3E01               	addlw	1
  3191     011F  1903               	skipnz
  3192     0120  2922               	goto	u2053
  3193     0121  07BF               	addwf	___flmul@grs+3,f
  3194     0122                     u2053:
  3195     0122                     l1709:
  3196     0122  0847               	movf	___flmul@temp+1,w
  3197     0123  00B6               	movwf	??___flmul
  3198     0124  01B7               	clrf	??___flmul+1
  3199     0125  01B8               	clrf	??___flmul+2
  3200     0126  01B9               	clrf	??___flmul+3
  3201     0127  0836               	movf	??___flmul,w
  3202     0128  07C2               	addwf	___flmul@prod,f
  3203     0129  0837               	movf	??___flmul+1,w
  3204     012A  1103               	clrz
  3205     012B  1803               	skipnc
  3206     012C  3E01               	addlw	1
  3207     012D  1903               	skipnz
  3208     012E  2930               	goto	u2061
  3209     012F  07C3               	addwf	___flmul@prod+1,f
  3210     0130                     u2061:
  3211     0130  0838               	movf	??___flmul+2,w
  3212     0131  1103               	clrz
  3213     0132  1803               	skipnc
  3214     0133  3E01               	addlw	1
  3215     0134  1903               	skipnz
  3216     0135  2937               	goto	u2062
  3217     0136  07C4               	addwf	___flmul@prod+2,f
  3218     0137                     u2062:
  3219     0137  0839               	movf	??___flmul+3,w
  3220     0138  1103               	clrz
  3221     0139  1803               	skipnc
  3222     013A  3E01               	addlw	1
  3223     013B  1903               	skipnz
  3224     013C  293E               	goto	u2063
  3225     013D  07C5               	addwf	___flmul@prod+3,f
  3226     013E                     u2063:
  3227     013E                     l1711:
  3228     013E  3008               	movlw	8
  3229     013F  00B6               	movwf	??___flmul
  3230     0140                     u2075:
  3231     0140  1003               	clrc
  3232     0141  0DBC               	rlf	___flmul@grs,f
  3233     0142  0DBD               	rlf	___flmul@grs+1,f
  3234     0143  0DBE               	rlf	___flmul@grs+2,f
  3235     0144  0DBF               	rlf	___flmul@grs+3,f
  3236     0145  0BB6               	decfsz	??___flmul,f
  3237     0146  2940               	goto	u2075
  3238     0147                     l1713:
  3239     0147  082F               	movf	___flmul@b+1,w
  3240     0148  00A0               	movwf	__Umul8_16@multiplicand
  3241     0149  0832               	movf	___flmul@a,w
  3242     014A  120A  158A  2533  120A  118A  	fcall	__Umul8_16
  3243     014F  1283               	bcf	3,5	;RP0=0, select bank0
  3244     0150  1303               	bcf	3,6	;RP1=0, select bank0
  3245     0151  0821               	movf	?__Umul8_16+1,w
  3246     0152  00C7               	movwf	___flmul@temp+1
  3247     0153  0820               	movf	?__Umul8_16,w
  3248     0154  00C6               	movwf	___flmul@temp
  3249     0155                     l1715:
  3250     0155  0846               	movf	___flmul@temp,w
  3251     0156  00B6               	movwf	??___flmul
  3252     0157  0847               	movf	___flmul@temp+1,w
  3253     0158  00B7               	movwf	??___flmul+1
  3254     0159  01B8               	clrf	??___flmul+2
  3255     015A  01B9               	clrf	??___flmul+3
  3256     015B  0836               	movf	??___flmul,w
  3257     015C  07BC               	addwf	___flmul@grs,f
  3258     015D  0837               	movf	??___flmul+1,w
  3259     015E  1103               	clrz
  3260     015F  1803               	skipnc
  3261     0160  3E01               	addlw	1
  3262     0161  1903               	skipnz
  3263     0162  2964               	goto	u2081
  3264     0163  07BD               	addwf	___flmul@grs+1,f
  3265     0164                     u2081:
  3266     0164  0838               	movf	??___flmul+2,w
  3267     0165  1103               	clrz
  3268     0166  1803               	skipnc
  3269     0167  3E01               	addlw	1
  3270     0168  1903               	skipnz
  3271     0169  296B               	goto	u2082
  3272     016A  07BE               	addwf	___flmul@grs+2,f
  3273     016B                     u2082:
  3274     016B  0839               	movf	??___flmul+3,w
  3275     016C  1103               	clrz
  3276     016D  1803               	skipnc
  3277     016E  3E01               	addlw	1
  3278     016F  1903               	skipnz
  3279     0170  2972               	goto	u2083
  3280     0171  07BF               	addwf	___flmul@grs+3,f
  3281     0172                     u2083:
  3282     0172                     l1717:
  3283     0172  082E               	movf	___flmul@b,w
  3284     0173  00A0               	movwf	__Umul8_16@multiplicand
  3285     0174  0833               	movf	___flmul@a+1,w
  3286     0175  120A  158A  2533  120A  118A  	fcall	__Umul8_16
  3287     017A  1283               	bcf	3,5	;RP0=0, select bank0
  3288     017B  1303               	bcf	3,6	;RP1=0, select bank0
  3289     017C  0821               	movf	?__Umul8_16+1,w
  3290     017D  00C7               	movwf	___flmul@temp+1
  3291     017E  0820               	movf	?__Umul8_16,w
  3292     017F  00C6               	movwf	___flmul@temp
  3293     0180                     l1719:
  3294     0180  0846               	movf	___flmul@temp,w
  3295     0181  00B6               	movwf	??___flmul
  3296     0182  0847               	movf	___flmul@temp+1,w
  3297     0183  00B7               	movwf	??___flmul+1
  3298     0184  01B8               	clrf	??___flmul+2
  3299     0185  01B9               	clrf	??___flmul+3
  3300     0186  0836               	movf	??___flmul,w
  3301     0187  07BC               	addwf	___flmul@grs,f
  3302     0188  0837               	movf	??___flmul+1,w
  3303     0189  1103               	clrz
  3304     018A  1803               	skipnc
  3305     018B  3E01               	addlw	1
  3306     018C  1903               	skipnz
  3307     018D  298F               	goto	u2091
  3308     018E  07BD               	addwf	___flmul@grs+1,f
  3309     018F                     u2091:
  3310     018F  0838               	movf	??___flmul+2,w
  3311     0190  1103               	clrz
  3312     0191  1803               	skipnc
  3313     0192  3E01               	addlw	1
  3314     0193  1903               	skipnz
  3315     0194  2996               	goto	u2092
  3316     0195  07BE               	addwf	___flmul@grs+2,f
  3317     0196                     u2092:
  3318     0196  0839               	movf	??___flmul+3,w
  3319     0197  1103               	clrz
  3320     0198  1803               	skipnc
  3321     0199  3E01               	addlw	1
  3322     019A  1903               	skipnz
  3323     019B  299D               	goto	u2093
  3324     019C  07BF               	addwf	___flmul@grs+3,f
  3325     019D                     u2093:
  3326     019D                     l1721:
  3327     019D  3008               	movlw	8
  3328     019E  00B6               	movwf	??___flmul
  3329     019F                     u2105:
  3330     019F  1003               	clrc
  3331     01A0  0DBC               	rlf	___flmul@grs,f
  3332     01A1  0DBD               	rlf	___flmul@grs+1,f
  3333     01A2  0DBE               	rlf	___flmul@grs+2,f
  3334     01A3  0DBF               	rlf	___flmul@grs+3,f
  3335     01A4  0BB6               	decfsz	??___flmul,f
  3336     01A5  299F               	goto	u2105
  3337     01A6  082E               	movf	___flmul@b,w
  3338     01A7  00A0               	movwf	__Umul8_16@multiplicand
  3339     01A8  0832               	movf	___flmul@a,w
  3340     01A9  120A  158A  2533  120A  118A  	fcall	__Umul8_16
  3341     01AE  1283               	bcf	3,5	;RP0=0, select bank0
  3342     01AF  1303               	bcf	3,6	;RP1=0, select bank0
  3343     01B0  0821               	movf	?__Umul8_16+1,w
  3344     01B1  00C7               	movwf	___flmul@temp+1
  3345     01B2  0820               	movf	?__Umul8_16,w
  3346     01B3  00C6               	movwf	___flmul@temp
  3347     01B4                     l1723:
  3348     01B4  0846               	movf	___flmul@temp,w
  3349     01B5  00B6               	movwf	??___flmul
  3350     01B6  0847               	movf	___flmul@temp+1,w
  3351     01B7  00B7               	movwf	??___flmul+1
  3352     01B8  01B8               	clrf	??___flmul+2
  3353     01B9  01B9               	clrf	??___flmul+3
  3354     01BA  0836               	movf	??___flmul,w
  3355     01BB  07BC               	addwf	___flmul@grs,f
  3356     01BC  0837               	movf	??___flmul+1,w
  3357     01BD  1103               	clrz
  3358     01BE  1803               	skipnc
  3359     01BF  3E01               	addlw	1
  3360     01C0  1903               	skipnz
  3361     01C1  29C3               	goto	u2111
  3362     01C2  07BD               	addwf	___flmul@grs+1,f
  3363     01C3                     u2111:
  3364     01C3  0838               	movf	??___flmul+2,w
  3365     01C4  1103               	clrz
  3366     01C5  1803               	skipnc
  3367     01C6  3E01               	addlw	1
  3368     01C7  1903               	skipnz
  3369     01C8  29CA               	goto	u2112
  3370     01C9  07BE               	addwf	___flmul@grs+2,f
  3371     01CA                     u2112:
  3372     01CA  0839               	movf	??___flmul+3,w
  3373     01CB  1103               	clrz
  3374     01CC  1803               	skipnc
  3375     01CD  3E01               	addlw	1
  3376     01CE  1903               	skipnz
  3377     01CF  29D1               	goto	u2113
  3378     01D0  07BF               	addwf	___flmul@grs+3,f
  3379     01D1                     u2113:
  3380     01D1                     l1725:
  3381     01D1  082F               	movf	___flmul@b+1,w
  3382     01D2  00A0               	movwf	__Umul8_16@multiplicand
  3383     01D3  0834               	movf	___flmul@a+2,w
  3384     01D4  120A  158A  2533  120A  118A  	fcall	__Umul8_16
  3385     01D9  1283               	bcf	3,5	;RP0=0, select bank0
  3386     01DA  1303               	bcf	3,6	;RP1=0, select bank0
  3387     01DB  0821               	movf	?__Umul8_16+1,w
  3388     01DC  00C7               	movwf	___flmul@temp+1
  3389     01DD  0820               	movf	?__Umul8_16,w
  3390     01DE  00C6               	movwf	___flmul@temp
  3391     01DF  0846               	movf	___flmul@temp,w
  3392     01E0  00B6               	movwf	??___flmul
  3393     01E1  0847               	movf	___flmul@temp+1,w
  3394     01E2  00B7               	movwf	??___flmul+1
  3395     01E3  01B8               	clrf	??___flmul+2
  3396     01E4  01B9               	clrf	??___flmul+3
  3397     01E5  0836               	movf	??___flmul,w
  3398     01E6  07C2               	addwf	___flmul@prod,f
  3399     01E7  0837               	movf	??___flmul+1,w
  3400     01E8  1103               	clrz
  3401     01E9  1803               	skipnc
  3402     01EA  3E01               	addlw	1
  3403     01EB  1903               	skipnz
  3404     01EC  29EE               	goto	u2121
  3405     01ED  07C3               	addwf	___flmul@prod+1,f
  3406     01EE                     u2121:
  3407     01EE  0838               	movf	??___flmul+2,w
  3408     01EF  1103               	clrz
  3409     01F0  1803               	skipnc
  3410     01F1  3E01               	addlw	1
  3411     01F2  1903               	skipnz
  3412     01F3  29F5               	goto	u2122
  3413     01F4  07C4               	addwf	___flmul@prod+2,f
  3414     01F5                     u2122:
  3415     01F5  0839               	movf	??___flmul+3,w
  3416     01F6  1103               	clrz
  3417     01F7  1803               	skipnc
  3418     01F8  3E01               	addlw	1
  3419     01F9  1903               	skipnz
  3420     01FA  29FC               	goto	u2123
  3421     01FB  07C5               	addwf	___flmul@prod+3,f
  3422     01FC                     u2123:
  3423     01FC                     l1727:
  3424     01FC  0830               	movf	___flmul@b+2,w
  3425     01FD  00A0               	movwf	__Umul8_16@multiplicand
  3426     01FE  0833               	movf	___flmul@a+1,w
  3427     01FF  120A  158A  2533  120A  118A  	fcall	__Umul8_16
  3428     0204  1283               	bcf	3,5	;RP0=0, select bank0
  3429     0205  1303               	bcf	3,6	;RP1=0, select bank0
  3430     0206  0821               	movf	?__Umul8_16+1,w
  3431     0207  00C7               	movwf	___flmul@temp+1
  3432     0208  0820               	movf	?__Umul8_16,w
  3433     0209  00C6               	movwf	___flmul@temp
  3434     020A                     l1729:
  3435     020A  0846               	movf	___flmul@temp,w
  3436     020B  00B6               	movwf	??___flmul
  3437     020C  0847               	movf	___flmul@temp+1,w
  3438     020D  00B7               	movwf	??___flmul+1
  3439     020E  01B8               	clrf	??___flmul+2
  3440     020F  01B9               	clrf	??___flmul+3
  3441     0210  0836               	movf	??___flmul,w
  3442     0211  07C2               	addwf	___flmul@prod,f
  3443     0212  0837               	movf	??___flmul+1,w
  3444     0213  1103               	clrz
  3445     0214  1803               	skipnc
  3446     0215  3E01               	addlw	1
  3447     0216  1903               	skipnz
  3448     0217  2A19               	goto	u2131
  3449     0218  07C3               	addwf	___flmul@prod+1,f
  3450     0219                     u2131:
  3451     0219  0838               	movf	??___flmul+2,w
  3452     021A  1103               	clrz
  3453     021B  1803               	skipnc
  3454     021C  3E01               	addlw	1
  3455     021D  1903               	skipnz
  3456     021E  2A20               	goto	u2132
  3457     021F  07C4               	addwf	___flmul@prod+2,f
  3458     0220                     u2132:
  3459     0220  0839               	movf	??___flmul+3,w
  3460     0221  1103               	clrz
  3461     0222  1803               	skipnc
  3462     0223  3E01               	addlw	1
  3463     0224  1903               	skipnz
  3464     0225  2A27               	goto	u2133
  3465     0226  07C5               	addwf	___flmul@prod+3,f
  3466     0227                     u2133:
  3467     0227  0830               	movf	___flmul@b+2,w
  3468     0228  00A0               	movwf	__Umul8_16@multiplicand
  3469     0229  0834               	movf	___flmul@a+2,w
  3470     022A  120A  158A  2533  120A  118A  	fcall	__Umul8_16
  3471     022F  1283               	bcf	3,5	;RP0=0, select bank0
  3472     0230  1303               	bcf	3,6	;RP1=0, select bank0
  3473     0231  0821               	movf	?__Umul8_16+1,w
  3474     0232  00C7               	movwf	___flmul@temp+1
  3475     0233  0820               	movf	?__Umul8_16,w
  3476     0234  00C6               	movwf	___flmul@temp
  3477     0235                     l1731:
  3478     0235  0846               	movf	___flmul@temp,w
  3479     0236  00B6               	movwf	??___flmul
  3480     0237  0847               	movf	___flmul@temp+1,w
  3481     0238  00B7               	movwf	??___flmul+1
  3482     0239  01B8               	clrf	??___flmul+2
  3483     023A  01B9               	clrf	??___flmul+3
  3484     023B  3008               	movlw	8
  3485     023C                     u2145:
  3486     023C  1003               	clrc
  3487     023D  0DB6               	rlf	??___flmul,f
  3488     023E  0DB7               	rlf	??___flmul+1,f
  3489     023F  0DB8               	rlf	??___flmul+2,f
  3490     0240  0DB9               	rlf	??___flmul+3,f
  3491     0241                     u2140:
  3492     0241  3EFF               	addlw	-1
  3493     0242  1D03               	skipz
  3494     0243  2A3C               	goto	u2145
  3495     0244  0836               	movf	??___flmul,w
  3496     0245  07C2               	addwf	___flmul@prod,f
  3497     0246  0837               	movf	??___flmul+1,w
  3498     0247  1103               	clrz
  3499     0248  1803               	skipnc
  3500     0249  3E01               	addlw	1
  3501     024A  1903               	skipnz
  3502     024B  2A4D               	goto	u2151
  3503     024C  07C3               	addwf	___flmul@prod+1,f
  3504     024D                     u2151:
  3505     024D  0838               	movf	??___flmul+2,w
  3506     024E  1103               	clrz
  3507     024F  1803               	skipnc
  3508     0250  3E01               	addlw	1
  3509     0251  1903               	skipnz
  3510     0252  2A54               	goto	u2152
  3511     0253  07C4               	addwf	___flmul@prod+2,f
  3512     0254                     u2152:
  3513     0254  0839               	movf	??___flmul+3,w
  3514     0255  1103               	clrz
  3515     0256  1803               	skipnc
  3516     0257  3E01               	addlw	1
  3517     0258  1903               	skipnz
  3518     0259  2A5B               	goto	u2153
  3519     025A  07C5               	addwf	___flmul@prod+3,f
  3520     025B                     u2153:
  3521     025B                     l1733:
  3522     025B  083C               	movf	___flmul@grs,w
  3523     025C  00B6               	movwf	??___flmul
  3524     025D  083D               	movf	___flmul@grs+1,w
  3525     025E  00B7               	movwf	??___flmul+1
  3526     025F  083E               	movf	___flmul@grs+2,w
  3527     0260  00B8               	movwf	??___flmul+2
  3528     0261  083F               	movf	___flmul@grs+3,w
  3529     0262  00B9               	movwf	??___flmul+3
  3530     0263  3018               	movlw	24
  3531     0264                     u2165:
  3532     0264  1003               	clrc
  3533     0265  0CB9               	rrf	??___flmul+3,f
  3534     0266  0CB8               	rrf	??___flmul+2,f
  3535     0267  0CB7               	rrf	??___flmul+1,f
  3536     0268  0CB6               	rrf	??___flmul,f
  3537     0269                     u2160:
  3538     0269  3EFF               	addlw	-1
  3539     026A  1D03               	skipz
  3540     026B  2A64               	goto	u2165
  3541     026C  0836               	movf	??___flmul,w
  3542     026D  07C2               	addwf	___flmul@prod,f
  3543     026E  0837               	movf	??___flmul+1,w
  3544     026F  1103               	clrz
  3545     0270  1803               	skipnc
  3546     0271  3E01               	addlw	1
  3547     0272  1903               	skipnz
  3548     0273  2A75               	goto	u2171
  3549     0274  07C3               	addwf	___flmul@prod+1,f
  3550     0275                     u2171:
  3551     0275  0838               	movf	??___flmul+2,w
  3552     0276  1103               	clrz
  3553     0277  1803               	skipnc
  3554     0278  3E01               	addlw	1
  3555     0279  1903               	skipnz
  3556     027A  2A7C               	goto	u2172
  3557     027B  07C4               	addwf	___flmul@prod+2,f
  3558     027C                     u2172:
  3559     027C  0839               	movf	??___flmul+3,w
  3560     027D  1103               	clrz
  3561     027E  1803               	skipnc
  3562     027F  3E01               	addlw	1
  3563     0280  1903               	skipnz
  3564     0281  2A83               	goto	u2173
  3565     0282  07C5               	addwf	___flmul@prod+3,f
  3566     0283                     u2173:
  3567     0283                     l1735:
  3568     0283  3008               	movlw	8
  3569     0284  00B6               	movwf	??___flmul
  3570     0285                     u2185:
  3571     0285  1003               	clrc
  3572     0286  0DBC               	rlf	___flmul@grs,f
  3573     0287  0DBD               	rlf	___flmul@grs+1,f
  3574     0288  0DBE               	rlf	___flmul@grs+2,f
  3575     0289  0DBF               	rlf	___flmul@grs+3,f
  3576     028A  0BB6               	decfsz	??___flmul,f
  3577     028B  2A85               	goto	u2185
  3578     028C                     l1737:
  3579     028C  0841               	movf	___flmul@bexp,w
  3580     028D  0740               	addwf	___flmul@aexp,w
  3581     028E  00B6               	movwf	??___flmul
  3582     028F  01B7               	clrf	??___flmul+1
  3583     0290  0DB7               	rlf	??___flmul+1,f
  3584     0291  0836               	movf	??___flmul,w
  3585     0292  3E82               	addlw	130
  3586     0293  00C6               	movwf	___flmul@temp
  3587     0294  0837               	movf	??___flmul+1,w
  3588     0295  1803               	skipnc
  3589     0296  3E01               	addlw	1
  3590     0297  3EFF               	addlw	255
  3591     0298  00C7               	movwf	___flmul@temp+1
  3592     0299  2AB7               	goto	l1749
  3593     029A                     l1739:
  3594     029A  3001               	movlw	1
  3595     029B  00B6               	movwf	??___flmul
  3596     029C                     u2195:
  3597     029C  1003               	clrc
  3598     029D  0DC2               	rlf	___flmul@prod,f
  3599     029E  0DC3               	rlf	___flmul@prod+1,f
  3600     029F  0DC4               	rlf	___flmul@prod+2,f
  3601     02A0  0DC5               	rlf	___flmul@prod+3,f
  3602     02A1  0BB6               	decfsz	??___flmul,f
  3603     02A2  2A9C               	goto	u2195
  3604     02A3                     l1741:
  3605     02A3  1FBF               	btfss	___flmul@grs+3,7
  3606     02A4  2AA6               	goto	u2201
  3607     02A5  2AA7               	goto	u2200
  3608     02A6                     u2201:
  3609     02A6  2AA8               	goto	l1745
  3610     02A7                     u2200:
  3611     02A7                     l1743:
  3612     02A7  1442               	bsf	___flmul@prod,0
  3613     02A8                     l1745:
  3614     02A8  3001               	movlw	1
  3615     02A9  00B6               	movwf	??___flmul
  3616     02AA                     u2215:
  3617     02AA  1003               	clrc
  3618     02AB  0DBC               	rlf	___flmul@grs,f
  3619     02AC  0DBD               	rlf	___flmul@grs+1,f
  3620     02AD  0DBE               	rlf	___flmul@grs+2,f
  3621     02AE  0DBF               	rlf	___flmul@grs+3,f
  3622     02AF  0BB6               	decfsz	??___flmul,f
  3623     02B0  2AAA               	goto	u2215
  3624     02B1                     l1747:
  3625     02B1  30FF               	movlw	255
  3626     02B2  07C6               	addwf	___flmul@temp,f
  3627     02B3  1803               	skipnc
  3628     02B4  0AC7               	incf	___flmul@temp+1,f
  3629     02B5  30FF               	movlw	255
  3630     02B6  07C7               	addwf	___flmul@temp+1,f
  3631     02B7                     l1749:
  3632     02B7  1FC4               	btfss	___flmul@prod+2,7
  3633     02B8  2ABA               	goto	u2221
  3634     02B9  2ABB               	goto	u2220
  3635     02BA                     u2221:
  3636     02BA  2A9A               	goto	l1739
  3637     02BB                     u2220:
  3638     02BB                     l1751:
  3639     02BB  01C0               	clrf	___flmul@aexp
  3640     02BC                     l1753:
  3641     02BC  1FBF               	btfss	___flmul@grs+3,7
  3642     02BD  2ABF               	goto	u2231
  3643     02BE  2AC0               	goto	u2230
  3644     02BF                     u2231:
  3645     02BF  2ADC               	goto	l1761
  3646     02C0                     u2230:
  3647     02C0                     l1755:
  3648     02C0  30FF               	movlw	255
  3649     02C1  053C               	andwf	___flmul@grs,w
  3650     02C2  00B6               	movwf	??___flmul
  3651     02C3  30FF               	movlw	255
  3652     02C4  053D               	andwf	___flmul@grs+1,w
  3653     02C5  00B7               	movwf	??___flmul+1
  3654     02C6  30FF               	movlw	255
  3655     02C7  053E               	andwf	___flmul@grs+2,w
  3656     02C8  00B8               	movwf	??___flmul+2
  3657     02C9  307F               	movlw	127
  3658     02CA  053F               	andwf	___flmul@grs+3,w
  3659     02CB  00B9               	movwf	??___flmul+3
  3660     02CC  0839               	movf	??___flmul+3,w
  3661     02CD  0438               	iorwf	??___flmul+2,w
  3662     02CE  0437               	iorwf	??___flmul+1,w
  3663     02CF  0436               	iorwf	??___flmul,w
  3664     02D0  1903               	skipnz
  3665     02D1  2AD3               	goto	u2241
  3666     02D2  2AD4               	goto	u2240
  3667     02D3                     u2241:
  3668     02D3  2AD7               	goto	l674
  3669     02D4                     u2240:
  3670     02D4                     l1757:
  3671     02D4  01C0               	clrf	___flmul@aexp
  3672     02D5  0AC0               	incf	___flmul@aexp,f
  3673     02D6  2ADC               	goto	l1761
  3674     02D7                     l674:
  3675     02D7  1C42               	btfss	___flmul@prod,0
  3676     02D8  2ADA               	goto	u2251
  3677     02D9  2ADB               	goto	u2250
  3678     02DA                     u2251:
  3679     02DA  2ADC               	goto	l1761
  3680     02DB                     u2250:
  3681     02DB  2AD4               	goto	l1757
  3682     02DC                     l1761:
  3683     02DC  0840               	movf	___flmul@aexp,w
  3684     02DD  1903               	btfsc	3,2
  3685     02DE  2AE0               	goto	u2261
  3686     02DF  2AE1               	goto	u2260
  3687     02E0                     u2261:
  3688     02E0  2B12               	goto	l1771
  3689     02E1                     u2260:
  3690     02E1                     l1763:
  3691     02E1  3001               	movlw	1
  3692     02E2  07C2               	addwf	___flmul@prod,f
  3693     02E3  3000               	movlw	0
  3694     02E4  1803               	skipnc
  3695     02E5  3001               	movlw	1
  3696     02E6  07C3               	addwf	___flmul@prod+1,f
  3697     02E7  3000               	movlw	0
  3698     02E8  1803               	skipnc
  3699     02E9  3001               	movlw	1
  3700     02EA  07C4               	addwf	___flmul@prod+2,f
  3701     02EB  3000               	movlw	0
  3702     02EC  1803               	skipnc
  3703     02ED  3001               	movlw	1
  3704     02EE  07C5               	addwf	___flmul@prod+3,f
  3705     02EF                     l1765:
  3706     02EF  1C45               	btfss	___flmul@prod+3,0
  3707     02F0  2AF2               	goto	u2271
  3708     02F1  2AF3               	goto	u2270
  3709     02F2                     u2271:
  3710     02F2  2B12               	goto	l1771
  3711     02F3                     u2270:
  3712     02F3                     l1767:
  3713     02F3  0842               	movf	___flmul@prod,w
  3714     02F4  00B6               	movwf	??___flmul
  3715     02F5  0843               	movf	___flmul@prod+1,w
  3716     02F6  00B7               	movwf	??___flmul+1
  3717     02F7  0844               	movf	___flmul@prod+2,w
  3718     02F8  00B8               	movwf	??___flmul+2
  3719     02F9  0845               	movf	___flmul@prod+3,w
  3720     02FA  00B9               	movwf	??___flmul+3
  3721     02FB  3001               	movlw	1
  3722     02FC  00BA               	movwf	??___flmul+4
  3723     02FD                     u2285:
  3724     02FD  0D39               	rlf	??___flmul+3,w
  3725     02FE  0CB9               	rrf	??___flmul+3,f
  3726     02FF  0CB8               	rrf	??___flmul+2,f
  3727     0300  0CB7               	rrf	??___flmul+1,f
  3728     0301  0CB6               	rrf	??___flmul,f
  3729     0302                     u2280:
  3730     0302  0BBA               	decfsz	??___flmul+4,f
  3731     0303  2AFD               	goto	u2285
  3732     0304  0839               	movf	??___flmul+3,w
  3733     0305  00C5               	movwf	___flmul@prod+3
  3734     0306  0838               	movf	??___flmul+2,w
  3735     0307  00C4               	movwf	___flmul@prod+2
  3736     0308  0837               	movf	??___flmul+1,w
  3737     0309  00C3               	movwf	___flmul@prod+1
  3738     030A  0836               	movf	??___flmul,w
  3739     030B  00C2               	movwf	___flmul@prod
  3740     030C                     l1769:
  3741     030C  3001               	movlw	1
  3742     030D  07C6               	addwf	___flmul@temp,f
  3743     030E  1803               	skipnc
  3744     030F  0AC7               	incf	___flmul@temp+1,f
  3745     0310  3000               	movlw	0
  3746     0311  07C7               	addwf	___flmul@temp+1,f
  3747     0312                     l1771:
  3748     0312  0847               	movf	___flmul@temp+1,w
  3749     0313  3A80               	xorlw	128
  3750     0314  00FF               	movwf	btemp+1
  3751     0315  3080               	movlw	128
  3752     0316  027F               	subwf	btemp+1,w
  3753     0317  1D03               	skipz
  3754     0318  2B1B               	goto	u2295
  3755     0319  30FF               	movlw	255
  3756     031A  0246               	subwf	___flmul@temp,w
  3757     031B                     u2295:
  3758     031B  1C03               	skipc
  3759     031C  2B1E               	goto	u2291
  3760     031D  2B1F               	goto	u2290
  3761     031E                     u2291:
  3762     031E  2B2A               	goto	l1775
  3763     031F                     u2290:
  3764     031F                     l1773:
  3765     031F  307F               	movlw	127
  3766     0320  1283               	bcf	3,5	;RP0=0, select bank0
  3767     0321  1303               	bcf	3,6	;RP1=0, select bank0
  3768     0322  00C5               	movwf	___flmul@prod+3
  3769     0323  3080               	movlw	128
  3770     0324  00C4               	movwf	___flmul@prod+2
  3771     0325  3000               	movlw	0
  3772     0326  00C3               	movwf	___flmul@prod+1
  3773     0327  3000               	movlw	0
  3774     0328  00C2               	movwf	___flmul@prod
  3775     0329  2B5B               	goto	l680
  3776     032A                     l1775:
  3777     032A  1283               	bcf	3,5	;RP0=0, select bank0
  3778     032B  1303               	bcf	3,6	;RP1=0, select bank0
  3779     032C  0847               	movf	___flmul@temp+1,w
  3780     032D  3A80               	xorlw	128
  3781     032E  00FF               	movwf	btemp+1
  3782     032F  3080               	movlw	128
  3783     0330  027F               	subwf	btemp+1,w
  3784     0331  1D03               	skipz
  3785     0332  2B35               	goto	u2305
  3786     0333  3001               	movlw	1
  3787     0334  0246               	subwf	___flmul@temp,w
  3788     0335                     u2305:
  3789     0335  1803               	skipnc
  3790     0336  2B38               	goto	u2301
  3791     0337  2B39               	goto	u2300
  3792     0338                     u2301:
  3793     0338  2B45               	goto	l1781
  3794     0339                     u2300:
  3795     0339                     l1777:
  3796     0339  3000               	movlw	0
  3797     033A  1283               	bcf	3,5	;RP0=0, select bank0
  3798     033B  1303               	bcf	3,6	;RP1=0, select bank0
  3799     033C  00C5               	movwf	___flmul@prod+3
  3800     033D  3000               	movlw	0
  3801     033E  00C4               	movwf	___flmul@prod+2
  3802     033F  3000               	movlw	0
  3803     0340  00C3               	movwf	___flmul@prod+1
  3804     0341  3000               	movlw	0
  3805     0342  00C2               	movwf	___flmul@prod
  3806     0343                     l1779:
  3807     0343  01BB               	clrf	___flmul@sign
  3808     0344  2B5B               	goto	l680
  3809     0345                     l1781:
  3810     0345  1283               	bcf	3,5	;RP0=0, select bank0
  3811     0346  1303               	bcf	3,6	;RP1=0, select bank0
  3812     0347  0846               	movf	___flmul@temp,w
  3813     0348  00C1               	movwf	___flmul@bexp
  3814     0349  30FF               	movlw	255
  3815     034A  05C2               	andwf	___flmul@prod,f
  3816     034B  30FF               	movlw	255
  3817     034C  05C3               	andwf	___flmul@prod+1,f
  3818     034D  307F               	movlw	127
  3819     034E  05C4               	andwf	___flmul@prod+2,f
  3820     034F  3000               	movlw	0
  3821     0350  05C5               	andwf	___flmul@prod+3,f
  3822     0351                     l1783:
  3823     0351  1C41               	btfss	___flmul@bexp,0
  3824     0352  2B54               	goto	u2311
  3825     0353  2B55               	goto	u2310
  3826     0354                     u2311:
  3827     0354  2B56               	goto	l1787
  3828     0355                     u2310:
  3829     0355                     l1785:
  3830     0355  17C4               	bsf	___flmul@prod+2,7
  3831     0356                     l1787:
  3832     0356  0841               	movf	___flmul@bexp,w
  3833     0357  00B6               	movwf	??___flmul
  3834     0358  1003               	clrc
  3835     0359  0C36               	rrf	??___flmul,w
  3836     035A  00C5               	movwf	___flmul@prod+3
  3837     035B                     l680:
  3838     035B  083B               	movf	___flmul@sign,w
  3839     035C  00B6               	movwf	??___flmul
  3840     035D  0836               	movf	??___flmul,w
  3841     035E  04C5               	iorwf	___flmul@prod+3,f
  3842     035F                     l1789:
  3843     035F  0845               	movf	___flmul@prod+3,w
  3844     0360  00B1               	movwf	?___flmul+3
  3845     0361  0844               	movf	___flmul@prod+2,w
  3846     0362  00B0               	movwf	?___flmul+2
  3847     0363  0843               	movf	___flmul@prod+1,w
  3848     0364  00AF               	movwf	?___flmul+1
  3849     0365  0842               	movf	___flmul@prod,w
  3850     0366  00AE               	movwf	?___flmul
  3851     0367                     l668:
  3852     0367  0008               	return
  3853     0368                     __end_of___flmul:
  3854                           
  3855                           	psect	text16
  3856     0D33                     __ptext16:	
  3857 ;; *************** function __Umul8_16 *****************
  3858 ;; Defined at:
  3859 ;;		line 4 in file "C:\Program Files\Microchip\xc8\v2.40\pic\sources\c90\common\Umul8_16.c"
  3860 ;; Parameters:    Size  Location     Type
  3861 ;;  multiplier      1    wreg     unsigned char 
  3862 ;;  multiplicand    1    0[BANK0 ] unsigned char 
  3863 ;; Auto vars:     Size  Location     Type
  3864 ;;  multiplier      1    8[BANK0 ] unsigned char 
  3865 ;;  word_mpld       2    6[BANK0 ] unsigned int 
  3866 ;;  product         2    4[BANK0 ] unsigned int 
  3867 ;; Return value:  Size  Location     Type
  3868 ;;                  2    0[BANK0 ] unsigned int 
  3869 ;; Registers used:
  3870 ;;		wreg, status,2, status,0
  3871 ;; Tracked objects:
  3872 ;;		On entry : 0/0
  3873 ;;		On exit  : 0/0
  3874 ;;		Unchanged: 0/0
  3875 ;; Data sizes:     COMMON   BANK0   BANK1   BANK3   BANK2
  3876 ;;      Params:         0       2       0       0       0
  3877 ;;      Locals:         0       5       0       0       0
  3878 ;;      Temps:          0       2       0       0       0
  3879 ;;      Totals:         0       9       0       0       0
  3880 ;;Total ram usage:        9 bytes
  3881 ;; Hardware stack levels used: 1
  3882 ;; Hardware stack levels required when called: 1
  3883 ;; This function calls:
  3884 ;;		Nothing
  3885 ;; This function is called by:
  3886 ;;		___flmul
  3887 ;; This function uses a non-reentrant model
  3888 ;;
  3889                           
  3890     0D33                     __Umul8_16:	
  3891                           ;psect for function __Umul8_16
  3892                           
  3893                           
  3894                           ;incstack = 0
  3895                           ; Regs used in __Umul8_16: [wreg+status,2+status,0]
  3896                           ;__Umul8_16@multiplier stored from wreg
  3897     0D33  1283               	bcf	3,5	;RP0=0, select bank0
  3898     0D34  1303               	bcf	3,6	;RP1=0, select bank0
  3899     0D35  00A8               	movwf	__Umul8_16@multiplier
  3900     0D36                     l1409:
  3901     0D36  01A4               	clrf	__Umul8_16@product
  3902     0D37  01A5               	clrf	__Umul8_16@product+1
  3903     0D38                     l1411:
  3904     0D38  0820               	movf	__Umul8_16@multiplicand,w
  3905     0D39  00A2               	movwf	??__Umul8_16
  3906     0D3A  01A3               	clrf	??__Umul8_16+1
  3907     0D3B  0822               	movf	??__Umul8_16,w
  3908     0D3C  00A6               	movwf	__Umul8_16@word_mpld
  3909     0D3D  0823               	movf	??__Umul8_16+1,w
  3910     0D3E  00A7               	movwf	__Umul8_16@word_mpld+1
  3911     0D3F                     l1413:
  3912     0D3F  1C28               	btfss	__Umul8_16@multiplier,0
  3913     0D40  2D42               	goto	u1361
  3914     0D41  2D43               	goto	u1360
  3915     0D42                     u1361:
  3916     0D42  2D49               	goto	l687
  3917     0D43                     u1360:
  3918     0D43                     l1415:
  3919     0D43  0826               	movf	__Umul8_16@word_mpld,w
  3920     0D44  07A4               	addwf	__Umul8_16@product,f
  3921     0D45  1803               	skipnc
  3922     0D46  0AA5               	incf	__Umul8_16@product+1,f
  3923     0D47  0827               	movf	__Umul8_16@word_mpld+1,w
  3924     0D48  07A5               	addwf	__Umul8_16@product+1,f
  3925     0D49                     l687:
  3926     0D49  3001               	movlw	1
  3927     0D4A                     u1375:
  3928     0D4A  1003               	clrc
  3929     0D4B  0DA6               	rlf	__Umul8_16@word_mpld,f
  3930     0D4C  0DA7               	rlf	__Umul8_16@word_mpld+1,f
  3931     0D4D  3EFF               	addlw	-1
  3932     0D4E  1D03               	skipz
  3933     0D4F  2D4A               	goto	u1375
  3934     0D50  1003               	clrc
  3935     0D51  0CA8               	rrf	__Umul8_16@multiplier,f
  3936     0D52                     l1417:
  3937     0D52  0828               	movf	__Umul8_16@multiplier,w
  3938     0D53  1D03               	btfss	3,2
  3939     0D54  2D56               	goto	u1381
  3940     0D55  2D57               	goto	u1380
  3941     0D56                     u1381:
  3942     0D56  2D3F               	goto	l1413
  3943     0D57                     u1380:
  3944     0D57                     l1419:
  3945     0D57  0825               	movf	__Umul8_16@product+1,w
  3946     0D58  00A1               	movwf	?__Umul8_16+1
  3947     0D59  0824               	movf	__Umul8_16@product,w
  3948     0D5A  00A0               	movwf	?__Umul8_16
  3949     0D5B                     l689:
  3950     0D5B  0008               	return
  3951     0D5C                     __end_of__Umul8_16:
  3952                           
  3953                           	psect	text17
  3954     0368                     __ptext17:	
  3955 ;; *************** function ___fladd *****************
  3956 ;; Defined at:
  3957 ;;		line 10 in file "C:\Program Files\Microchip\xc8\v2.40\pic\sources\c90\common\sprcadd.c"
  3958 ;; Parameters:    Size  Location     Type
  3959 ;;  b               4   40[BANK0 ] unsigned int 
  3960 ;;  a               4   44[BANK0 ] unsigned int 
  3961 ;; Auto vars:     Size  Location     Type
  3962 ;;  grs             1   59[BANK0 ] unsigned char 
  3963 ;;  bexp            1   58[BANK0 ] unsigned char 
  3964 ;;  aexp            1   57[BANK0 ] unsigned char 
  3965 ;;  signs           1   56[BANK0 ] unsigned char 
  3966 ;; Return value:  Size  Location     Type
  3967 ;;                  4   40[BANK0 ] unsigned char 
  3968 ;; Registers used:
  3969 ;;		wreg, status,2, status,0, btemp+1
  3970 ;; Tracked objects:
  3971 ;;		On entry : 0/0
  3972 ;;		On exit  : 0/0
  3973 ;;		Unchanged: 0/0
  3974 ;; Data sizes:     COMMON   BANK0   BANK1   BANK3   BANK2
  3975 ;;      Params:         0       8       0       0       0
  3976 ;;      Locals:         0       4       0       0       0
  3977 ;;      Temps:          0       8       0       0       0
  3978 ;;      Totals:         0      20       0       0       0
  3979 ;;Total ram usage:       20 bytes
  3980 ;; Hardware stack levels used: 1
  3981 ;; Hardware stack levels required when called: 1
  3982 ;; This function calls:
  3983 ;;		Nothing
  3984 ;; This function is called by:
  3985 ;;		_PWMtmr0
  3986 ;;		_PWMtmr1
  3987 ;;		_mapeo
  3988 ;; This function uses a non-reentrant model
  3989 ;;
  3990                           
  3991     0368                     ___fladd:	
  3992                           ;psect for function ___fladd
  3993                           
  3994     0368                     l1459:	
  3995                           ;incstack = 0
  3996                           ; Regs used in ___fladd: [wreg+status,2+status,0+btemp+1]
  3997                           
  3998     0368  1283               	bcf	3,5	;RP0=0, select bank0
  3999     0369  1303               	bcf	3,6	;RP1=0, select bank0
  4000     036A  084B               	movf	___fladd@b+3,w
  4001     036B  3980               	andlw	128
  4002     036C  00D8               	movwf	___fladd@signs
  4003     036D                     l1461:
  4004     036D  084B               	movf	___fladd@b+3,w
  4005     036E  00D0               	movwf	??___fladd
  4006     036F  0750               	addwf	??___fladd,w
  4007     0370  00DA               	movwf	___fladd@bexp
  4008     0371                     l1463:
  4009     0371  1FCA               	btfss	___fladd@b+2,7
  4010     0372  2B74               	goto	u1491
  4011     0373  2B75               	goto	u1490
  4012     0374                     u1491:
  4013     0374  2B76               	goto	l1467
  4014     0375                     u1490:
  4015     0375                     l1465:
  4016     0375  145A               	bsf	___fladd@bexp,0
  4017     0376                     l1467:
  4018     0376  085A               	movf	___fladd@bexp,w
  4019     0377  1903               	btfsc	3,2
  4020     0378  2B7A               	goto	u1501
  4021     0379  2B7B               	goto	u1500
  4022     037A                     u1501:
  4023     037A  2B8B               	goto	l1477
  4024     037B                     u1500:
  4025     037B                     l1469:
  4026     037B  0A5A               	incf	___fladd@bexp,w
  4027     037C  1D03               	btfss	3,2
  4028     037D  2B7F               	goto	u1511
  4029     037E  2B80               	goto	u1510
  4030     037F                     u1511:
  4031     037F  2B88               	goto	l1473
  4032     0380                     u1510:
  4033     0380                     l1471:
  4034     0380  3000               	movlw	0
  4035     0381  00CB               	movwf	___fladd@b+3
  4036     0382  3000               	movlw	0
  4037     0383  00CA               	movwf	___fladd@b+2
  4038     0384  3000               	movlw	0
  4039     0385  00C9               	movwf	___fladd@b+1
  4040     0386  3000               	movlw	0
  4041     0387  00C8               	movwf	___fladd@b
  4042     0388                     l1473:
  4043     0388  17CA               	bsf	___fladd@b+2,7
  4044     0389                     l1475:
  4045     0389  01CB               	clrf	___fladd@b+3
  4046     038A  2B93               	goto	l1479
  4047     038B                     l1477:
  4048     038B  3000               	movlw	0
  4049     038C  00CB               	movwf	___fladd@b+3
  4050     038D  3000               	movlw	0
  4051     038E  00CA               	movwf	___fladd@b+2
  4052     038F  3000               	movlw	0
  4053     0390  00C9               	movwf	___fladd@b+1
  4054     0391  3000               	movlw	0
  4055     0392  00C8               	movwf	___fladd@b
  4056     0393                     l1479:
  4057     0393  084F               	movf	___fladd@a+3,w
  4058     0394  3980               	andlw	128
  4059     0395  00D9               	movwf	___fladd@aexp
  4060     0396                     l1481:
  4061     0396  0859               	movf	___fladd@aexp,w
  4062     0397  0658               	xorwf	___fladd@signs,w
  4063     0398  1903               	skipnz
  4064     0399  2B9B               	goto	u1521
  4065     039A  2B9C               	goto	u1520
  4066     039B                     u1521:
  4067     039B  2B9D               	goto	l1485
  4068     039C                     u1520:
  4069     039C                     l1483:
  4070     039C  1758               	bsf	___fladd@signs,6
  4071     039D                     l1485:
  4072     039D  084F               	movf	___fladd@a+3,w
  4073     039E  00D0               	movwf	??___fladd
  4074     039F  0750               	addwf	??___fladd,w
  4075     03A0  00D9               	movwf	___fladd@aexp
  4076     03A1                     l1487:
  4077     03A1  1FCE               	btfss	___fladd@a+2,7
  4078     03A2  2BA4               	goto	u1531
  4079     03A3  2BA5               	goto	u1530
  4080     03A4                     u1531:
  4081     03A4  2BA6               	goto	l1491
  4082     03A5                     u1530:
  4083     03A5                     l1489:
  4084     03A5  1459               	bsf	___fladd@aexp,0
  4085     03A6                     l1491:
  4086     03A6  0859               	movf	___fladd@aexp,w
  4087     03A7  1903               	btfsc	3,2
  4088     03A8  2BAA               	goto	u1541
  4089     03A9  2BAB               	goto	u1540
  4090     03AA                     u1541:
  4091     03AA  2BBB               	goto	l1501
  4092     03AB                     u1540:
  4093     03AB                     l1493:
  4094     03AB  0A59               	incf	___fladd@aexp,w
  4095     03AC  1D03               	btfss	3,2
  4096     03AD  2BAF               	goto	u1551
  4097     03AE  2BB0               	goto	u1550
  4098     03AF                     u1551:
  4099     03AF  2BB8               	goto	l1497
  4100     03B0                     u1550:
  4101     03B0                     l1495:
  4102     03B0  3000               	movlw	0
  4103     03B1  00CF               	movwf	___fladd@a+3
  4104     03B2  3000               	movlw	0
  4105     03B3  00CE               	movwf	___fladd@a+2
  4106     03B4  3000               	movlw	0
  4107     03B5  00CD               	movwf	___fladd@a+1
  4108     03B6  3000               	movlw	0
  4109     03B7  00CC               	movwf	___fladd@a
  4110     03B8                     l1497:
  4111     03B8  17CE               	bsf	___fladd@a+2,7
  4112     03B9                     l1499:
  4113     03B9  01CF               	clrf	___fladd@a+3
  4114     03BA  2BC3               	goto	l572
  4115     03BB                     l1501:
  4116     03BB  3000               	movlw	0
  4117     03BC  00CF               	movwf	___fladd@a+3
  4118     03BD  3000               	movlw	0
  4119     03BE  00CE               	movwf	___fladd@a+2
  4120     03BF  3000               	movlw	0
  4121     03C0  00CD               	movwf	___fladd@a+1
  4122     03C1  3000               	movlw	0
  4123     03C2  00CC               	movwf	___fladd@a
  4124     03C3                     l572:
  4125     03C3  085A               	movf	___fladd@bexp,w
  4126     03C4  0259               	subwf	___fladd@aexp,w
  4127     03C5  1803               	skipnc
  4128     03C6  2BC8               	goto	u1561
  4129     03C7  2BC9               	goto	u1560
  4130     03C8                     u1561:
  4131     03C8  2BEF               	goto	l1537
  4132     03C9                     u1560:
  4133     03C9                     l1503:
  4134     03C9  1F58               	btfss	___fladd@signs,6
  4135     03CA  2BCC               	goto	u1571
  4136     03CB  2BCD               	goto	u1570
  4137     03CC                     u1571:
  4138     03CC  2BD1               	goto	l1507
  4139     03CD                     u1570:
  4140     03CD                     l1505:
  4141     03CD  3080               	movlw	128
  4142     03CE  00D0               	movwf	??___fladd
  4143     03CF  0850               	movf	??___fladd,w
  4144     03D0  06D8               	xorwf	___fladd@signs,f
  4145     03D1                     l1507:
  4146     03D1  085A               	movf	___fladd@bexp,w
  4147     03D2  00DB               	movwf	___fladd@grs
  4148     03D3                     l1509:
  4149     03D3  0859               	movf	___fladd@aexp,w
  4150     03D4  00DA               	movwf	___fladd@bexp
  4151     03D5                     l1511:
  4152     03D5  085B               	movf	___fladd@grs,w
  4153     03D6  00D9               	movwf	___fladd@aexp
  4154     03D7                     l1513:
  4155     03D7  0848               	movf	___fladd@b,w
  4156     03D8  00DB               	movwf	___fladd@grs
  4157     03D9                     l1515:
  4158     03D9  084C               	movf	___fladd@a,w
  4159     03DA  00C8               	movwf	___fladd@b
  4160     03DB                     l1517:
  4161     03DB  085B               	movf	___fladd@grs,w
  4162     03DC  00CC               	movwf	___fladd@a
  4163     03DD                     l1519:
  4164     03DD  0849               	movf	___fladd@b+1,w
  4165     03DE  00DB               	movwf	___fladd@grs
  4166     03DF                     l1521:
  4167     03DF  084D               	movf	___fladd@a+1,w
  4168     03E0  00C9               	movwf	___fladd@b+1
  4169     03E1                     l1523:
  4170     03E1  085B               	movf	___fladd@grs,w
  4171     03E2  00CD               	movwf	___fladd@a+1
  4172     03E3                     l1525:
  4173     03E3  084A               	movf	___fladd@b+2,w
  4174     03E4  00DB               	movwf	___fladd@grs
  4175     03E5                     l1527:
  4176     03E5  084E               	movf	___fladd@a+2,w
  4177     03E6  00CA               	movwf	___fladd@b+2
  4178     03E7                     l1529:
  4179     03E7  085B               	movf	___fladd@grs,w
  4180     03E8  00CE               	movwf	___fladd@a+2
  4181     03E9                     l1531:
  4182     03E9  084B               	movf	___fladd@b+3,w
  4183     03EA  00DB               	movwf	___fladd@grs
  4184     03EB                     l1533:
  4185     03EB  084F               	movf	___fladd@a+3,w
  4186     03EC  00CB               	movwf	___fladd@b+3
  4187     03ED                     l1535:
  4188     03ED  085B               	movf	___fladd@grs,w
  4189     03EE  00CF               	movwf	___fladd@a+3
  4190     03EF                     l1537:
  4191     03EF  01DB               	clrf	___fladd@grs
  4192     03F0                     l1539:
  4193     03F0  0859               	movf	___fladd@aexp,w
  4194     03F1  00D0               	movwf	??___fladd
  4195     03F2  01D1               	clrf	??___fladd+1
  4196     03F3  0851               	movf	??___fladd+1,w
  4197     03F4  00D3               	movwf	??___fladd+3
  4198     03F5  085A               	movf	___fladd@bexp,w
  4199     03F6  0250               	subwf	??___fladd,w
  4200     03F7  00D2               	movwf	??___fladd+2
  4201     03F8  1C03               	skipc
  4202     03F9  03D3               	decf	??___fladd+3,f
  4203     03FA  0853               	movf	??___fladd+3,w
  4204     03FB  3A80               	xorlw	128
  4205     03FC  00FF               	movwf	btemp+1
  4206     03FD  3080               	movlw	128
  4207     03FE  027F               	subwf	btemp+1,w
  4208     03FF  1D03               	skipz
  4209     0400  2C03               	goto	u1585
  4210     0401  301A               	movlw	26
  4211     0402  0252               	subwf	??___fladd+2,w
  4212     0403                     u1585:
  4213     0403  1C03               	skipc
  4214     0404  2C06               	goto	u1581
  4215     0405  2C07               	goto	u1580
  4216     0406                     u1581:
  4217     0406  2C3E               	goto	l1555
  4218     0407                     u1580:
  4219     0407                     l1541:
  4220     0407  1283               	bcf	3,5	;RP0=0, select bank0
  4221     0408  1303               	bcf	3,6	;RP1=0, select bank0
  4222     0409  084B               	movf	___fladd@b+3,w
  4223     040A  044A               	iorwf	___fladd@b+2,w
  4224     040B  0449               	iorwf	___fladd@b+1,w
  4225     040C  0448               	iorwf	___fladd@b,w
  4226     040D  1D03               	skipz
  4227     040E  2C10               	goto	u1591
  4228     040F  2C12               	goto	u1590
  4229     0410                     u1591:
  4230     0410  3001               	movlw	1
  4231     0411  2C13               	goto	u1600
  4232     0412                     u1590:
  4233     0412  3000               	movlw	0
  4234     0413                     u1600:
  4235     0413  00DB               	movwf	___fladd@grs
  4236     0414  3000               	movlw	0
  4237     0415  00CB               	movwf	___fladd@b+3
  4238     0416  3000               	movlw	0
  4239     0417  00CA               	movwf	___fladd@b+2
  4240     0418  3000               	movlw	0
  4241     0419  00C9               	movwf	___fladd@b+1
  4242     041A  3000               	movlw	0
  4243     041B  00C8               	movwf	___fladd@b
  4244     041C  0859               	movf	___fladd@aexp,w
  4245     041D  00DA               	movwf	___fladd@bexp
  4246     041E  2C46               	goto	l576
  4247     041F                     l578:
  4248     041F  1C5B               	btfss	___fladd@grs,0
  4249     0420  2C22               	goto	u1611
  4250     0421  2C23               	goto	u1610
  4251     0422                     u1611:
  4252     0422  2C2A               	goto	l1545
  4253     0423                     u1610:
  4254     0423                     l1543:
  4255     0423  085B               	movf	___fladd@grs,w
  4256     0424  00D0               	movwf	??___fladd
  4257     0425  1003               	clrc
  4258     0426  0C50               	rrf	??___fladd,w
  4259     0427  3801               	iorlw	1
  4260     0428  00DB               	movwf	___fladd@grs
  4261     0429  2C2C               	goto	l1547
  4262     042A                     l1545:
  4263     042A  1003               	clrc
  4264     042B  0CDB               	rrf	___fladd@grs,f
  4265     042C                     l1547:
  4266     042C  1C48               	btfss	___fladd@b,0
  4267     042D  2C2F               	goto	u1621
  4268     042E  2C30               	goto	u1620
  4269     042F                     u1621:
  4270     042F  2C31               	goto	l1551
  4271     0430                     u1620:
  4272     0430                     l1549:
  4273     0430  17DB               	bsf	___fladd@grs,7
  4274     0431                     l1551:
  4275     0431  3001               	movlw	1
  4276     0432  00D0               	movwf	??___fladd
  4277     0433                     u1635:
  4278     0433  0D4B               	rlf	___fladd@b+3,w
  4279     0434  0CCB               	rrf	___fladd@b+3,f
  4280     0435  0CCA               	rrf	___fladd@b+2,f
  4281     0436  0CC9               	rrf	___fladd@b+1,f
  4282     0437  0CC8               	rrf	___fladd@b,f
  4283     0438  0BD0               	decfsz	??___fladd& (0+127),f
  4284     0439  2C33               	goto	u1635
  4285     043A                     l1553:
  4286     043A  3001               	movlw	1
  4287     043B  00D0               	movwf	??___fladd
  4288     043C  0850               	movf	??___fladd,w
  4289     043D  07DA               	addwf	___fladd@bexp,f
  4290     043E                     l1555:
  4291     043E  1283               	bcf	3,5	;RP0=0, select bank0
  4292     043F  1303               	bcf	3,6	;RP1=0, select bank0
  4293     0440  0859               	movf	___fladd@aexp,w
  4294     0441  025A               	subwf	___fladd@bexp,w
  4295     0442  1C03               	skipc
  4296     0443  2C45               	goto	u1641
  4297     0444  2C46               	goto	u1640
  4298     0445                     u1641:
  4299     0445  2C1F               	goto	l578
  4300     0446                     u1640:
  4301     0446                     l576:
  4302     0446  1B58               	btfsc	___fladd@signs,6
  4303     0447  2C49               	goto	u1651
  4304     0448  2C4A               	goto	u1650
  4305     0449                     u1651:
  4306     0449  2C93               	goto	l1581
  4307     044A                     u1650:
  4308     044A                     l1557:
  4309     044A  085A               	movf	___fladd@bexp,w
  4310     044B  1D03               	btfss	3,2
  4311     044C  2C4E               	goto	u1661
  4312     044D  2C4F               	goto	u1660
  4313     044E                     u1661:
  4314     044E  2C58               	goto	l1563
  4315     044F                     u1660:
  4316     044F                     l1559:
  4317     044F  3000               	movlw	0
  4318     0450  00CB               	movwf	?___fladd+3
  4319     0451  3000               	movlw	0
  4320     0452  00CA               	movwf	?___fladd+2
  4321     0453  3000               	movlw	0
  4322     0454  00C9               	movwf	?___fladd+1
  4323     0455  3000               	movlw	0
  4324     0456  00C8               	movwf	?___fladd
  4325     0457  2DBF               	goto	l585
  4326     0458                     l1563:
  4327     0458  084C               	movf	___fladd@a,w
  4328     0459  07C8               	addwf	___fladd@b,f
  4329     045A  084D               	movf	___fladd@a+1,w
  4330     045B  1103               	clrz
  4331     045C  1803               	skipnc
  4332     045D  3E01               	addlw	1
  4333     045E  1903               	skipnz
  4334     045F  2C61               	goto	u1671
  4335     0460  07C9               	addwf	___fladd@b+1,f
  4336     0461                     u1671:
  4337     0461  084E               	movf	___fladd@a+2,w
  4338     0462  1103               	clrz
  4339     0463  1803               	skipnc
  4340     0464  3E01               	addlw	1
  4341     0465  1903               	skipnz
  4342     0466  2C68               	goto	u1672
  4343     0467  07CA               	addwf	___fladd@b+2,f
  4344     0468                     u1672:
  4345     0468  084F               	movf	___fladd@a+3,w
  4346     0469  1103               	clrz
  4347     046A  1803               	skipnc
  4348     046B  3E01               	addlw	1
  4349     046C  1903               	skipnz
  4350     046D  2C6F               	goto	u1673
  4351     046E  07CB               	addwf	___fladd@b+3,f
  4352     046F                     u1673:
  4353     046F                     l1565:
  4354     046F  1C4B               	btfss	___fladd@b+3,0
  4355     0470  2C72               	goto	u1681
  4356     0471  2C73               	goto	u1680
  4357     0472                     u1681:
  4358     0472  2D47               	goto	l1615
  4359     0473                     u1680:
  4360     0473                     l1567:
  4361     0473  1C5B               	btfss	___fladd@grs,0
  4362     0474  2C76               	goto	u1691
  4363     0475  2C77               	goto	u1690
  4364     0476                     u1691:
  4365     0476  2C7E               	goto	l1571
  4366     0477                     u1690:
  4367     0477                     l1569:
  4368     0477  085B               	movf	___fladd@grs,w
  4369     0478  00D0               	movwf	??___fladd
  4370     0479  1003               	clrc
  4371     047A  0C50               	rrf	??___fladd,w
  4372     047B  3801               	iorlw	1
  4373     047C  00DB               	movwf	___fladd@grs
  4374     047D  2C80               	goto	l1573
  4375     047E                     l1571:
  4376     047E  1003               	clrc
  4377     047F  0CDB               	rrf	___fladd@grs,f
  4378     0480                     l1573:
  4379     0480  1C48               	btfss	___fladd@b,0
  4380     0481  2C83               	goto	u1701
  4381     0482  2C84               	goto	u1700
  4382     0483                     u1701:
  4383     0483  2C85               	goto	l1577
  4384     0484                     u1700:
  4385     0484                     l1575:
  4386     0484  17DB               	bsf	___fladd@grs,7
  4387     0485                     l1577:
  4388     0485  3001               	movlw	1
  4389     0486  00D0               	movwf	??___fladd
  4390     0487                     u1715:
  4391     0487  0D4B               	rlf	___fladd@b+3,w
  4392     0488  0CCB               	rrf	___fladd@b+3,f
  4393     0489  0CCA               	rrf	___fladd@b+2,f
  4394     048A  0CC9               	rrf	___fladd@b+1,f
  4395     048B  0CC8               	rrf	___fladd@b,f
  4396     048C  0BD0               	decfsz	??___fladd& (0+127),f
  4397     048D  2C87               	goto	u1715
  4398     048E                     l1579:
  4399     048E  3001               	movlw	1
  4400     048F  00D0               	movwf	??___fladd
  4401     0490  0850               	movf	??___fladd,w
  4402     0491  07DA               	addwf	___fladd@bexp,f
  4403     0492  2D47               	goto	l1615
  4404     0493                     l1581:
  4405     0493  084B               	movf	___fladd@b+3,w
  4406     0494  3A80               	xorlw	128
  4407     0495  00FF               	movwf	btemp+1
  4408     0496  084F               	movf	___fladd@a+3,w
  4409     0497  3A80               	xorlw	128
  4410     0498  027F               	subwf	btemp+1,w
  4411     0499  1D03               	skipz
  4412     049A  2CA5               	goto	u1723
  4413     049B  084E               	movf	___fladd@a+2,w
  4414     049C  024A               	subwf	___fladd@b+2,w
  4415     049D  1D03               	skipz
  4416     049E  2CA5               	goto	u1723
  4417     049F  084D               	movf	___fladd@a+1,w
  4418     04A0  0249               	subwf	___fladd@b+1,w
  4419     04A1  1D03               	skipz
  4420     04A2  2CA5               	goto	u1723
  4421     04A3  084C               	movf	___fladd@a,w
  4422     04A4  0248               	subwf	___fladd@b,w
  4423     04A5                     u1723:
  4424     04A5  1803               	skipnc
  4425     04A6  2CA8               	goto	u1721
  4426     04A7  2CA9               	goto	u1720
  4427     04A8                     u1721:
  4428     04A8  2D01               	goto	l1591
  4429     04A9                     u1720:
  4430     04A9                     l1583:
  4431     04A9  30FF               	movlw	255
  4432     04AA  00D0               	movwf	??___fladd
  4433     04AB  30FF               	movlw	255
  4434     04AC  00D1               	movwf	??___fladd+1
  4435     04AD  30FF               	movlw	255
  4436     04AE  00D2               	movwf	??___fladd+2
  4437     04AF  30FF               	movlw	255
  4438     04B0  00D3               	movwf	??___fladd+3
  4439     04B1  084C               	movf	___fladd@a,w
  4440     04B2  00D4               	movwf	??___fladd+4
  4441     04B3  084D               	movf	___fladd@a+1,w
  4442     04B4  00D5               	movwf	??___fladd+5
  4443     04B5  084E               	movf	___fladd@a+2,w
  4444     04B6  00D6               	movwf	??___fladd+6
  4445     04B7  084F               	movf	___fladd@a+3,w
  4446     04B8  00D7               	movwf	??___fladd+7
  4447     04B9  0848               	movf	___fladd@b,w
  4448     04BA  02D4               	subwf	??___fladd+4,f
  4449     04BB  0849               	movf	___fladd@b+1,w
  4450     04BC  1C03               	skipc
  4451     04BD  0F49               	incfsz	___fladd@b+1,w
  4452     04BE  2CC0               	goto	u1731
  4453     04BF  2CC1               	goto	u1732
  4454     04C0                     u1731:
  4455     04C0  02D5               	subwf	??___fladd+5,f
  4456     04C1                     u1732:
  4457     04C1  084A               	movf	___fladd@b+2,w
  4458     04C2  1C03               	skipc
  4459     04C3  0F4A               	incfsz	___fladd@b+2,w
  4460     04C4  2CC6               	goto	u1733
  4461     04C5  2CC7               	goto	u1734
  4462     04C6                     u1733:
  4463     04C6  02D6               	subwf	??___fladd+6,f
  4464     04C7                     u1734:
  4465     04C7  084B               	movf	___fladd@b+3,w
  4466     04C8  1C03               	skipc
  4467     04C9  0F4B               	incfsz	___fladd@b+3,w
  4468     04CA  2CCC               	goto	u1735
  4469     04CB  2CCD               	goto	u1736
  4470     04CC                     u1735:
  4471     04CC  02D7               	subwf	??___fladd+7,f
  4472     04CD                     u1736:
  4473     04CD  0854               	movf	??___fladd+4,w
  4474     04CE  07D0               	addwf	??___fladd,f
  4475     04CF  0855               	movf	??___fladd+5,w
  4476     04D0  1803               	skipnc
  4477     04D1  0F55               	incfsz	??___fladd+5,w
  4478     04D2  2CD4               	goto	u1740
  4479     04D3  2CD5               	goto	u1741
  4480     04D4                     u1740:
  4481     04D4  07D1               	addwf	??___fladd+1,f
  4482     04D5                     u1741:
  4483     04D5  0856               	movf	??___fladd+6,w
  4484     04D6  1803               	skipnc
  4485     04D7  0F56               	incfsz	??___fladd+6,w
  4486     04D8  2CDA               	goto	u1742
  4487     04D9  2CDB               	goto	u1743
  4488     04DA                     u1742:
  4489     04DA  07D2               	addwf	??___fladd+2,f
  4490     04DB                     u1743:
  4491     04DB  0857               	movf	??___fladd+7,w
  4492     04DC  1803               	skipnc
  4493     04DD  0A57               	incf	??___fladd+7,w
  4494     04DE  07D3               	addwf	??___fladd+3,f
  4495     04DF  0853               	movf	??___fladd+3,w
  4496     04E0  00CB               	movwf	___fladd@b+3
  4497     04E1  0852               	movf	??___fladd+2,w
  4498     04E2  00CA               	movwf	___fladd@b+2
  4499     04E3  0851               	movf	??___fladd+1,w
  4500     04E4  00C9               	movwf	___fladd@b+1
  4501     04E5  0850               	movf	??___fladd,w
  4502     04E6  00C8               	movwf	___fladd@b
  4503     04E7                     l1585:
  4504     04E7  3080               	movlw	128
  4505     04E8  00D0               	movwf	??___fladd
  4506     04E9  0850               	movf	??___fladd,w
  4507     04EA  06D8               	xorwf	___fladd@signs,f
  4508     04EB  09DB               	comf	___fladd@grs,f
  4509     04EC  0ADB               	incf	___fladd@grs,f
  4510     04ED                     l1587:
  4511     04ED  085B               	movf	___fladd@grs,w
  4512     04EE  1D03               	btfss	3,2
  4513     04EF  2CF1               	goto	u1751
  4514     04F0  2CF2               	goto	u1750
  4515     04F1                     u1751:
  4516     04F1  2D0F               	goto	l593
  4517     04F2                     u1750:
  4518     04F2                     l1589:
  4519     04F2  3001               	movlw	1
  4520     04F3  07C8               	addwf	___fladd@b,f
  4521     04F4  3000               	movlw	0
  4522     04F5  1803               	skipnc
  4523     04F6  3001               	movlw	1
  4524     04F7  07C9               	addwf	___fladd@b+1,f
  4525     04F8  3000               	movlw	0
  4526     04F9  1803               	skipnc
  4527     04FA  3001               	movlw	1
  4528     04FB  07CA               	addwf	___fladd@b+2,f
  4529     04FC  3000               	movlw	0
  4530     04FD  1803               	skipnc
  4531     04FE  3001               	movlw	1
  4532     04FF  07CB               	addwf	___fladd@b+3,f
  4533     0500  2D0F               	goto	l593
  4534     0501                     l1591:
  4535     0501  084C               	movf	___fladd@a,w
  4536     0502  02C8               	subwf	___fladd@b,f
  4537     0503  084D               	movf	___fladd@a+1,w
  4538     0504  1C03               	skipc
  4539     0505  0F4D               	incfsz	___fladd@a+1,w
  4540     0506  02C9               	subwf	___fladd@b+1,f
  4541     0507  084E               	movf	___fladd@a+2,w
  4542     0508  1C03               	skipc
  4543     0509  0F4E               	incfsz	___fladd@a+2,w
  4544     050A  02CA               	subwf	___fladd@b+2,f
  4545     050B  084F               	movf	___fladd@a+3,w
  4546     050C  1C03               	skipc
  4547     050D  0F4F               	incfsz	___fladd@a+3,w
  4548     050E  02CB               	subwf	___fladd@b+3,f
  4549     050F                     l593:
  4550     050F  084B               	movf	___fladd@b+3,w
  4551     0510  044A               	iorwf	___fladd@b+2,w
  4552     0511  0449               	iorwf	___fladd@b+1,w
  4553     0512  0448               	iorwf	___fladd@b,w
  4554     0513  1D03               	skipz
  4555     0514  2D16               	goto	u1761
  4556     0515  2D17               	goto	u1760
  4557     0516                     u1761:
  4558     0516  2D43               	goto	l1613
  4559     0517                     u1760:
  4560     0517                     l1593:
  4561     0517  085B               	movf	___fladd@grs,w
  4562     0518  1D03               	btfss	3,2
  4563     0519  2D1B               	goto	u1771
  4564     051A  2D1C               	goto	u1770
  4565     051B                     u1771:
  4566     051B  2D43               	goto	l1613
  4567     051C                     u1770:
  4568     051C                     l1595:
  4569     051C  3000               	movlw	0
  4570     051D  00CB               	movwf	?___fladd+3
  4571     051E  3000               	movlw	0
  4572     051F  00CA               	movwf	?___fladd+2
  4573     0520  3000               	movlw	0
  4574     0521  00C9               	movwf	?___fladd+1
  4575     0522  3000               	movlw	0
  4576     0523  00C8               	movwf	?___fladd
  4577     0524  2DBF               	goto	l585
  4578     0525                     l1599:
  4579     0525  3001               	movlw	1
  4580     0526  00D0               	movwf	??___fladd
  4581     0527                     u1785:
  4582     0527  1003               	clrc
  4583     0528  0DC8               	rlf	___fladd@b,f
  4584     0529  0DC9               	rlf	___fladd@b+1,f
  4585     052A  0DCA               	rlf	___fladd@b+2,f
  4586     052B  0DCB               	rlf	___fladd@b+3,f
  4587     052C  0BD0               	decfsz	??___fladd,f
  4588     052D  2D27               	goto	u1785
  4589     052E                     l1601:
  4590     052E  1FDB               	btfss	___fladd@grs,7
  4591     052F  2D31               	goto	u1791
  4592     0530  2D32               	goto	u1790
  4593     0531                     u1791:
  4594     0531  2D33               	goto	l597
  4595     0532                     u1790:
  4596     0532                     l1603:
  4597     0532  1448               	bsf	___fladd@b,0
  4598     0533                     l597:
  4599     0533  1C5B               	btfss	___fladd@grs,0
  4600     0534  2D36               	goto	u1801
  4601     0535  2D37               	goto	u1800
  4602     0536                     u1801:
  4603     0536  2D3A               	goto	l1607
  4604     0537                     u1800:
  4605     0537                     l1605:
  4606     0537  1403               	setc
  4607     0538  0DDB               	rlf	___fladd@grs,f
  4608     0539  2D3C               	goto	l1609
  4609     053A                     l1607:
  4610     053A  1003               	clrc
  4611     053B  0DDB               	rlf	___fladd@grs,f
  4612     053C                     l1609:
  4613     053C  085A               	movf	___fladd@bexp,w
  4614     053D  1903               	btfsc	3,2
  4615     053E  2D40               	goto	u1811
  4616     053F  2D41               	goto	u1810
  4617     0540                     u1811:
  4618     0540  2D43               	goto	l1613
  4619     0541                     u1810:
  4620     0541                     l1611:
  4621     0541  3001               	movlw	1
  4622     0542  02DA               	subwf	___fladd@bexp,f
  4623     0543                     l1613:
  4624     0543  1FCA               	btfss	___fladd@b+2,7
  4625     0544  2D46               	goto	u1821
  4626     0545  2D47               	goto	u1820
  4627     0546                     u1821:
  4628     0546  2D25               	goto	l1599
  4629     0547                     u1820:
  4630     0547                     l1615:
  4631     0547  01D9               	clrf	___fladd@aexp
  4632     0548                     l1617:
  4633     0548  1FDB               	btfss	___fladd@grs,7
  4634     0549  2D4B               	goto	u1831
  4635     054A  2D4C               	goto	u1830
  4636     054B                     u1831:
  4637     054B  2D5A               	goto	l1625
  4638     054C                     u1830:
  4639     054C                     l1619:
  4640     054C  085B               	movf	___fladd@grs,w
  4641     054D  397F               	andlw	127
  4642     054E  1903               	btfsc	3,2
  4643     054F  2D51               	goto	u1841
  4644     0550  2D52               	goto	u1840
  4645     0551                     u1841:
  4646     0551  2D55               	goto	l603
  4647     0552                     u1840:
  4648     0552                     l1621:
  4649     0552  01D9               	clrf	___fladd@aexp
  4650     0553  0AD9               	incf	___fladd@aexp,f
  4651     0554  2D5A               	goto	l1625
  4652     0555                     l603:
  4653     0555  1C48               	btfss	___fladd@b,0
  4654     0556  2D58               	goto	u1851
  4655     0557  2D59               	goto	u1850
  4656     0558                     u1851:
  4657     0558  2D5A               	goto	l1625
  4658     0559                     u1850:
  4659     0559  2D52               	goto	l1621
  4660     055A                     l1625:
  4661     055A  0859               	movf	___fladd@aexp,w
  4662     055B  1903               	btfsc	3,2
  4663     055C  2D5E               	goto	u1861
  4664     055D  2D5F               	goto	u1860
  4665     055E                     u1861:
  4666     055E  2D93               	goto	l606
  4667     055F                     u1860:
  4668     055F                     l1627:
  4669     055F  3001               	movlw	1
  4670     0560  07C8               	addwf	___fladd@b,f
  4671     0561  3000               	movlw	0
  4672     0562  1803               	skipnc
  4673     0563  3001               	movlw	1
  4674     0564  07C9               	addwf	___fladd@b+1,f
  4675     0565  3000               	movlw	0
  4676     0566  1803               	skipnc
  4677     0567  3001               	movlw	1
  4678     0568  07CA               	addwf	___fladd@b+2,f
  4679     0569  3000               	movlw	0
  4680     056A  1803               	skipnc
  4681     056B  3001               	movlw	1
  4682     056C  07CB               	addwf	___fladd@b+3,f
  4683     056D                     l1629:
  4684     056D  1C4B               	btfss	___fladd@b+3,0
  4685     056E  2D70               	goto	u1871
  4686     056F  2D71               	goto	u1870
  4687     0570                     u1871:
  4688     0570  2D93               	goto	l606
  4689     0571                     u1870:
  4690     0571                     l1631:
  4691     0571  0848               	movf	___fladd@b,w
  4692     0572  00D0               	movwf	??___fladd
  4693     0573  0849               	movf	___fladd@b+1,w
  4694     0574  00D1               	movwf	??___fladd+1
  4695     0575  084A               	movf	___fladd@b+2,w
  4696     0576  00D2               	movwf	??___fladd+2
  4697     0577  084B               	movf	___fladd@b+3,w
  4698     0578  00D3               	movwf	??___fladd+3
  4699     0579  3001               	movlw	1
  4700     057A  00D4               	movwf	??___fladd+4
  4701     057B                     u1885:
  4702     057B  0D53               	rlf	??___fladd+3,w
  4703     057C  0CD3               	rrf	??___fladd+3,f
  4704     057D  0CD2               	rrf	??___fladd+2,f
  4705     057E  0CD1               	rrf	??___fladd+1,f
  4706     057F  0CD0               	rrf	??___fladd,f
  4707     0580                     u1880:
  4708     0580  0BD4               	decfsz	??___fladd+4,f
  4709     0581  2D7B               	goto	u1885
  4710     0582  0853               	movf	??___fladd+3,w
  4711     0583  00CB               	movwf	___fladd@b+3
  4712     0584  0852               	movf	??___fladd+2,w
  4713     0585  00CA               	movwf	___fladd@b+2
  4714     0586  0851               	movf	??___fladd+1,w
  4715     0587  00C9               	movwf	___fladd@b+1
  4716     0588  0850               	movf	??___fladd,w
  4717     0589  00C8               	movwf	___fladd@b
  4718     058A  0A5A               	incf	___fladd@bexp,w
  4719     058B  1903               	btfsc	3,2
  4720     058C  2D8E               	goto	u1891
  4721     058D  2D8F               	goto	u1890
  4722     058E                     u1891:
  4723     058E  2D93               	goto	l606
  4724     058F                     u1890:
  4725     058F                     l1633:
  4726     058F  3001               	movlw	1
  4727     0590  00D0               	movwf	??___fladd
  4728     0591  0850               	movf	??___fladd,w
  4729     0592  07DA               	addwf	___fladd@bexp,f
  4730     0593                     l606:
  4731     0593  0A5A               	incf	___fladd@bexp,w
  4732     0594  1903               	btfsc	3,2
  4733     0595  2D97               	goto	u1901
  4734     0596  2D98               	goto	u1900
  4735     0597                     u1901:
  4736     0597  2D9D               	goto	l1637
  4737     0598                     u1900:
  4738     0598                     l1635:
  4739     0598  085A               	movf	___fladd@bexp,w
  4740     0599  1D03               	btfss	3,2
  4741     059A  2D9C               	goto	u1911
  4742     059B  2D9D               	goto	u1910
  4743     059C                     u1911:
  4744     059C  2DAB               	goto	l1643
  4745     059D                     u1910:
  4746     059D                     l1637:
  4747     059D  3000               	movlw	0
  4748     059E  00CB               	movwf	___fladd@b+3
  4749     059F  3000               	movlw	0
  4750     05A0  00CA               	movwf	___fladd@b+2
  4751     05A1  3000               	movlw	0
  4752     05A2  00C9               	movwf	___fladd@b+1
  4753     05A3  3000               	movlw	0
  4754     05A4  00C8               	movwf	___fladd@b
  4755     05A5                     l1639:
  4756     05A5  085A               	movf	___fladd@bexp,w
  4757     05A6  1D03               	btfss	3,2
  4758     05A7  2DA9               	goto	u1921
  4759     05A8  2DAA               	goto	u1920
  4760     05A9                     u1921:
  4761     05A9  2DAB               	goto	l1643
  4762     05AA                     u1920:
  4763     05AA                     l1641:
  4764     05AA  01D8               	clrf	___fladd@signs
  4765     05AB                     l1643:
  4766     05AB  1C5A               	btfss	___fladd@bexp,0
  4767     05AC  2DAE               	goto	u1931
  4768     05AD  2DAF               	goto	u1930
  4769     05AE                     u1931:
  4770     05AE  2DB1               	goto	l1647
  4771     05AF                     u1930:
  4772     05AF                     l1645:
  4773     05AF  17CA               	bsf	___fladd@b+2,7
  4774     05B0  2DB5               	goto	l614
  4775     05B1                     l1647:
  4776     05B1  307F               	movlw	127
  4777     05B2  00D0               	movwf	??___fladd
  4778     05B3  0850               	movf	??___fladd,w
  4779     05B4  05CA               	andwf	___fladd@b+2,f
  4780     05B5                     l614:
  4781     05B5  085A               	movf	___fladd@bexp,w
  4782     05B6  00D0               	movwf	??___fladd
  4783     05B7  1003               	clrc
  4784     05B8  0C50               	rrf	??___fladd,w
  4785     05B9  00CB               	movwf	___fladd@b+3
  4786     05BA                     l1649:
  4787     05BA  1FD8               	btfss	___fladd@signs,7
  4788     05BB  2DBD               	goto	u1941
  4789     05BC  2DBE               	goto	u1940
  4790     05BD                     u1941:
  4791     05BD  2DBF               	goto	l615
  4792     05BE                     u1940:
  4793     05BE                     l1651:
  4794     05BE  17CB               	bsf	___fladd@b+3,7
  4795     05BF                     l615:
  4796     05BF                     l585:
  4797     05BF  0008               	return
  4798     05C0                     __end_of___fladd:
  4799                           
  4800                           	psect	text18
  4801     0F71                     __ptext18:	
  4802 ;; *************** function _isr *****************
  4803 ;; Defined at:
  4804 ;;		line 69 in file "main.c"
  4805 ;; Parameters:    Size  Location     Type
  4806 ;;		None
  4807 ;; Auto vars:     Size  Location     Type
  4808 ;;		None
  4809 ;; Return value:  Size  Location     Type
  4810 ;;                  1    wreg      void 
  4811 ;; Registers used:
  4812 ;;		wreg, status,2, status,0
  4813 ;; Tracked objects:
  4814 ;;		On entry : 0/0
  4815 ;;		On exit  : 0/0
  4816 ;;		Unchanged: 0/0
  4817 ;; Data sizes:     COMMON   BANK0   BANK1   BANK3   BANK2
  4818 ;;      Params:         0       0       0       0       0
  4819 ;;      Locals:         0       0       0       0       0
  4820 ;;      Temps:         11       0       0       0       0
  4821 ;;      Totals:        11       0       0       0       0
  4822 ;;Total ram usage:       11 bytes
  4823 ;; Hardware stack levels used: 1
  4824 ;; This function calls:
  4825 ;;		Nothing
  4826 ;; This function is called by:
  4827 ;;		Interrupt level 1
  4828 ;; This function uses a non-reentrant model
  4829 ;;
  4830                           
  4831     0F71                     _isr:	
  4832                           ;psect for function _isr
  4833                           
  4834     0F71                     i1l1973:
  4835                           
  4836                           ;main.c: 70:     if (INTCONbits.T0IF){
  4837     0F71  1D0B               	btfss	11,2	;volatile
  4838     0F72  2F74               	goto	u263_21
  4839     0F73  2F75               	goto	u263_20
  4840     0F74                     u263_21:
  4841     0F74  2F8B               	goto	i1l1987
  4842     0F75                     u263_20:
  4843     0F75                     i1l1975:
  4844                           
  4845                           ;main.c: 72:         if (PORTCbits.RC3){
  4846     0F75  1283               	bcf	3,5	;RP0=0, select bank0
  4847     0F76  1303               	bcf	3,6	;RP1=0, select bank0
  4848     0F77  1D87               	btfss	7,3	;volatile
  4849     0F78  2F7A               	goto	u264_21
  4850     0F79  2F7B               	goto	u264_20
  4851     0F7A                     u264_21:
  4852     0F7A  2F83               	goto	i1l1981
  4853     0F7B                     u264_20:
  4854     0F7B                     i1l1977:
  4855                           
  4856                           ;main.c: 74:             TMR0 = 255-HIGHpulse;
  4857     0F7B  1683               	bsf	3,5	;RP0=1, select bank1
  4858     0F7C  1303               	bcf	3,6	;RP1=0, select bank1
  4859     0F7D  0924               	comf	_HIGHpulse^(0+128),w
  4860     0F7E  1283               	bcf	3,5	;RP0=0, select bank0
  4861     0F7F  1303               	bcf	3,6	;RP1=0, select bank0
  4862     0F80  0081               	movwf	1	;volatile
  4863     0F81                     i1l1979:
  4864                           
  4865                           ;main.c: 75:             PORTCbits.RC3 = 0;
  4866     0F81  1187               	bcf	7,3	;volatile
  4867                           
  4868                           ;main.c: 76:         }
  4869     0F82  2F8A               	goto	i1l1985
  4870     0F83                     i1l1981:
  4871                           
  4872                           ;main.c: 79:             TMR0 = HIGHpulse;
  4873     0F83  1683               	bsf	3,5	;RP0=1, select bank1
  4874     0F84  1303               	bcf	3,6	;RP1=0, select bank1
  4875     0F85  0824               	movf	_HIGHpulse^(0+128),w
  4876     0F86  1283               	bcf	3,5	;RP0=0, select bank0
  4877     0F87  1303               	bcf	3,6	;RP1=0, select bank0
  4878     0F88  0081               	movwf	1	;volatile
  4879     0F89                     i1l1983:
  4880                           
  4881                           ;main.c: 80:             PORTCbits.RC3 = 1;
  4882     0F89  1587               	bsf	7,3	;volatile
  4883     0F8A                     i1l1985:
  4884                           
  4885                           ;main.c: 83:         INTCONbits.T0IF = 0;
  4886     0F8A  110B               	bcf	11,2	;volatile
  4887     0F8B                     i1l1987:
  4888                           
  4889                           ;main.c: 85:     if (PIR1bits.TMR1IF){
  4890     0F8B  1283               	bcf	3,5	;RP0=0, select bank0
  4891     0F8C  1303               	bcf	3,6	;RP1=0, select bank0
  4892     0F8D  1C0C               	btfss	12,0	;volatile
  4893     0F8E  2F90               	goto	u265_21
  4894     0F8F  2F91               	goto	u265_20
  4895     0F90                     u265_21:
  4896     0F90  2FDD               	goto	i1l2003
  4897     0F91                     u265_20:
  4898     0F91                     i1l1989:
  4899                           
  4900                           ;main.c: 87:         if (PORTCbits.RC0){
  4901     0F91  1C07               	btfss	7,0	;volatile
  4902     0F92  2F94               	goto	u266_21
  4903     0F93  2F95               	goto	u266_20
  4904     0F94                     u266_21:
  4905     0F94  2FCF               	goto	i1l1995
  4906     0F95                     u266_20:
  4907     0F95                     i1l1991:
  4908                           
  4909                           ;main.c: 89:             TMR1H = ((61314+(65535-HIGHpulse1)) & 0xFF00) >> 8;
  4910     0F95  1683               	bsf	3,5	;RP0=1, select bank1
  4911     0F96  1303               	bcf	3,6	;RP1=0, select bank1
  4912     0F97  0822               	movf	_HIGHpulse1^(0+128),w
  4913     0F98  00F0               	movwf	??_isr
  4914     0F99  0823               	movf	(_HIGHpulse1+1)^(0+128),w
  4915     0F9A  00F1               	movwf	??_isr+1
  4916     0F9B  01F2               	clrf	??_isr+2
  4917     0F9C  01F3               	clrf	??_isr+3
  4918     0F9D  3081               	movlw	129
  4919     0F9E  00F4               	movwf	??_isr+4
  4920     0F9F  30EF               	movlw	239
  4921     0FA0  00F5               	movwf	??_isr+5
  4922     0FA1  3001               	movlw	1
  4923     0FA2  00F6               	movwf	??_isr+6
  4924     0FA3  3000               	movlw	0
  4925     0FA4  00F7               	movwf	??_isr+7
  4926     0FA5  0870               	movf	??_isr,w
  4927     0FA6  02F4               	subwf	??_isr+4,f
  4928     0FA7  0871               	movf	??_isr+1,w
  4929     0FA8  1C03               	skipc
  4930     0FA9  0F71               	incfsz	??_isr+1,w
  4931     0FAA  2FAC               	goto	u267_21
  4932     0FAB  2FAD               	goto	u267_22
  4933     0FAC                     u267_21:
  4934     0FAC  02F5               	subwf	??_isr+5,f
  4935     0FAD                     u267_22:
  4936     0FAD  0872               	movf	??_isr+2,w
  4937     0FAE  1C03               	skipc
  4938     0FAF  0F72               	incfsz	??_isr+2,w
  4939     0FB0  2FB2               	goto	u267_23
  4940     0FB1  2FB3               	goto	u267_24
  4941     0FB2                     u267_23:
  4942     0FB2  02F6               	subwf	??_isr+6,f
  4943     0FB3                     u267_24:
  4944     0FB3  0873               	movf	??_isr+3,w
  4945     0FB4  1C03               	skipc
  4946     0FB5  0F73               	incfsz	??_isr+3,w
  4947     0FB6  2FB8               	goto	u267_25
  4948     0FB7  2FB9               	goto	u267_26
  4949     0FB8                     u267_25:
  4950     0FB8  02F7               	subwf	??_isr+7,f
  4951     0FB9                     u267_26:
  4952     0FB9  3008               	movlw	8
  4953     0FBA  00F8               	movwf	??_isr+8
  4954     0FBB                     u268_25:
  4955     0FBB  0D77               	rlf	??_isr+7,w
  4956     0FBC  0CF7               	rrf	??_isr+7,f
  4957     0FBD  0CF6               	rrf	??_isr+6,f
  4958     0FBE  0CF5               	rrf	??_isr+5,f
  4959     0FBF  0CF4               	rrf	??_isr+4,f
  4960     0FC0                     u268_20:
  4961     0FC0  0BF8               	decfsz	??_isr+8,f
  4962     0FC1  2FBB               	goto	u268_25
  4963     0FC2  0874               	movf	??_isr+4,w
  4964     0FC3  1283               	bcf	3,5	;RP0=0, select bank0
  4965     0FC4  1303               	bcf	3,6	;RP1=0, select bank0
  4966     0FC5  008F               	movwf	15	;volatile
  4967                           
  4968                           ;main.c: 90:             TMR1L = (61314+(65535-HIGHpulse1)) & 0x00FF;
  4969     0FC6  1683               	bsf	3,5	;RP0=1, select bank1
  4970     0FC7  1303               	bcf	3,6	;RP1=0, select bank1
  4971     0FC8  0822               	movf	_HIGHpulse1^(0+128),w
  4972     0FC9  3C81               	sublw	129
  4973     0FCA  1283               	bcf	3,5	;RP0=0, select bank0
  4974     0FCB  1303               	bcf	3,6	;RP1=0, select bank0
  4975     0FCC  008E               	movwf	14	;volatile
  4976     0FCD                     i1l1993:
  4977                           
  4978                           ;main.c: 91:             PORTCbits.RC0 = 0;
  4979     0FCD  1007               	bcf	7,0	;volatile
  4980                           
  4981                           ;main.c: 92:         }
  4982     0FCE  2FDC               	goto	i1l2001
  4983     0FCF                     i1l1995:
  4984                           
  4985                           ;main.c: 95:             TMR1H = (HIGHpulse1&0xFF00) >> 8;
  4986     0FCF  1683               	bsf	3,5	;RP0=1, select bank1
  4987     0FD0  1303               	bcf	3,6	;RP1=0, select bank1
  4988     0FD1  0823               	movf	(_HIGHpulse1+1)^(0+128),w
  4989     0FD2  1283               	bcf	3,5	;RP0=0, select bank0
  4990     0FD3  1303               	bcf	3,6	;RP1=0, select bank0
  4991     0FD4  008F               	movwf	15	;volatile
  4992     0FD5                     i1l1997:
  4993                           
  4994                           ;main.c: 96:             TMR1L = HIGHpulse1&0x00FF;
  4995     0FD5  1683               	bsf	3,5	;RP0=1, select bank1
  4996     0FD6  1303               	bcf	3,6	;RP1=0, select bank1
  4997     0FD7  0822               	movf	_HIGHpulse1^(0+128),w
  4998     0FD8  1283               	bcf	3,5	;RP0=0, select bank0
  4999     0FD9  1303               	bcf	3,6	;RP1=0, select bank0
  5000     0FDA  008E               	movwf	14	;volatile
  5001     0FDB                     i1l1999:
  5002                           
  5003                           ;main.c: 97:             PORTCbits.RC0 = 1;
  5004     0FDB  1407               	bsf	7,0	;volatile
  5005     0FDC                     i1l2001:
  5006                           
  5007                           ;main.c: 100:         PIR1bits.TMR1IF = 0;
  5008     0FDC  100C               	bcf	12,0	;volatile
  5009     0FDD                     i1l2003:
  5010                           
  5011                           ;main.c: 102:     if (INTCONbits.RBIF){
  5012     0FDD  1C0B               	btfss	11,0	;volatile
  5013     0FDE  2FE0               	goto	u269_21
  5014     0FDF  2FE1               	goto	u269_20
  5015     0FE0                     u269_21:
  5016     0FE0  2FF9               	goto	i1l121
  5017     0FE1                     u269_20:
  5018     0FE1                     i1l2005:
  5019                           
  5020                           ;main.c: 103:         if (PORTBbits.RB7 == 0)
  5021     0FE1  1B86               	btfsc	6,7	;volatile
  5022     0FE2  2FE4               	goto	u270_21
  5023     0FE3  2FE5               	goto	u270_20
  5024     0FE4                     u270_21:
  5025     0FE4  2FF8               	goto	i1l2011
  5026     0FE5                     u270_20:
  5027     0FE5                     i1l2007:
  5028                           
  5029                           ;main.c: 104:         {;main.c: 105:             _delay((unsigned long)((50)*(1000000/40
      +                          00.0)));
  5030     0FE5  3011               	movlw	17
  5031     0FE6  00F1               	movwf	??_isr+1
  5032     0FE7  303A               	movlw	58
  5033     0FE8  00F0               	movwf	??_isr
  5034     0FE9                     u279_27:
  5035     0FE9  0BF0               	decfsz	??_isr,f
  5036     0FEA  2FE9               	goto	u279_27
  5037     0FEB  0BF1               	decfsz	??_isr+1,f
  5038     0FEC  2FE9               	goto	u279_27
  5039     0FED  0000               	nop
  5040     0FEE                     i1l2009:
  5041                           
  5042                           ;main.c: 106:             modo = modo + 1;
  5043     0FEE  1683               	bsf	3,5	;RP0=1, select bank1
  5044     0FEF  1303               	bcf	3,6	;RP1=0, select bank1
  5045     0FF0  0820               	movf	_modo^(0+128),w
  5046     0FF1  3E01               	addlw	1
  5047     0FF2  00A0               	movwf	_modo^(0+128)
  5048     0FF3  0821               	movf	(_modo+1)^(0+128),w
  5049     0FF4  1803               	skipnc
  5050     0FF5  3E01               	addlw	1
  5051     0FF6  3E00               	addlw	0
  5052     0FF7  00A1               	movwf	(_modo+1)^(0+128)
  5053     0FF8                     i1l2011:
  5054                           
  5055                           ;main.c: 108:         INTCONbits.RBIF = 0;
  5056     0FF8  100B               	bcf	11,0	;volatile
  5057     0FF9                     i1l121:
  5058     0FF9  087A               	movf	??_isr+10,w
  5059     0FFA  008A               	movwf	10
  5060     0FFB  0E79               	swapf	??_isr+9,w
  5061     0FFC  0083               	movwf	3
  5062     0FFD  0EFE               	swapf	btemp,f
  5063     0FFE  0E7E               	swapf	btemp,w
  5064     0FFF  0009               	retfie
  5065     1000                     __end_of_isr:
  5066     007E                     btemp	set	126	;btemp
  5067     007E                     wtemp0	set	126
  5068                           
  5069                           	psect	intentry
  5070     0004                     __pintentry:	
  5071                           ;incstack = 0
  5072                           ; Regs used in _isr: [wreg+status,2+status,0]
  5073                           
  5074     0004                     interrupt_function:
  5075     007E                     saved_w	set	btemp
  5076     0004  00FE               	movwf	btemp
  5077     0005  0E03               	swapf	3,w
  5078     0006  00F9               	movwf	??_isr+9
  5079     0007  080A               	movf	10,w
  5080     0008  00FA               	movwf	??_isr+10
  5081     0009  120A  158A  2F71   	ljmp	_isr
  5082                           
  5083                           	psect	idloc
  5084                           
  5085                           ;Config register IDLOC0 @ 0x2000
  5086                           ;	unspecified, using default values
  5087     2000                     	org	8192
  5088     2000  3FFF               	dw	16383
  5089                           
  5090                           ;Config register IDLOC1 @ 0x2001
  5091                           ;	unspecified, using default values
  5092     2001                     	org	8193
  5093     2001  3FFF               	dw	16383
  5094                           
  5095                           ;Config register IDLOC2 @ 0x2002
  5096                           ;	unspecified, using default values
  5097     2002                     	org	8194
  5098     2002  3FFF               	dw	16383
  5099                           
  5100                           ;Config register IDLOC3 @ 0x2003
  5101                           ;	unspecified, using default values
  5102     2003                     	org	8195
  5103     2003  3FFF               	dw	16383
  5104                           
  5105                           	psect	config
  5106                           
  5107                           ;Config register CONFIG1 @ 0x2007
  5108                           ;	Oscillator Selection bits
  5109                           ;	FOSC = INTRC_NOCLKOUT, INTOSCIO oscillator: I/O function on RA6/OSC2/CLKOUT pin, I/O f
      +                          unction on RA7/OSC1/CLKIN
  5110                           ;	Watchdog Timer Enable bit
  5111                           ;	WDTE = OFF, WDT disabled and can be enabled by SWDTEN bit of the WDTCON register
  5112                           ;	Power-up Timer Enable bit
  5113                           ;	PWRTE = OFF, PWRT disabled
  5114                           ;	RE3/MCLR pin function select bit
  5115                           ;	MCLRE = OFF, RE3/MCLR pin function is digital input, MCLR internally tied to VDD
  5116                           ;	Code Protection bit
  5117                           ;	CP = OFF, Program memory code protection is disabled
  5118                           ;	Data Code Protection bit
  5119                           ;	CPD = OFF, Data memory code protection is disabled
  5120                           ;	Brown Out Reset Selection bits
  5121                           ;	BOREN = OFF, BOR disabled
  5122                           ;	Internal External Switchover bit
  5123                           ;	IESO = OFF, Internal/External Switchover mode is disabled
  5124                           ;	Fail-Safe Clock Monitor Enabled bit
  5125                           ;	FCMEN = OFF, Fail-Safe Clock Monitor is disabled
  5126                           ;	Low Voltage Programming Enable bit
  5127                           ;	LVP = OFF, RB3 pin has digital I/O, HV on MCLR must be used for programming
  5128                           ;	In-Circuit Debugger Mode bit
  5129                           ;	DEBUG = 0x1, unprogramme  5130     2007                     	org	8199
  5131     2007  20D4               	dw	8404
  5132                           
  5133                           ;Config register CONFIG2 @ 0x2008
  5134                           ;	Brown-out Reset Selection bit
  5135                           ;	BOR4V = BOR40V, Brown-out Reset set to 4.0V
  5136                           ;	Flash Program Memory Self Write Enable bits
  5137                           ;	WRT = OFF, Write protection off
  5138     2008                     	org	8200
  5139     2008  3FFF               	dw	16383

Data Sizes:
    Strings     0
    Constant    0
    Data        0
    BSS         14
    Persistent  0
    Stack       0

Auto Spaces:
    Space          Size  Autos    Used
    COMMON           14     11      13
    BANK0            80     79      79
    BANK1            80      0      12
    BANK3            96      0       0
    BANK2            96      0       0

Pointer List with Targets:

    None.

Critical Paths under _main in COMMON

    None.

Critical Paths under _isr in COMMON

    None.

Critical Paths under _main in BANK0

    _main->_modomanual
    _modomanual->_PWMtmr0
    _modomanual->_PWMtmr1
    _modomanual->_mapeo
    _mapeo->___fltol
    _PWMtmr1->___fltol
    _PWMtmr0->___fltol
    ___fltol->___fladd
    ___flmul->___xxtofl
    ___fladd->___flmul

Critical Paths under _isr in BANK0

    None.

Critical Paths under _main in BANK1

    None.

Critical Paths under _isr in BANK1

    None.

Critical Paths under _main in BANK3

    None.

Critical Paths under _isr in BANK3

    None.

Critical Paths under _main in BANK2

    None.

Critical Paths under _isr in BANK2

    None.

Call Graph Tables:

 ---------------------------------------------------------------------------------
 (Depth) Function   	        Calls       Base Space   Used Autos Params    Refs
 ---------------------------------------------------------------------------------
 (0) _main                                                 1     1      0   19058
                                             78 BANK0      1     1      0
                         _modomanual
                              _setup
                        _setupINTOSC
                          _setupTMR0
                          _setupTMR1
                          _setup_ADC
                         _setup_PWM1
                         _setup_PWM2
                        _setup_portb
 ---------------------------------------------------------------------------------
 (1) _setup_portb                                          0     0      0       0
 ---------------------------------------------------------------------------------
 (1) _setup_PWM2                                           0     0      0       0
 ---------------------------------------------------------------------------------
 (1) _setup_PWM1                                           0     0      0       0
 ---------------------------------------------------------------------------------
 (1) _setup_ADC                                            1     1      0       0
                                              0 BANK0      1     1      0
 ---------------------------------------------------------------------------------
 (1) _setupTMR1                                            0     0      0       0
 ---------------------------------------------------------------------------------
 (1) _setupTMR0                                            0     0      0       0
 ---------------------------------------------------------------------------------
 (1) _setupINTOSC                                          1     1      0     176
                                              0 BANK0      1     1      0
 ---------------------------------------------------------------------------------
 (1) _setup                                                0     0      0       0
 ---------------------------------------------------------------------------------
 (1) _modomanual                                           3     3      0   18882
                                             75 BANK0      3     3      0
                            _PWMtmr0
                            _PWMtmr1
                              _mapeo
 ---------------------------------------------------------------------------------
 (2) _mapeo                                                5     5      0    6294
                                             70 BANK0      5     5      0
                            ___fladd
                            ___flmul
                            ___fltol
                           ___xxtofl
 ---------------------------------------------------------------------------------
 (2) _PWMtmr1                                              5     5      0    6294
                                             70 BANK0      5     5      0
                            ___fladd
                            ___flmul
                            ___fltol
                           ___xxtofl
 ---------------------------------------------------------------------------------
 (2) _PWMtmr0                                              5     5      0    6294
                                             70 BANK0      5     5      0
                            ___fladd
                            ___flmul
                            ___fltol
                           ___xxtofl
 ---------------------------------------------------------------------------------
 (3) ___xxtofl                                            14    10      4     550
                                              0 BANK0     14    10      4
 ---------------------------------------------------------------------------------
 (3) ___fltol                                             10     6      4     457
                                             60 BANK0     10     6      4
                            ___fladd (ARG)
                            ___flmul (ARG)
                           ___xxtofl (ARG)
 ---------------------------------------------------------------------------------
 (3) ___flmul                                             26    18      8    2721
                                             14 BANK0     26    18      8
                          __Umul8_16
                           ___xxtofl (ARG)
 ---------------------------------------------------------------------------------
 (4) __Umul8_16                                            9     7      2     799
                                              0 BANK0      9     7      2
 ---------------------------------------------------------------------------------
 (3) ___fladd                                             20    12      8    2566
                                             40 BANK0     20    12      8
                            ___flmul (ARG)
                           ___xxtofl (ARG)
 ---------------------------------------------------------------------------------
 Estimated maximum stack depth 4
 ---------------------------------------------------------------------------------
 (Depth) Function   	        Calls       Base Space   Used Autos Params    Refs
 ---------------------------------------------------------------------------------
 (5) _isr                                                 11    11      0       0
                                              0 COMMON    11    11      0
 ---------------------------------------------------------------------------------
 Estimated maximum stack depth 5
 ---------------------------------------------------------------------------------

 Call Graph Graphs:

 _main (ROOT)
   _modomanual
     _PWMtmr0
       ___fladd
         ___flmul (ARG)
           __Umul8_16
           ___xxtofl (ARG)
         ___xxtofl (ARG)
       ___flmul
       ___fltol
         ___fladd (ARG)
         ___flmul (ARG)
         ___xxtofl (ARG)
       ___xxtofl
     _PWMtmr1
       ___fladd
       ___flmul
       ___fltol
       ___xxtofl
     _mapeo
       ___fladd
       ___flmul
       ___fltol
       ___xxtofl
   _setup
   _setupINTOSC
   _setupTMR0
   _setupTMR1
   _setup_ADC
   _setup_PWM1
   _setup_PWM2
   _setup_portb

 _isr (ROOT)

 Address spaces:
Name               Size   Autos  Total    Cost      Usage
BITCOMMON            E      0       0       0        0.0%
EEDATA             100      0       0       0        0.0%
NULL                 0      0       0       0        0.0%
CODE                 0      0       0       0        0.0%
COMMON               E      B       D       1       92.9%
BITSFR0              0      0       0       1        0.0%
SFR0                 0      0       0       1        0.0%
BITSFR1              0      0       0       2        0.0%
SFR1                 0      0       0       2        0.0%
STACK                0      0       0       2        0.0%
ABS                  0      0      68       3        0.0%
BITBANK0            50      0       0       4        0.0%
BITSFR3              0      0       0       4        0.0%
SFR3                 0      0       0       4        0.0%
BANK0               50     4F      4F       5       98.8%
BITSFR2              0      0       0       5        0.0%
SFR2                 0      0       0       5        0.0%
BITBANK1            50      0       0       6        0.0%
BANK1               50      0       C       7       15.0%
BITBANK3            60      0       0       8        0.0%
BANK3               60      0       0       9        0.0%
BITBANK2            60      0       0      10        0.0%
BANK2               60      0       0      11        0.0%
DATA                 0      0      68      12        0.0%


Microchip Technology PIC Macro Assembler V2.40 build 20220703182018 
Symbol Table                                                                                   Sat Nov 12 22:19:50 2022

    __Umul8_16@word_mpld 0026                      l132 0CE9                      l140 0D2F  
                    l141 0D32                      l150 0CF8                      l135 07F9  
                    l144 0D03                      l153 0D1D                      l162 0F70  
                    l170 068C                      l138 0D2B                      l146 0D07  
                    l171 06B2                      l147 0D0A                      l180 0728  
                    l156 0CDC                      l165 07C1                      l173 06B6  
                    l174 06F6                      l190 0DED                      l159 0E7D  
                    l191 0DF9                      l176 06FA                      l168 0688  
                    l177 0717                      l193 0E06                      l185 0DAC  
                    l186 0DB9                      l603 0555                      l179 071B  
                    l187 0DC6                      l188 0DD3                      l189 0DE0  
                    l614 05B5                      l606 0593                      l615 05BF  
                    l472 0EE0                      l712 05E4                      l465 0EF5  
                    l714 0679                      l475 0EF5                      l572 03C3  
                    l725 0643                      l726 064F                      l718 0627  
                    l576 0446                      l680 035B                      l593 050F  
                    l585 05BF                      l578 041F                      l674 02D7  
                    l668 0367                      l597 0533                      l687 0D49  
                    l689 0D5B                      _PR2 0092                      _isr 0F71  
           ___flmul@aexp 0040             ___flmul@bexp 0041             ___flmul@sign 003B  
           ___flmul@temp 0046             ___flmul@prod 0042             ___fltol@exp1 0065  
                   l2021 0D71                     l2013 0D5C                     l2031 0D94  
                   l2023 0D76                     l2015 0D61                     l2025 0D7B  
                   l2017 0D67                     l1411 0D38                     l2027 0D80  
                   l2019 0D6C                     l1501 03BB                     l1413 0D3F  
                   l2029 0D8F                     l1511 03D5                     l1503 03C9  
                   l1415 0D43                     l1431 0EA5                     l1423 0E7E  
                   l1601 052E                     l1521 03DF                     l1513 03D7  
                   l1505 03CD                     l1417 0D52                     l1409 0D36  
                   l1433 0EA6                     l1425 0E89                     l1611 0541  
                   l1603 0532                     l1531 03E9                     l1523 03E1  
                   l1515 03D9                     l1507 03D1                     l1419 0D57  
                   l1435 0EAE                     l1621 0552                     l1605 0537  
                   l1613 0543                     l1541 0407                     l1533 03EB  
                   l1525 03E3                     l1517 03DB                     l1509 03D3  
                   l1461 036D                     l1701 00A5                     l1453 0ED5  
                   l1445 0EBC                     l1437 0EB0                     l1429 0E92  
                   l1631 0571                     l1607 053A                     l1615 0547  
                   l1551 0431                     l1543 0423                     l1535 03ED  
                   l1527 03E5                     l1519 03DD                     l1471 0380  
                   l1463 0371                     l1711 013E                     l1703 00C0  
                   l1455 0EE5                     l1439 0EB4                     l1447 0ECE  
                   l1641 05AA                     l1633 058F                     l1625 055A  
                   l1617 0548                     l1609 053C                     l1553 043A  
                   l1545 042A                     l1529 03E7                     l1537 03EF  
                   l1481 0396                     l1473 0388                     l1465 0375  
                   l1721 019D                     l1713 0147                     l1705 00DC  
                   l1457 0EEA                     l1801 05EC                     l1651 05BE  
                   l1643 05AB                     l1635 0598                     l1627 055F  
                   l1619 054C                     l1571 047E                     l1563 0458  
                   l1547 042C                     l1555 043E                     l1539 03F0  
                   l1491 03A6                     l1483 039C                     l1475 0389  
                   l1467 0376                     l1459 0368                     l1731 0235  
                   l1723 01B4                     l1715 0155                     l1707 0106  
                   l1811 060C                     l1645 05AF                     l1637 059D  
                   l1629 056D                     l1573 0480                     l1565 046F  
                   l1557 044A                     l1581 0493                     l1549 0430  
                   l1493 03AB                     l1485 039D                     l1469 037B  
                   l1477 038B                     l1741 02A3                     l1733 025B  
                   l1725 01D1                     l1717 0172                     l1709 0122  
                   l1661 0031                     l1653 0023                     l1821 063D  
                   l1813 0610                     l1805 05F5                     l1901 0CF5  
                   l1647 05B1                     l1639 05A5                     l1583 04A9  
                   l1591 0501                     l1575 0484                     l1567 0473  
                   l1559 044F                     l1495 03B0                     l1487 03A1  
                   l1479 0393                     l1751 02BB                     l1743 02A7  
                   l1735 0283                     l1727 01FC                     l1719 0180  
                   l1671 004D                     l1663 0036                     l1655 0028  
                   l1831 0670                     l1823 0647                     l1815 061E  
                   l1807 05F8                     l1911 0D12                     l1903 0D0B  
                   l1649 05BA                     l1593 0517                     l1585 04E7  
                   l1577 0485                     l1569 0477                     l1497 03B8  
                   l1489 03A5                     l1761 02DC                     l1753 02BC  
                   l1745 02A8                     l1737 028C                     l1729 020A  
                   l1681 0060                     l1673 0052                     l1665 003B  
                   l1657 002C                     l1833 0671                     l1825 0651  
                   l1817 062E                     l1809 0605                     l1841 0EF6  
                   l1913 0D14                     l1905 0D0F                     l1921 0CD3  
                   l1595 051C                     l1587 04ED                     l1579 048E  
                   l1499 03B9                     l1763 02E1                     l1771 0312  
                   l1755 02C0                     l1747 02B1                     l1739 029A  
                   l1691 007C                     l1683 0065                     l1675 0056  
                   l1667 0043                     l1659 0030                     l1827 0667  
                   l1819 0639                     l1843 0F17                     l1851 079F  
                   l1931 0685                     l1915 0D16                     l1907 0D10  
                   l1923 0CD5                     l1589 04F2                     l1781 0345  
                   l1773 031F                     l1765 02EF                     l1757 02D4  
                   l1749 02B7                     l1693 0081                     l1685 006D  
                   l1677 005A                     l1669 0045                     l1829 066C  
                   l1837 0E07                     l1845 0F6C                     l1853 07A5  
                   l1941 06A8                     l1933 068D                     l1861 0DB3  
                   l1917 0D17                     l1909 0D11                     l1925 0CDB  
                   l1599 0525                     l1783 0351                     l1775 032A  
                   l1767 02F3                     l1687 006F                     l1679 005B  
                   l1839 0E28                     l1847 0729                     l1951 06E2  
                   l1943 06AF                     l1935 0692                     l1927 067A  
                   l1855 0CDD                     l1871 0DF3                     l1863 0DC0  
                   l1919 0D1A                     l1785 0355                     l1777 0339  
                   l1769 030C                     l1697 008A                     l1689 0077  
                   l1793 05C3                     l1849 074A                     l1961 0700  
                   l1953 06E8                     l1945 06B7                     l1937 069E  
                   l1929 067E                     l1873 0DFF                     l1865 0DCD  
                   l1857 0DA2                     l1881 0D1E                     l1787 0356  
                   l1779 0343                     l1699 0098                     l1795 05C8  
                   l1971 0721                     l1963 0707                     l1955 06EC  
                   l1947 06BC                     l1939 06A4                     l1875 0E03  
                   l1867 0DDA                     l1859 0DA8                     l1883 0D21  
                   l1891 0CF9                     l1789 035F                     l1797 05CC  
                   l1965 070D                     l1957 06F3                     l1949 06C9  
                   l1869 0DE7                     l1877 07C2                     l1885 0D27  
                   l1893 0CFC                     l1799 05DC                     l1967 0714  
                   l1959 06FB                     l1879 07F2                     l1887 0D28  
                   l1895 0D02                     l1969 071C                     l1897 0CEA  
                   l1889 0D2A                     l1899 0CF1                     _ADIF 0066  
                   ?_isr 0070                     u2000 0065                     u2001 0064  
                   u2010 007C                     u2011 007B                     u2020 0081  
                   u2021 0080                     u2111 01C3                     u2031 00CE  
                   u2200 02A7                     u2112 01CA                     u2032 00D5  
                   u1400 0EA0                     u2201 02A6                     u2121 01EE  
                   u2113 01D1                     u2105 019F                     u2041 00EA  
                   u2033 00DC                     u2122 01F5                     u2042 00F1  
                   u1410 0EB4                     u2131 0219                     u2123 01FC  
                   u2051 0114                     u2043 00F8                     u1411 0EB3  
                   u1500 037B                     u2300 0339                     u2220 02BB  
                   u2140 0241                     u2132 0220                     u2052 011B  
                   u1420 0EBB                     _IOCB 0096                     u1501 037A  
                   u2301 0338                     u2221 02BA                     u2133 0227  
                   u2061 0130                     u2053 0122                     u1421 0EBA  
                   u1405 0E9B                     u1510 0380                     u2310 0355  
                   u2230 02C0                     u2062 0137                     u1511 037F  
                   u2311 0354                     u2231 02BF                     u2215 02AA  
                   u2151 024D                     u2063 013E                     u1600 0413  
                   u1520 039C                     u1360 0D43                     u2240 02D4  
                   u2160 0269                     u2152 0254                     u1440 0ECD  
                   u2400 063D                     u2320 05C8                     u1521 039B  
                   u1361 0D42                     u2305 0335                     u2241 02D3  
                   u2153 025B                     u2145 023C                     u2081 0164  
                   u1441 0ECC                     u2401 063C                     u2321 05C7  
                   u1610 0423                     u1530 03A5                     u2250 02DB  
                   u2082 016B                     u1450 0ED4                     u2410 0643  
                   u2330 05CC                     u1611 0422                     u1531 03A4  
                   u2251 02DA                     u2171 0275                     u2091 018F  
                   u2083 0172                     u2075 0140                     u1451 0ED3  
                   u1435 0EBD                     u2411 0642                     u2331 05CB  
                   u1700 0484                     u1620 0430                     u1540 03AB  
                   u1380 0D57                     u2260 02E1                     u2172 027C  
                   u2092 0196                     u2420 0647                     u2340 05EC  
                   u2500 0DB3                     u1701 0483                     u1621 042F  
                   u1541 03AA                     u1381 0D56                     u2261 02E0  
                   u2173 0283                     u2165 0264                     u2093 019D  
                   u2421 0646                     u2341 05EB                     u2501 0DB2  
                   u1550 03B0                     u2270 02F3                     u1470 0EE5  
                   u1390 0E89                     u2430 065C                     u2510 0DC0  
                   u1551 03AF                     u1375 0D4A                     u2271 02F2  
                   u1471 0EE4                     u1391 0E88                     u2511 0DBF  
                   u1800 0537                     u1720 04A9                     u1640 0446  
                   u1560 03C9                     u2280 0302                     u1480 0EEA  
                   u2440 066C                     u2360 060B                     u2600 06B6  
                   u2520 0DCD                     u1801 0536                     u1721 04A8  
                   u1641 0445                     u1561 03C8                     u2185 0285  
                   u1481 0EE9                     u1465 0ED7                     u2441 066B  
                   u2361 060A                     u2601 06B5                     u2521 0DCC  
                   u1810 0541                     u1650 044A                     u1570 03CD  
                   u1490 0375                     u2290 031F                     u2450 0670  
                   u2610 06FA                     u2530 0DDA                     u1811 0540  
                   u1731 04C0                     u1723 04A5                     u1715 0487  
                   u1651 0449                     u1635 0433                     u1571 03CC  
                   u1491 0374                     u2291 031E                     u2195 029C  
                   u2451 066F                     u2435 0657                     u2355 05FD  
                   u2611 06F9                     u2531 0DD9                     u1900 0598  
                   u1820 0547                     u1740 04D4                     u1732 04C1  
                   u1660 044F                     u1580 0407                     u2380 062D  
                   u2620 071B                     u2540 0DE7                     u1901 0597  
                   u1821 0546                     u1741 04D5                     u1733 04C6  
                   u1661 044E                     u1581 0406                     u2285 02FD  
                   u2381 062C                     u2621 071A                     u2541 0DE6  
                   u1910 059D                     u1830 054C                     u1750 04F2  
                   u1742 04DA                     u1734 04C7                     u1590 0412  
                   u2550 0DF3                     u1911 059C                     u1831 054B  
                   u1751 04F1                     u1743 04DB                     u1735 04CC  
                   u1671 0461                     u1591 0410                     u2295 031B  
                   u2375 061F                     u2551 0DF2                     u1920 05AA  
                   u1840 0552                     u1760 0517                     u1736 04CD  
                   u1680 0473                     u1672 0468                     u2560 0DFF  
                   u1921 05A9                     u1841 0551                     u1761 0516  
                   u1681 0472                     u1673 046F                     u1585 0403  
                   u2465 0E0E                     u2561 0DFE                     u1930 05AF  
                   u1850 0559                     u1770 051C                     u1690 0477  
                   u2490 0DA8                     u2570 0D2F                     u1931 05AE  
                   u1851 0558                     u1771 051B                     u1691 0476  
                   u2395 0632                     u2475 0EFD                     u2491 0DA7  
                   u2571 0D2E                     u1940 05BE                     u1860 055F  
                   u2580 0D07                     u1941 05BD                     u1861 055E  
                   u2485 0730                     u2581 0D06                     u2717 0D98  
                   u1870 0571                     u1790 0532                     u1950 0030  
                   u2590 068C                     u1871 0570                     u1791 0531  
                   u1951 002F                     u2591 068B                     u2727 07F6  
                   u1880 0580                     u1960 0036                     u1785 0527  
                   u1961 0035                     u2737 0682                     u1890 058F  
                   u1970 003B                     u1891 058E                     u1971 003A  
                   u2747 06AC                     u1980 005A                     u1885 057B  
                   u1981 0059                     u2757 06F0                     u1990 0060  
                   u1991 005F                     u2767 0704                     u2777 0711  
                   u2787 0725                     _TMR0 0001                     _WPUB 0095  
                   _vPWM 00AA                     _main 0D5C                     _modo 00A0  
                   btemp 007E                     start 000C          __end_of_PWMtmr0 0E7E  
        __end_of_PWMtmr1 0F71                    ??_isr 0070            ___fltol@sign1 0064  
        __end_of___fladd 05C0                    ?_main 0070          __end_of___flmul 0368  
        __end_of___fltol 0EF6                    i1l121 0FF9                    _TMR1H 000F  
                  _TMR1L 000E                    _PORTC 0007                    _PORTD 0008  
                  _TRISB 0086                    _TRISC 0087                    _TRISD 0088  
                  _vPWMh 00A6                    _vPWMl 00A8                    _mapeo 0729  
                  _setup 0CDD                    pclath 000A                    status 0003  
                  wtemp0 007E          __initialization 000F             __end_of_main 0D9F  
                 ??_main 006E                   ?_mapeo 0070                   _ADRESH 001E  
                 _ADRESL 009E                   _CCPR1L 0015                   _CCPR2L 001B  
                 ?_setup 0070                   _ANSELH 0189                   i1l2001 0FDC  
                 i1l2011 0FF8                   i1l2003 0FDD                   i1l2005 0FE1  
                 i1l2007 0FE5                   i1l2009 0FEE                   i1l1981 0F83  
                 i1l1973 0F71                   i1l1991 0F95                   i1l1983 0F89  
                 i1l1975 0F75                   i1l1993 0FCD                   i1l1985 0F8A  
                 i1l1977 0F7B                   i1l1995 0FCF                   i1l1979 0F81  
                 i1l1987 0F8B                   i1l1997 0FD5                   i1l1989 0F91  
                 i1l1999 0FDB                ??_PWMtmr0 0066                ??_PWMtmr1 0066  
                 u270_20 0FE5                   u270_21 0FE4                   u263_20 0F75  
                 u263_21 0F74                   u264_20 0F7B                   u264_21 0F7A  
                 u265_20 0F91                   u265_21 0F90                   u266_20 0F95  
                 u266_21 0F94                   u267_21 0FAC                   u267_22 0FAD  
                 u267_23 0FB2                   u267_24 0FB3                   u267_25 0FB8  
                 u267_26 0FB9                   u268_20 0FC0                   u268_25 0FBB  
                 u269_20 0FE1                   u269_21 0FE0                   u279_27 0FE9  
                 _TMR2IF 0061                   _TMR2ON 0092         __end_of___xxtofl 067A  
              ??___fladd 0050                ??___flmul 0036                ??___fltol 0060  
                 _valADC 007B             ?_setupINTOSC 0070                   saved_w 007E  
           ___xxtofl@arg 002A             ___xxtofl@exp 0029             ___xxtofl@val 0020  
           ?_setup_portb 0070  __end_of__initialization 001F               ___fltol@f1 005C  
         __pcstackCOMMON 0070            __end_of_mapeo 07C2            __end_of_setup 0CEA  
         _OPTION_REGbits 0081                  ??_mapeo 0066                  ??_setup 0020  
             __pbssBANK1 00A0        __end_of__Umul8_16 0D5C               __pmaintext 0D5C  
             __pintentry 0004                  _CCP1CON 0017                  _CCP2CON 001D  
              ?___xxtofl 0020                  _PWMtmr0 0E07                  _PWMtmr1 0EF6  
                ___fladd 0368                  ___flmul 0023                  ___fltol 0E7E  
              _ANSELbits 0188                  __ptext1 0CD3                  __ptext2 0CF9  
                __ptext3 0D1E                  __ptext4 07C2                  __ptext5 0D0B  
                __ptext6 0CEA                  __ptext7 0D9F                  __ptext8 0CDD  
                __ptext9 067A                _T1CONbits 0010                _T2CONbits 0012  
             ??___xxtofl 0024                _HIGHpulse 00A4               _modomanual 067A  
   end_of_initialization 001F        __end_of_setupTMR0 0CF9        __end_of_setupTMR1 0D1E  
      __end_of_setup_ADC 07FA               _setup_PWM1 0D1E               _setup_PWM2 0CF9  
              _PORTAbits 0005                _PORTBbits 0006                _PORTCbits 0007  
            ___fladd@grs 005B            ___xxtofl@sign 0028                _TRISAbits 0085  
              _TRISCbits 0087              ___flmul@grs 003C              _CCP1CONbits 0017  
            _CCP2CONbits 001D      start_initialization 000F              __end_of_isr 1000  
            ?_modomanual 0070                __Umul8_16 0D33              ?_setup_PWM1 0070  
            ?_setup_PWM2 0070                ___fladd@a 004C                ___fladd@b 0048  
              ___flmul@a 0032                ___flmul@b 002E              __pbssCOMMON 007B  
              ___latbits 0002            __pcstackBANK0 0020                 ?_PWMtmr0 0070  
               ?_PWMtmr1 0070          setupINTOSC@IRCF 0020                 ?___fladd 0048  
               ?___flmul 002E                 ?___fltol 005C               ?__Umul8_16 0020  
      interrupt_function 0004                 _PIE1bits 008C                 _PIR1bits 000C  
              _setupTMR0 0CEA                _setupTMR1 0D0B                _setup_ADC 07C2  
             _ADCON0bits 001F               _ADCON1bits 009F            ??_setupINTOSC 0020  
          ??_setup_portb 0020               ?_setupTMR0 0070               ?_setupTMR1 0070  
             ?_setup_ADC 0070              ??__Umul8_16 0022                 ___xxtofl 05C0  
               __ptext10 0729                 __ptext11 0EF6                 __ptext12 0E07  
               __ptext13 05C0                 __ptext14 0E7E                 __ptext15 0023  
               __ptext16 0D33                 __ptext17 0368                 __ptext18 0F71  
    __end_of_setupINTOSC 0E07             ??_modomanual 006B      __end_of_setup_portb 0CDD  
             _HIGHpulse1 00A2             ??_setup_PWM1 0020             ??_setup_PWM2 0020  
     __end_of_modomanual 0729               _INTCONbits 000B                 intlevel1 0000  
     __end_of_setup_PWM1 0D33       __end_of_setup_PWM2 0D0B               _OSCCONbits 008F  
            ??_setupTMR0 0020              ??_setupTMR1 0020              ??_setup_ADC 0020  
 __Umul8_16@multiplicand 0020              _setupINTOSC 0D9F            ___fladd@signs 0058  
            _setup_portb 0CD3             ___fladd@aexp 0059             ___fladd@bexp 005A  
   __Umul8_16@multiplier 0028        __Umul8_16@product 0024  
