

Microchip MPLAB XC8 Assembler V2.40 build 20220703182018 
                                                                                               Sat Nov 12 14:57:42 2022

Microchip MPLAB XC8 C Compiler v2.40 (Free license) build 20220703182018 Og1 
     1                           	processor	16F887
     2                           	pagewidth 120
     3                           	opt	flic
     4                           	psect	cinit,global,class=CODE,merge=1,delta=2
     5                           	psect	bssCOMMON,global,class=COMMON,space=1,delta=1,noexec
     6                           	psect	bssBANK0,global,class=BANK0,space=1,delta=1,noexec
     7                           	psect	bssBANK1,global,class=BANK1,space=1,delta=1,noexec
     8                           	psect	cstackBANK1,global,class=BANK1,space=1,delta=1,noexec
     9                           	psect	cstackCOMMON,global,class=COMMON,space=1,delta=1,noexec
    10                           	psect	cstackBANK0,global,class=BANK0,space=1,delta=1,noexec
    11                           	psect	maintext,global,class=CODE,split=1,delta=2
    12                           	psect	text1,local,class=CODE,merge=1,delta=2
    13                           	psect	text2,local,class=CODE,merge=1,delta=2
    14                           	psect	text3,local,class=CODE,merge=1,delta=2
    15                           	psect	text4,local,class=CODE,merge=1,delta=2
    16                           	psect	text5,local,class=CODE,merge=1,delta=2
    17                           	psect	text6,local,class=CODE,merge=1,delta=2
    18                           	psect	text7,local,class=CODE,merge=1,delta=2
    19                           	psect	text8,local,class=CODE,merge=1,delta=2
    20                           	psect	text9,local,class=CODE,merge=1,delta=2
    21                           	psect	text10,local,class=CODE,merge=1,delta=2
    22                           	psect	text11,local,class=CODE,merge=1,delta=2
    23                           	psect	text12,local,class=CODE,merge=1,delta=2,group=1
    24                           	psect	text13,local,class=CODE,merge=1,delta=2,group=1
    25                           	psect	text14,local,class=CODE,merge=1,delta=2,group=1
    26                           	psect	text15,local,class=CODE,merge=1,delta=2,group=1
    27                           	psect	text16,local,class=CODE,merge=1,delta=2,group=1
    28                           	psect	text17,local,class=CODE,merge=1,delta=2
    29                           	psect	intentry,global,class=CODE,delta=2
    30                           	psect	idloc,global,abs,ovrld,class=IDLOC,space=5,delta=2,noexec
    31                           	psect	config,global,abs,ovrld,class=CONFIG,space=4,delta=2,noexec
    32                           	dabs	1,0x7E,2
    33     0000                     
    34                           ; Version 2.40
    35                           ; Generated 17/11/2021 GMT
    36                           ; 
    37                           ; Copyright © 2021, Microchip Technology Inc. and its subsidiaries ("Microchip")
    38                           ; All rights reserved.
    39                           ; 
    40                           ; This software is developed by Microchip Technology Inc. and its subsidiaries ("Microch
      +                          ip").
    41                           ; 
    42                           ; Redistribution and use in source and binary forms, with or without modification, are
    43                           ; permitted provided that the following conditions are met:
    44                           ; 
    45                           ;     1. Redistributions of source code must retain the above copyright notice, this lis
      +                          t of
    46                           ;        conditions and the following disclaimer.
    47                           ; 
    48                           ;     2. Redistributions in binary form must reproduce the above copyright notice, this 
      +                          list
    49                           ;        of conditions and the following disclaimer in the documentation and/or other
    50                           ;        materials provided with the distribution. Publication is not required when
    51                           ;        this file is used in an embedded application.
    52                           ; 
    53                           ;     3. Microchip's name may not be used to endorse or promote products derived from th
      +                          is
    54                           ;        software without specific prior written permission.
    55                           ; 
    56                           ; THIS SOFTWARE IS PROVIDED BY MICROCHIP "AS IS" AND ANY EXPRESS OR IMPLIED WARRANTIES,
    57                           ; INCLUDING, BUT NOT LIMITED TO, THE IMPLIED WARRANTIES OF MERCHANTABILITY AND FITNESS F
      +                          OR
    58                           ; PURPOSE ARE DISCLAIMED.  IN NO EVENT SHALL MICROCHIP BE LIABLE FOR ANY DIRECT, INDIREC
      +                          T,
    59                           ; INCIDENTAL, SPECIAL, EXEMPLARY, OR CONSEQUENTIAL DAMAGES (INCLUDING BUT NOT LIMITED TO
    60                           ; PROCUREMENT OF SUBSTITUTE GOODS OR SERVICES; LOSS OF USE, DATA OR PROFITS; OR BUSINESS
    61                           ; INTERRUPTION) HOWSOEVER CAUSED AND ON ANY THEORY OF LIABILITY, WHETHER IN CONTRACT, ST
      +                          RICT
    62                           ; LIABILITY, OR TORT (INCLUDING NEGLIGENCE OR OTHERWISE) ARISING IN ANY WAY OUT OF THE U
      +                          SE OF
    63                           ; THIS SOFTWARE, EVEN IF ADVISED OF THE POSSIBILITY OF SUCH DAMAGE.
    64                           ; 
    65                           ; 
    66                           ; Code-generator required, PIC16F887 Definitions
    67                           ; 
    68                           ; SFR Addresses
    69     0000                     	;# 
    70     0001                     	;# 
    71     0002                     	;# 
    72     0003                     	;# 
    73     0004                     	;# 
    74     0005                     	;# 
    75     0006                     	;# 
    76     0007                     	;# 
    77     0008                     	;# 
    78     0009                     	;# 
    79     000A                     	;# 
    80     000B                     	;# 
    81     000C                     	;# 
    82     000D                     	;# 
    83     000E                     	;# 
    84     000E                     	;# 
    85     000F                     	;# 
    86     0010                     	;# 
    87     0011                     	;# 
    88     0012                     	;# 
    89     0013                     	;# 
    90     0014                     	;# 
    91     0015                     	;# 
    92     0015                     	;# 
    93     0016                     	;# 
    94     0017                     	;# 
    95     0018                     	;# 
    96     0019                     	;# 
    97     001A                     	;# 
    98     001B                     	;# 
    99     001B                     	;# 
   100     001C                     	;# 
   101     001D                     	;# 
   102     001E                     	;# 
   103     001F                     	;# 
   104     0081                     	;# 
   105     0085                     	;# 
   106     0086                     	;# 
   107     0087                     	;# 
   108     0088                     	;# 
   109     0089                     	;# 
   110     008C                     	;# 
   111     008D                     	;# 
   112     008E                     	;# 
   113     008F                     	;# 
   114     0090                     	;# 
   115     0091                     	;# 
   116     0092                     	;# 
   117     0093                     	;# 
   118     0093                     	;# 
   119     0093                     	;# 
   120     0094                     	;# 
   121     0095                     	;# 
   122     0096                     	;# 
   123     0097                     	;# 
   124     0098                     	;# 
   125     0099                     	;# 
   126     009A                     	;# 
   127     009B                     	;# 
   128     009C                     	;# 
   129     009D                     	;# 
   130     009E                     	;# 
   131     009F                     	;# 
   132     0105                     	;# 
   133     0107                     	;# 
   134     0108                     	;# 
   135     0109                     	;# 
   136     010C                     	;# 
   137     010C                     	;# 
   138     010D                     	;# 
   139     010E                     	;# 
   140     010F                     	;# 
   141     0185                     	;# 
   142     0187                     	;# 
   143     0188                     	;# 
   144     0189                     	;# 
   145     018C                     	;# 
   146     018D                     	;# 
   147     0000                     	;# 
   148     0001                     	;# 
   149     0002                     	;# 
   150     0003                     	;# 
   151     0004                     	;# 
   152     0005                     	;# 
   153     0006                     	;# 
   154     0007                     	;# 
   155     0008                     	;# 
   156     0009                     	;# 
   157     000A                     	;# 
   158     000B                     	;# 
   159     000C                     	;# 
   160     000D                     	;# 
   161     000E                     	;# 
   162     000E                     	;# 
   163     000F                     	;# 
   164     0010                     	;# 
   165     0011                     	;# 
   166     0012                     	;# 
   167     0013                     	;# 
   168     0014                     	;# 
   169     0015                     	;# 
   170     0015                     	;# 
   171     0016                     	;# 
   172     0017                     	;# 
   173     0018                     	;# 
   174     0019                     	;# 
   175     001A                     	;# 
   176     001B                     	;# 
   177     001B                     	;# 
   178     001C                     	;# 
   179     001D                     	;# 
   180     001E                     	;# 
   181     001F                     	;# 
   182     0081                     	;# 
   183     0085                     	;# 
   184     0086                     	;# 
   185     0087                     	;# 
   186     0088                     	;# 
   187     0089                     	;# 
   188     008C                     	;# 
   189     008D                     	;# 
   190     008E                     	;# 
   191     008F                     	;# 
   192     0090                     	;# 
   193     0091                     	;# 
   194     0092                     	;# 
   195     0093                     	;# 
   196     0093                     	;# 
   197     0093                     	;# 
   198     0094                     	;# 
   199     0095                     	;# 
   200     0096                     	;# 
   201     0097                     	;# 
   202     0098                     	;# 
   203     0099                     	;# 
   204     009A                     	;# 
   205     009B                     	;# 
   206     009C                     	;# 
   207     009D                     	;# 
   208     009E                     	;# 
   209     009F                     	;# 
   210     0105                     	;# 
   211     0107                     	;# 
   212     0108                     	;# 
   213     0109                     	;# 
   214     010C                     	;# 
   215     010C                     	;# 
   216     010D                     	;# 
   217     010E                     	;# 
   218     010F                     	;# 
   219     0185                     	;# 
   220     0187                     	;# 
   221     0188                     	;# 
   222     0189                     	;# 
   223     018C                     	;# 
   224     018D                     	;# 
   225     0000                     	;# 
   226     0001                     	;# 
   227     0002                     	;# 
   228     0003                     	;# 
   229     0004                     	;# 
   230     0005                     	;# 
   231     0006                     	;# 
   232     0007                     	;# 
   233     0008                     	;# 
   234     0009                     	;# 
   235     000A                     	;# 
   236     000B                     	;# 
   237     000C                     	;# 
   238     000D                     	;# 
   239     000E                     	;# 
   240     000E                     	;# 
   241     000F                     	;# 
   242     0010                     	;# 
   243     0011                     	;# 
   244     0012                     	;# 
   245     0013                     	;# 
   246     0014                     	;# 
   247     0015                     	;# 
   248     0015                     	;# 
   249     0016                     	;# 
   250     0017                     	;# 
   251     0018                     	;# 
   252     0019                     	;# 
   253     001A                     	;# 
   254     001B                     	;# 
   255     001B                     	;# 
   256     001C                     	;# 
   257     001D                     	;# 
   258     001E                     	;# 
   259     001F                     	;# 
   260     0081                     	;# 
   261     0085                     	;# 
   262     0086                     	;# 
   263     0087                     	;# 
   264     0088                     	;# 
   265     0089                     	;# 
   266     008C                     	;# 
   267     008D                     	;# 
   268     008E                     	;# 
   269     008F                     	;# 
   270     0090                     	;# 
   271     0091                     	;# 
   272     0092                     	;# 
   273     0093                     	;# 
   274     0093                     	;# 
   275     0093                     	;# 
   276     0094                     	;# 
   277     0095                     	;# 
   278     0096                     	;# 
   279     0097                     	;# 
   280     0098                     	;# 
   281     0099                     	;# 
   282     009A                     	;# 
   283     009B                     	;# 
   284     009C                     	;# 
   285     009D                     	;# 
   286     009E                     	;# 
   287     009F                     	;# 
   288     0105                     	;# 
   289     0107                     	;# 
   290     0108                     	;# 
   291     0109                     	;# 
   292     010C                     	;# 
   293     010C                     	;# 
   294     010D                     	;# 
   295     010E                     	;# 
   296     010F                     	;# 
   297     0185                     	;# 
   298     0187                     	;# 
   299     0188                     	;# 
   300     0189                     	;# 
   301     018C                     	;# 
   302     018D                     	;# 
   303     001B                     _CCPR2L	set	27
   304     001D                     _CCP2CONbits	set	29
   305     0015                     _CCPR1L	set	21
   306     0017                     _CCP1CONbits	set	23
   307     001E                     _ADRESH	set	30
   308     0010                     _T1CONbits	set	16
   309     001D                     _CCP2CON	set	29
   310     0012                     _T2CONbits	set	18
   311     0017                     _CCP1CON	set	23
   312     001F                     _ADCON0bits	set	31
   313     0005                     _PORTAbits	set	5
   314     0008                     _PORTD	set	8
   315     0007                     _PORTC	set	7
   316     000E                     _TMR1L	set	14
   317     000F                     _TMR1H	set	15
   318     000C                     _PIR1bits	set	12
   319     0001                     _TMR0	set	1
   320     0007                     _PORTCbits	set	7
   321     000B                     _INTCONbits	set	11
   322     0066                     _ADIF	set	102
   323     0092                     _TMR2ON	set	146
   324     0061                     _TMR2IF	set	97
   325     008F                     _OSCCONbits	set	143
   326     009E                     _ADRESL	set	158
   327     008C                     _PIE1bits	set	140
   328     0081                     _OPTION_REGbits	set	129
   329     0092                     _PR2	set	146
   330     0087                     _TRISCbits	set	135
   331     009F                     _ADCON1bits	set	159
   332     0085                     _TRISAbits	set	133
   333     0088                     _TRISD	set	136
   334     0087                     _TRISC	set	135
   335     0086                     _TRISB	set	134
   336     0188                     _ANSELbits	set	392
   337     0189                     _ANSELH	set	393
   338                           
   339                           	psect	cinit
   340     000F                     start_initialization:	
   341                           ; #config settings
   342                           
   343     000F                     __initialization:
   344                           
   345                           ; Clear objects allocated to COMMON
   346     000F  01FA               	clrf	__pbssCOMMON& (0+127)
   347     0010  01FB               	clrf	(__pbssCOMMON+1)& (0+127)
   348                           
   349                           ; Clear objects allocated to BANK0
   350     0011  1283               	bcf	3,5	;RP0=0, select bank0
   351     0012  1303               	bcf	3,6	;RP1=0, select bank0
   352     0013  01EA               	clrf	__pbssBANK0& (0+127)
   353     0014  01EB               	clrf	(__pbssBANK0+1)& (0+127)
   354     0015  01EC               	clrf	(__pbssBANK0+2)& (0+127)
   355     0016  01ED               	clrf	(__pbssBANK0+3)& (0+127)
   356     0017  01EE               	clrf	(__pbssBANK0+4)& (0+127)
   357     0018  01EF               	clrf	(__pbssBANK0+5)& (0+127)
   358                           
   359                           ; Clear objects allocated to BANK1
   360     0019  1683               	bsf	3,5	;RP0=1, select bank1
   361     001A  1303               	bcf	3,6	;RP1=0, select bank1
   362     001B  01A0               	clrf	__pbssBANK1& (0+127)
   363     001C  01A1               	clrf	(__pbssBANK1+1)& (0+127)
   364     001D  01A2               	clrf	(__pbssBANK1+2)& (0+127)
   365     001E  01A3               	clrf	(__pbssBANK1+3)& (0+127)
   366     001F  01A4               	clrf	(__pbssBANK1+4)& (0+127)
   367     0020  01A5               	clrf	(__pbssBANK1+5)& (0+127)
   368     0021  01A6               	clrf	(__pbssBANK1+6)& (0+127)
   369     0022  01A7               	clrf	(__pbssBANK1+7)& (0+127)
   370     0023                     end_of_initialization:	
   371                           ;End of C runtime variable initialization code
   372                           
   373     0023                     __end_of__initialization:
   374     0023  0183               	clrf	3
   375     0024  120A  158A  2DA8   	ljmp	_main	;jump to C main() function
   376                           
   377                           	psect	bssCOMMON
   378     007A                     __pbssCOMMON:
   379     007A                     _HIGHpulse1:
   380     007A                     	ds	2
   381                           
   382                           	psect	bssBANK0
   383     006A                     __pbssBANK0:
   384     006A                     _vPWMl:
   385     006A                     	ds	2
   386     006C                     _vPWM:
   387     006C                     	ds	2
   388     006E                     _valADC:
   389     006E                     	ds	2
   390                           
   391                           	psect	bssBANK1
   392     00A0                     __pbssBANK1:
   393     00A0                     _tmr1low:
   394     00A0                     	ds	2
   395     00A2                     _tmr1high:
   396     00A2                     	ds	2
   397     00A4                     _HIGHpulse:
   398     00A4                     	ds	2
   399     00A6                     _vPWMh:
   400     00A6                     	ds	2
   401                           
   402                           	psect	cstackBANK1
   403     00A8                     __pcstackBANK1:
   404     00A8                     ??_main:
   405                           
   406                           ; 1 bytes @ 0x0
   407     00A8                     	ds	1
   408                           
   409                           	psect	cstackCOMMON
   410     0070                     __pcstackCOMMON:
   411     0070                     ?_setup:
   412     0070                     ?_setupINTOSC:	
   413                           ; 1 bytes @ 0x0
   414                           
   415     0070                     ?_setup_ADC:	
   416                           ; 1 bytes @ 0x0
   417                           
   418     0070                     ?_setup_PWM1:	
   419                           ; 1 bytes @ 0x0
   420                           
   421     0070                     ?_setup_PWM2:	
   422                           ; 1 bytes @ 0x0
   423                           
   424     0070                     ?_setupTMR0:	
   425                           ; 1 bytes @ 0x0
   426                           
   427     0070                     ?_setupTMR1:	
   428                           ; 1 bytes @ 0x0
   429                           
   430     0070                     ?_modomanual:	
   431                           ; 1 bytes @ 0x0
   432                           
   433     0070                     ?_isr:	
   434                           ; 1 bytes @ 0x0
   435                           
   436     0070                     ??_isr:	
   437                           ; 1 bytes @ 0x0
   438                           
   439     0070                     ?_main:	
   440                           ; 1 bytes @ 0x0
   441                           
   442     0070                     ?_PWMtmr0:	
   443                           ; 1 bytes @ 0x0
   444                           
   445     0070                     ?_PWMtmr1:	
   446                           ; 1 bytes @ 0x0
   447                           
   448     0070                     ?_mapeo:	
   449                           ; 1 bytes @ 0x0
   450                           
   451                           
   452                           ; 1 bytes @ 0x0
   453     0070                     	ds	2
   454     0072                     ??_setup:
   455     0072                     ??_setupINTOSC:	
   456                           ; 1 bytes @ 0x2
   457                           
   458     0072                     ??_setup_ADC:	
   459                           ; 1 bytes @ 0x2
   460                           
   461     0072                     ??_setup_PWM1:	
   462                           ; 1 bytes @ 0x2
   463                           
   464     0072                     ??_setup_PWM2:	
   465                           ; 1 bytes @ 0x2
   466                           
   467     0072                     ??_setupTMR0:	
   468                           ; 1 bytes @ 0x2
   469                           
   470     0072                     ??_setupTMR1:	
   471                           ; 1 bytes @ 0x2
   472                           
   473     0072                     ?__Umul8_16:	
   474                           ; 1 bytes @ 0x2
   475                           
   476     0072                     ?___xxtofl:	
   477                           ; 2 bytes @ 0x2
   478                           
   479     0072                     setupINTOSC@IRCF:	
   480                           ; 4 bytes @ 0x2
   481                           
   482     0072                     __Umul8_16@multiplicand:	
   483                           ; 1 bytes @ 0x2
   484                           
   485     0072                     ___xxtofl@val:	
   486                           ; 1 bytes @ 0x2
   487                           
   488                           
   489                           ; 4 bytes @ 0x2
   490     0072                     	ds	2
   491     0074                     ??__Umul8_16:
   492                           
   493                           ; 1 bytes @ 0x4
   494     0074                     	ds	2
   495     0076                     ??___xxtofl:
   496                           
   497                           ; 1 bytes @ 0x6
   498     0076                     	ds	4
   499                           
   500                           	psect	cstackBANK0
   501     0020                     __pcstackBANK0:
   502     0020                     ___xxtofl@sign:
   503     0020                     __Umul8_16@product:	
   504                           ; 1 bytes @ 0x0
   505                           
   506                           
   507                           ; 2 bytes @ 0x0
   508     0020                     	ds	1
   509     0021                     ___xxtofl@exp:
   510                           
   511                           ; 1 bytes @ 0x1
   512     0021                     	ds	1
   513     0022                     __Umul8_16@word_mpld:
   514     0022                     ___xxtofl@arg:	
   515                           ; 2 bytes @ 0x2
   516                           
   517                           
   518                           ; 4 bytes @ 0x2
   519     0022                     	ds	2
   520     0024                     __Umul8_16@multiplier:
   521                           
   522                           ; 1 bytes @ 0x4
   523     0024                     	ds	2
   524     0026                     ?___flmul:
   525     0026                     ___flmul@b:	
   526                           ; 4 bytes @ 0x6
   527                           
   528                           
   529                           ; 4 bytes @ 0x6
   530     0026                     	ds	4
   531     002A                     ___flmul@a:
   532                           
   533                           ; 4 bytes @ 0xA
   534     002A                     	ds	4
   535     002E                     ??___flmul:
   536                           
   537                           ; 1 bytes @ 0xE
   538     002E                     	ds	5
   539     0033                     ___flmul@sign:
   540                           
   541                           ; 1 bytes @ 0x13
   542     0033                     	ds	1
   543     0034                     ___flmul@aexp:
   544                           
   545                           ; 1 bytes @ 0x14
   546     0034                     	ds	1
   547     0035                     ___flmul@grs:
   548                           
   549                           ; 4 bytes @ 0x15
   550     0035                     	ds	4
   551     0039                     ___flmul@bexp:
   552                           
   553                           ; 1 bytes @ 0x19
   554     0039                     	ds	1
   555     003A                     ___flmul@prod:
   556                           
   557                           ; 4 bytes @ 0x1A
   558     003A                     	ds	4
   559     003E                     ___flmul@temp:
   560                           
   561                           ; 2 bytes @ 0x1E
   562     003E                     	ds	2
   563     0040                     ?___fladd:
   564     0040                     ___fladd@b:	
   565                           ; 4 bytes @ 0x20
   566                           
   567                           
   568                           ; 4 bytes @ 0x20
   569     0040                     	ds	4
   570     0044                     ___fladd@a:
   571                           
   572                           ; 4 bytes @ 0x24
   573     0044                     	ds	4
   574     0048                     ??___fladd:
   575                           
   576                           ; 1 bytes @ 0x28
   577     0048                     	ds	8
   578     0050                     ___fladd@signs:
   579                           
   580                           ; 1 bytes @ 0x30
   581     0050                     	ds	1
   582     0051                     ___fladd@aexp:
   583                           
   584                           ; 1 bytes @ 0x31
   585     0051                     	ds	1
   586     0052                     ___fladd@bexp:
   587                           
   588                           ; 1 bytes @ 0x32
   589     0052                     	ds	1
   590     0053                     ___fladd@grs:
   591                           
   592                           ; 1 bytes @ 0x33
   593     0053                     	ds	1
   594     0054                     ?___fltol:
   595     0054                     ___fltol@f1:	
   596                           ; 4 bytes @ 0x34
   597                           
   598                           
   599                           ; 4 bytes @ 0x34
   600     0054                     	ds	4
   601     0058                     ??___fltol:
   602                           
   603                           ; 1 bytes @ 0x38
   604     0058                     	ds	4
   605     005C                     ___fltol@sign1:
   606                           
   607                           ; 1 bytes @ 0x3C
   608     005C                     	ds	1
   609     005D                     ___fltol@exp1:
   610                           
   611                           ; 1 bytes @ 0x3D
   612     005D                     	ds	1
   613     005E                     ??_PWMtmr0:
   614     005E                     ??_PWMtmr1:	
   615                           ; 1 bytes @ 0x3E
   616                           
   617     005E                     ??_mapeo:	
   618                           ; 1 bytes @ 0x3E
   619                           
   620                           
   621                           ; 1 bytes @ 0x3E
   622     005E                     	ds	9
   623     0067                     ??_modomanual:
   624                           
   625                           ; 1 bytes @ 0x47
   626     0067                     	ds	3
   627                           
   628                           	psect	maintext
   629     0DA8                     __pmaintext:	
   630 ;;
   631 ;;Main: autosize = 0, tempsize = 1, incstack = 0, save=0
   632 ;;
   633 ;; *************** function _main *****************
   634 ;; Defined at:
   635 ;;		line 107 in file "main.c"
   636 ;; Parameters:    Size  Location     Type
   637 ;;		None
   638 ;; Auto vars:     Size  Location     Type
   639 ;;		None
   640 ;; Return value:  Size  Location     Type
   641 ;;                  1    wreg      void 
   642 ;; Registers used:
   643 ;;		wreg, status,2, status,0, btemp+1, pclath, cstack
   644 ;; Tracked objects:
   645 ;;		On entry : B00/0
   646 ;;		On exit  : 0/0
   647 ;;		Unchanged: 0/0
   648 ;; Data sizes:     COMMON   BANK0   BANK1   BANK3   BANK2
   649 ;;      Params:         0       0       0       0       0
   650 ;;      Locals:         0       0       0       0       0
   651 ;;      Temps:          0       0       1       0       0
   652 ;;      Totals:         0       0       1       0       0
   653 ;;Total ram usage:        1 bytes
   654 ;; Hardware stack levels required when called: 5
   655 ;; This function calls:
   656 ;;		_modomanual
   657 ;;		_setup
   658 ;;		_setupINTOSC
   659 ;;		_setupTMR0
   660 ;;		_setupTMR1
   661 ;;		_setup_ADC
   662 ;;		_setup_PWM1
   663 ;;		_setup_PWM2
   664 ;; This function is called by:
   665 ;;		Startup code after reset
   666 ;; This function uses a non-reentrant model
   667 ;;
   668                           
   669     0DA8                     _main:	
   670                           ;psect for function _main
   671                           
   672     0DA8                     l2218:	
   673                           ;incstack = 0
   674                           ; Regs used in _main: [wreg+status,2+status,0+btemp+1+pclath+cstack]
   675                           
   676                           
   677                           ;main.c: 108:     setup();
   678     0DA8  120A  158A  2509  120A  158A  	fcall	_setup
   679     0DAD                     l2220:
   680                           
   681                           ;main.c: 109:     setupINTOSC(4);
   682     0DAD  3004               	movlw	4
   683     0DAE  120A  158A  2625  120A  158A  	fcall	_setupINTOSC
   684     0DB3                     l2222:
   685                           
   686                           ;main.c: 110:     setup_ADC();
   687     0DB3  120A  158A  2573  120A  158A  	fcall	_setup_ADC
   688     0DB8                     l2224:
   689                           
   690                           ;main.c: 111:     setup_PWM1();
   691     0DB8  120A  118A  27E3  120A  158A  	fcall	_setup_PWM1
   692     0DBD                     l2226:
   693                           
   694                           ;main.c: 112:     setup_PWM2();
   695     0DBD  120A  158A  2525  120A  158A  	fcall	_setup_PWM2
   696     0DC2                     l2228:
   697                           
   698                           ;main.c: 113:     setupTMR0();
   699     0DC2  120A  158A  2516  120A  158A  	fcall	_setupTMR0
   700     0DC7                     l2230:
   701                           
   702                           ;main.c: 114:     setupTMR1();
   703     0DC7  120A  158A  2537  120A  158A  	fcall	_setupTMR1
   704     0DCC                     l2232:
   705                           
   706                           ;main.c: 115:     HIGHpulse = 241;
   707     0DCC  30F1               	movlw	241
   708     0DCD  1683               	bsf	3,5	;RP0=1, select bank1
   709     0DCE  1303               	bcf	3,6	;RP1=0, select bank1
   710     0DCF  00A4               	movwf	_HIGHpulse^(0+128)
   711     0DD0  3000               	movlw	0
   712     0DD1  00A5               	movwf	(_HIGHpulse^(0+128)+1)
   713     0DD2                     l2234:
   714                           
   715                           ;main.c: 116:     HIGHpulse = 241;
   716     0DD2  30F1               	movlw	241
   717     0DD3  00A4               	movwf	_HIGHpulse^(0+128)
   718     0DD4  3000               	movlw	0
   719     0DD5  00A5               	movwf	(_HIGHpulse^(0+128)+1)
   720     0DD6                     l2236:
   721                           
   722                           ;main.c: 118:         modomanual();
   723     0DD6  120A  118A  2740  120A  158A  	fcall	_modomanual
   724     0DDB                     l2238:
   725                           
   726                           ;main.c: 119:         _delay((unsigned long)((1)*(1000000/4000.0)));
   727     0DDB  3052               	movlw	82
   728     0DDC  1683               	bsf	3,5	;RP0=1, select bank1
   729     0DDD  1303               	bcf	3,6	;RP1=0, select bank1
   730     0DDE  00A8               	movwf	??_main^(0+128)
   731     0DDF                     u3167:
   732     0DDF  0BA8               	decfsz	??_main^(0+128),f
   733     0DE0  2DDF               	goto	u3167
   734     0DE1  0000               	nop
   735     0DE2  2DD6               	goto	l2236
   736     0DE3  120A  118A  280C   	ljmp	start
   737     0DE6                     __end_of_main:
   738                           
   739                           	psect	text1
   740     0D25                     __ptext1:	
   741 ;; *************** function _setup_PWM2 *****************
   742 ;; Defined at:
   743 ;;		line 177 in file "main.c"
   744 ;; Parameters:    Size  Location     Type
   745 ;;		None
   746 ;; Auto vars:     Size  Location     Type
   747 ;;		None
   748 ;; Return value:  Size  Location     Type
   749 ;;                  1    wreg      void 
   750 ;; Registers used:
   751 ;;		wreg
   752 ;; Tracked objects:
   753 ;;		On entry : 0/0
   754 ;;		On exit  : 0/0
   755 ;;		Unchanged: 0/0
   756 ;; Data sizes:     COMMON   BANK0   BANK1   BANK3   BANK2
   757 ;;      Params:         0       0       0       0       0
   758 ;;      Locals:         0       0       0       0       0
   759 ;;      Temps:          0       0       0       0       0
   760 ;;      Totals:         0       0       0       0       0
   761 ;;Total ram usage:        0 bytes
   762 ;; Hardware stack levels used: 1
   763 ;; Hardware stack levels required when called: 1
   764 ;; This function calls:
   765 ;;		Nothing
   766 ;; This function is called by:
   767 ;;		_main
   768 ;; This function uses a non-reentrant model
   769 ;;
   770                           
   771     0D25                     _setup_PWM2:	
   772                           ;psect for function _setup_PWM2
   773                           
   774     0D25                     l1870:	
   775                           ;incstack = 0
   776                           ; Regs used in _setup_PWM2: [wreg]
   777                           
   778                           
   779                           ;main.c: 178:     TRISCbits.TRISC1 = 1;
   780     0D25  1683               	bsf	3,5	;RP0=1, select bank1
   781     0D26  1303               	bcf	3,6	;RP1=0, select bank1
   782     0D27  1487               	bsf	7,1	;volatile
   783     0D28                     l1872:
   784                           
   785                           ;main.c: 179:     PR2 = 254;
   786     0D28  30FE               	movlw	254
   787     0D29  0092               	movwf	18	;volatile
   788                           
   789                           ;main.c: 180:     CCP2CON = 0b00001100;
   790     0D2A  300C               	movlw	12
   791     0D2B  1283               	bcf	3,5	;RP0=0, select bank0
   792     0D2C  1303               	bcf	3,6	;RP1=0, select bank0
   793     0D2D  009D               	movwf	29	;volatile
   794     0D2E                     l1874:
   795                           
   796                           ;main.c: 181:     TMR2IF = 0;
   797     0D2E  108C               	bcf	12,1	;volatile
   798     0D2F                     l136:	
   799                           ;main.c: 182:     while(!TMR2IF);
   800                           
   801     0D2F  1C8C               	btfss	12,1	;volatile
   802     0D30  2D32               	goto	u2581
   803     0D31  2D33               	goto	u2580
   804     0D32                     u2581:
   805     0D32  2D2F               	goto	l136
   806     0D33                     u2580:
   807     0D33                     l138:
   808                           
   809                           ;main.c: 183:     TRISCbits.TRISC1 = 0;
   810     0D33  1683               	bsf	3,5	;RP0=1, select bank1
   811     0D34  1303               	bcf	3,6	;RP1=0, select bank1
   812     0D35  1087               	bcf	7,1	;volatile
   813     0D36                     l139:
   814     0D36  0008               	return
   815     0D37                     __end_of_setup_PWM2:
   816                           
   817                           	psect	text2
   818     07E3                     __ptext2:	
   819 ;; *************** function _setup_PWM1 *****************
   820 ;; Defined at:
   821 ;;		line 167 in file "main.c"
   822 ;; Parameters:    Size  Location     Type
   823 ;;		None
   824 ;; Auto vars:     Size  Location     Type
   825 ;;		None
   826 ;; Return value:  Size  Location     Type
   827 ;;                  1    wreg      void 
   828 ;; Registers used:
   829 ;;		wreg, status,2, status,0
   830 ;; Tracked objects:
   831 ;;		On entry : 0/0
   832 ;;		On exit  : 0/0
   833 ;;		Unchanged: 0/0
   834 ;; Data sizes:     COMMON   BANK0   BANK1   BANK3   BANK2
   835 ;;      Params:         0       0       0       0       0
   836 ;;      Locals:         0       0       0       0       0
   837 ;;      Temps:          0       0       0       0       0
   838 ;;      Totals:         0       0       0       0       0
   839 ;;Total ram usage:        0 bytes
   840 ;; Hardware stack levels used: 1
   841 ;; Hardware stack levels required when called: 1
   842 ;; This function calls:
   843 ;;		Nothing
   844 ;; This function is called by:
   845 ;;		_main
   846 ;; This function uses a non-reentrant model
   847 ;;
   848                           
   849     07E3                     _setup_PWM1:	
   850                           ;psect for function _setup_PWM1
   851                           
   852     07E3                     l1860:	
   853                           ;incstack = 0
   854                           ; Regs used in _setup_PWM1: [wreg+status,2+status,0]
   855                           
   856                           
   857                           ;main.c: 168:     TRISCbits.TRISC2 = 1;
   858     07E3  1683               	bsf	3,5	;RP0=1, select bank1
   859     07E4  1303               	bcf	3,6	;RP1=0, select bank1
   860     07E5  1507               	bsf	7,2	;volatile
   861     07E6                     l1862:
   862                           
   863                           ;main.c: 169:     PR2 = 254;
   864     07E6  30FE               	movlw	254
   865     07E7  0092               	movwf	18	;volatile
   866                           
   867                           ;main.c: 170:     CCP1CON = 0b00001100;
   868     07E8  300C               	movlw	12
   869     07E9  1283               	bcf	3,5	;RP0=0, select bank0
   870     07EA  1303               	bcf	3,6	;RP1=0, select bank0
   871     07EB  0097               	movwf	23	;volatile
   872     07EC                     l1864:
   873                           
   874                           ;main.c: 171:     TMR2IF = 0;
   875     07EC  108C               	bcf	12,1	;volatile
   876     07ED                     l1866:
   877                           
   878                           ;main.c: 172:     T2CONbits.T2CKPS = 0b11;
   879     07ED  3003               	movlw	3
   880     07EE  0492               	iorwf	18,f	;volatile
   881     07EF                     l1868:
   882                           
   883                           ;main.c: 173:     TMR2ON = 1;
   884     07EF  1512               	bsf	18,2	;volatile
   885     07F0                     l130:	
   886                           ;main.c: 174:     while(!TMR2IF);
   887                           
   888     07F0  1C8C               	btfss	12,1	;volatile
   889     07F1  2FF3               	goto	u2571
   890     07F2  2FF4               	goto	u2570
   891     07F3                     u2571:
   892     07F3  2FF0               	goto	l130
   893     07F4                     u2570:
   894     07F4                     l132:
   895                           
   896                           ;main.c: 175:     TRISCbits.TRISC2 = 0;
   897     07F4  1683               	bsf	3,5	;RP0=1, select bank1
   898     07F5  1303               	bcf	3,6	;RP1=0, select bank1
   899     07F6  1107               	bcf	7,2	;volatile
   900     07F7                     l133:
   901     07F7  0008               	return
   902     07F8                     __end_of_setup_PWM1:
   903                           
   904                           	psect	text3
   905     0D73                     __ptext3:	
   906 ;; *************** function _setup_ADC *****************
   907 ;; Defined at:
   908 ;;		line 136 in file "main.c"
   909 ;; Parameters:    Size  Location     Type
   910 ;;		None
   911 ;; Auto vars:     Size  Location     Type
   912 ;;		None
   913 ;; Return value:  Size  Location     Type
   914 ;;                  1    wreg      void 
   915 ;; Registers used:
   916 ;;		wreg
   917 ;; Tracked objects:
   918 ;;		On entry : 0/0
   919 ;;		On exit  : 0/0
   920 ;;		Unchanged: 0/0
   921 ;; Data sizes:     COMMON   BANK0   BANK1   BANK3   BANK2
   922 ;;      Params:         0       0       0       0       0
   923 ;;      Locals:         0       0       0       0       0
   924 ;;      Temps:          1       0       0       0       0
   925 ;;      Totals:         1       0       0       0       0
   926 ;;Total ram usage:        1 bytes
   927 ;; Hardware stack levels used: 1
   928 ;; Hardware stack levels required when called: 1
   929 ;; This function calls:
   930 ;;		Nothing
   931 ;; This function is called by:
   932 ;;		_main
   933 ;; This function uses a non-reentrant model
   934 ;;
   935                           
   936     0D73                     _setup_ADC:	
   937                           ;psect for function _setup_ADC
   938                           
   939     0D73                     l1856:	
   940                           ;incstack = 0
   941                           ; Regs used in _setup_ADC: [wreg]
   942                           
   943                           
   944                           ;main.c: 137:     PORTAbits.RA0 = 0;
   945     0D73  1283               	bcf	3,5	;RP0=0, select bank0
   946     0D74  1303               	bcf	3,6	;RP1=0, select bank0
   947     0D75  1005               	bcf	5,0	;volatile
   948                           
   949                           ;main.c: 138:     TRISAbits.TRISA0 = 1;
   950     0D76  1683               	bsf	3,5	;RP0=1, select bank1
   951     0D77  1303               	bcf	3,6	;RP1=0, select bank1
   952     0D78  1405               	bsf	5,0	;volatile
   953                           
   954                           ;main.c: 139:     ANSELbits.ANS0 = 1;
   955     0D79  1683               	bsf	3,5	;RP0=1, select bank3
   956     0D7A  1703               	bsf	3,6	;RP1=1, select bank3
   957     0D7B  1408               	bsf	8,0	;volatile
   958                           
   959                           ;main.c: 141:     PORTAbits.RA1 = 0;
   960     0D7C  1283               	bcf	3,5	;RP0=0, select bank0
   961     0D7D  1303               	bcf	3,6	;RP1=0, select bank0
   962     0D7E  1085               	bcf	5,1	;volatile
   963                           
   964                           ;main.c: 142:     TRISAbits.TRISA1 = 1;
   965     0D7F  1683               	bsf	3,5	;RP0=1, select bank1
   966     0D80  1303               	bcf	3,6	;RP1=0, select bank1
   967     0D81  1485               	bsf	5,1	;volatile
   968                           
   969                           ;main.c: 143:     ANSELbits.ANS1 = 1;
   970     0D82  1683               	bsf	3,5	;RP0=1, select bank3
   971     0D83  1703               	bsf	3,6	;RP1=1, select bank3
   972     0D84  1488               	bsf	8,1	;volatile
   973                           
   974                           ;main.c: 145:     PORTAbits.RA2 = 0;
   975     0D85  1283               	bcf	3,5	;RP0=0, select bank0
   976     0D86  1303               	bcf	3,6	;RP1=0, select bank0
   977     0D87  1105               	bcf	5,2	;volatile
   978                           
   979                           ;main.c: 146:     TRISAbits.TRISA2 = 1;
   980     0D88  1683               	bsf	3,5	;RP0=1, select bank1
   981     0D89  1303               	bcf	3,6	;RP1=0, select bank1
   982     0D8A  1505               	bsf	5,2	;volatile
   983                           
   984                           ;main.c: 147:     ANSELbits.ANS2 = 1;
   985     0D8B  1683               	bsf	3,5	;RP0=1, select bank3
   986     0D8C  1703               	bsf	3,6	;RP1=1, select bank3
   987     0D8D  1508               	bsf	8,2	;volatile
   988                           
   989                           ;main.c: 149:     PORTAbits.RA3 = 0;
   990     0D8E  1283               	bcf	3,5	;RP0=0, select bank0
   991     0D8F  1303               	bcf	3,6	;RP1=0, select bank0
   992     0D90  1185               	bcf	5,3	;volatile
   993                           
   994                           ;main.c: 150:     TRISAbits.TRISA3 = 1;
   995     0D91  1683               	bsf	3,5	;RP0=1, select bank1
   996     0D92  1303               	bcf	3,6	;RP1=0, select bank1
   997     0D93  1585               	bsf	5,3	;volatile
   998                           
   999                           ;main.c: 151:     ANSELbits.ANS3 = 1;
  1000     0D94  1683               	bsf	3,5	;RP0=1, select bank3
  1001     0D95  1703               	bsf	3,6	;RP1=1, select bank3
  1002     0D96  1588               	bsf	8,3	;volatile
  1003                           
  1004                           ;main.c: 153:     ADCON0bits.ADCS1 = 0;
  1005     0D97  1283               	bcf	3,5	;RP0=0, select bank0
  1006     0D98  1303               	bcf	3,6	;RP1=0, select bank0
  1007     0D99  139F               	bcf	31,7	;volatile
  1008                           
  1009                           ;main.c: 154:     ADCON0bits.ADCS0 = 1;
  1010     0D9A  171F               	bsf	31,6	;volatile
  1011                           
  1012                           ;main.c: 156:     ADCON1bits.VCFG1 = 0;
  1013     0D9B  1683               	bsf	3,5	;RP0=1, select bank1
  1014     0D9C  1303               	bcf	3,6	;RP1=0, select bank1
  1015     0D9D  129F               	bcf	31,5	;volatile
  1016                           
  1017                           ;main.c: 157:     ADCON1bits.VCFG0 = 0;
  1018     0D9E  121F               	bcf	31,4	;volatile
  1019                           
  1020                           ;main.c: 159:     ADCON1bits.ADFM = 0;
  1021     0D9F  139F               	bcf	31,7	;volatile
  1022                           
  1023                           ;main.c: 161:     ADCON0bits.ADON = 1;
  1024     0DA0  1283               	bcf	3,5	;RP0=0, select bank0
  1025     0DA1  1303               	bcf	3,6	;RP1=0, select bank0
  1026     0DA2  141F               	bsf	31,0	;volatile
  1027     0DA3                     l1858:
  1028                           
  1029                           ;main.c: 162:     _delay((unsigned long)((100)*(1000000/4000000.0)));
  1030     0DA3  3008               	movlw	8
  1031     0DA4  00F2               	movwf	??_setup_ADC
  1032     0DA5                     u3177:
  1033     0DA5  0BF2               	decfsz	??_setup_ADC,f
  1034     0DA6  2DA5               	goto	u3177
  1035     0DA7                     l127:
  1036     0DA7  0008               	return
  1037     0DA8                     __end_of_setup_ADC:
  1038                           
  1039                           	psect	text4
  1040     0D37                     __ptext4:	
  1041 ;; *************** function _setupTMR1 *****************
  1042 ;; Defined at:
  1043 ;;		line 201 in file "main.c"
  1044 ;; Parameters:    Size  Location     Type
  1045 ;;		None
  1046 ;; Auto vars:     Size  Location     Type
  1047 ;;		None
  1048 ;; Return value:  Size  Location     Type
  1049 ;;                  1    wreg      void 
  1050 ;; Registers used:
  1051 ;;		wreg, status,2, status,0
  1052 ;; Tracked objects:
  1053 ;;		On entry : 0/0
  1054 ;;		On exit  : 0/0
  1055 ;;		Unchanged: 0/0
  1056 ;; Data sizes:     COMMON   BANK0   BANK1   BANK3   BANK2
  1057 ;;      Params:         0       0       0       0       0
  1058 ;;      Locals:         0       0       0       0       0
  1059 ;;      Temps:          0       0       0       0       0
  1060 ;;      Totals:         0       0       0       0       0
  1061 ;;Total ram usage:        0 bytes
  1062 ;; Hardware stack levels used: 1
  1063 ;; Hardware stack levels required when called: 1
  1064 ;; This function calls:
  1065 ;;		Nothing
  1066 ;; This function is called by:
  1067 ;;		_main
  1068 ;; This function uses a non-reentrant model
  1069 ;;
  1070                           
  1071     0D37                     _setupTMR1:	
  1072                           ;psect for function _setupTMR1
  1073                           
  1074     0D37                     l1882:	
  1075                           ;incstack = 0
  1076                           ; Regs used in _setupTMR1: [wreg+status,2+status,0]
  1077                           
  1078                           
  1079                           ;main.c: 202:     T1CONbits.T1CKPS = 0;
  1080     0D37  30CF               	movlw	-49
  1081     0D38  1283               	bcf	3,5	;RP0=0, select bank0
  1082     0D39  1303               	bcf	3,6	;RP1=0, select bank0
  1083     0D3A  0590               	andwf	16,f	;volatile
  1084     0D3B                     l1884:
  1085                           
  1086                           ;main.c: 203:     T1CONbits.T1OSCEN = 0;
  1087     0D3B  1190               	bcf	16,3	;volatile
  1088     0D3C                     l1886:
  1089                           
  1090                           ;main.c: 204:     T1CONbits.TMR1CS = 0;
  1091     0D3C  1090               	bcf	16,1	;volatile
  1092     0D3D                     l1888:
  1093                           
  1094                           ;main.c: 205:     T1CONbits.TMR1ON = 1;
  1095     0D3D  1410               	bsf	16,0	;volatile
  1096     0D3E                     l1890:
  1097                           
  1098                           ;main.c: 207:     TMR1H = 0xEF;
  1099     0D3E  30EF               	movlw	239
  1100     0D3F  008F               	movwf	15	;volatile
  1101     0D40                     l1892:
  1102                           
  1103                           ;main.c: 208:     TMR1L = 0x82;
  1104     0D40  3082               	movlw	130
  1105     0D41  008E               	movwf	14	;volatile
  1106     0D42                     l1894:
  1107                           
  1108                           ;main.c: 209:     INTCONbits.PEIE = 1;
  1109     0D42  170B               	bsf	11,6	;volatile
  1110     0D43                     l1896:
  1111                           
  1112                           ;main.c: 210:     PIE1bits.TMR1IE = 1;
  1113     0D43  1683               	bsf	3,5	;RP0=1, select bank1
  1114     0D44  1303               	bcf	3,6	;RP1=0, select bank1
  1115     0D45  140C               	bsf	12,0	;volatile
  1116     0D46                     l1898:
  1117                           
  1118                           ;main.c: 211:     PIR1bits.TMR1IF = 0;
  1119     0D46  1283               	bcf	3,5	;RP0=0, select bank0
  1120     0D47  1303               	bcf	3,6	;RP1=0, select bank0
  1121     0D48  100C               	bcf	12,0	;volatile
  1122     0D49                     l145:
  1123     0D49  0008               	return
  1124     0D4A                     __end_of_setupTMR1:
  1125                           
  1126                           	psect	text5
  1127     0D16                     __ptext5:	
  1128 ;; *************** function _setupTMR0 *****************
  1129 ;; Defined at:
  1130 ;;		line 188 in file "main.c"
  1131 ;; Parameters:    Size  Location     Type
  1132 ;;		None
  1133 ;; Auto vars:     Size  Location     Type
  1134 ;;		None
  1135 ;; Return value:  Size  Location     Type
  1136 ;;                  1    wreg      void 
  1137 ;; Registers used:
  1138 ;;		wreg, status,2, status,0
  1139 ;; Tracked objects:
  1140 ;;		On entry : 0/0
  1141 ;;		On exit  : 0/0
  1142 ;;		Unchanged: 0/0
  1143 ;; Data sizes:     COMMON   BANK0   BANK1   BANK3   BANK2
  1144 ;;      Params:         0       0       0       0       0
  1145 ;;      Locals:         0       0       0       0       0
  1146 ;;      Temps:          0       0       0       0       0
  1147 ;;      Totals:         0       0       0       0       0
  1148 ;;Total ram usage:        0 bytes
  1149 ;; Hardware stack levels used: 1
  1150 ;; Hardware stack levels required when called: 1
  1151 ;; This function calls:
  1152 ;;		Nothing
  1153 ;; This function is called by:
  1154 ;;		_main
  1155 ;; This function uses a non-reentrant model
  1156 ;;
  1157                           
  1158     0D16                     _setupTMR0:	
  1159                           ;psect for function _setupTMR0
  1160                           
  1161     0D16                     l1876:	
  1162                           ;incstack = 0
  1163                           ; Regs used in _setupTMR0: [wreg+status,2+status,0]
  1164                           
  1165                           
  1166                           ;main.c: 189:     INTCONbits.GIE = 1;
  1167     0D16  178B               	bsf	11,7	;volatile
  1168                           
  1169                           ;main.c: 190:     INTCONbits.T0IE = 1;
  1170     0D17  168B               	bsf	11,5	;volatile
  1171                           
  1172                           ;main.c: 191:     INTCONbits.T0IF = 0;
  1173     0D18  110B               	bcf	11,2	;volatile
  1174                           
  1175                           ;main.c: 193:     OPTION_REGbits.T0CS = 0;
  1176     0D19  1683               	bsf	3,5	;RP0=1, select bank1
  1177     0D1A  1303               	bcf	3,6	;RP1=0, select bank1
  1178     0D1B  1281               	bcf	1,5	;volatile
  1179                           
  1180                           ;main.c: 194:     OPTION_REGbits.PSA = 0;
  1181     0D1C  1181               	bcf	1,3	;volatile
  1182     0D1D                     l1878:
  1183                           
  1184                           ;main.c: 195:     OPTION_REGbits.PS = 0b011;
  1185     0D1D  0801               	movf	1,w	;volatile
  1186     0D1E  39F8               	andlw	-8
  1187     0D1F  3803               	iorlw	3
  1188     0D20  0081               	movwf	1	;volatile
  1189     0D21                     l1880:
  1190                           
  1191                           ;main.c: 196:     TMR0 = 0;
  1192     0D21  1283               	bcf	3,5	;RP0=0, select bank0
  1193     0D22  1303               	bcf	3,6	;RP1=0, select bank0
  1194     0D23  0181               	clrf	1	;volatile
  1195     0D24                     l142:
  1196     0D24  0008               	return
  1197     0D25                     __end_of_setupTMR0:
  1198                           
  1199                           	psect	text6
  1200     0E25                     __ptext6:	
  1201 ;; *************** function _setupINTOSC *****************
  1202 ;; Defined at:
  1203 ;;		line 10 in file "oscilador.c"
  1204 ;; Parameters:    Size  Location     Type
  1205 ;;  IRCF            1    wreg     unsigned char 
  1206 ;; Auto vars:     Size  Location     Type
  1207 ;;  IRCF            1    2[COMMON] unsigned char 
  1208 ;; Return value:  Size  Location     Type
  1209 ;;                  1    wreg      void 
  1210 ;; Registers used:
  1211 ;;		wreg, status,2, status,0
  1212 ;; Tracked objects:
  1213 ;;		On entry : 0/0
  1214 ;;		On exit  : 0/0
  1215 ;;		Unchanged: 0/0
  1216 ;; Data sizes:     COMMON   BANK0   BANK1   BANK3   BANK2
  1217 ;;      Params:         0       0       0       0       0
  1218 ;;      Locals:         1       0       0       0       0
  1219 ;;      Temps:          0       0       0       0       0
  1220 ;;      Totals:         1       0       0       0       0
  1221 ;;Total ram usage:        1 bytes
  1222 ;; Hardware stack levels used: 1
  1223 ;; Hardware stack levels required when called: 1
  1224 ;; This function calls:
  1225 ;;		Nothing
  1226 ;; This function is called by:
  1227 ;;		_main
  1228 ;; This function uses a non-reentrant model
  1229 ;;
  1230                           
  1231     0E25                     _setupINTOSC:	
  1232                           ;psect for function _setupINTOSC
  1233                           
  1234                           
  1235                           ;incstack = 0
  1236                           ; Regs used in _setupINTOSC: [wreg+status,2+status,0]
  1237                           ;setupINTOSC@IRCF stored from wreg
  1238     0E25  00F2               	movwf	setupINTOSC@IRCF
  1239     0E26                     l1836:
  1240                           
  1241                           ;oscilador.c: 11:     if (IRCF == 7){
  1242     0E26  3007               	movlw	7
  1243     0E27  0672               	xorwf	setupINTOSC@IRCF,w
  1244     0E28  1D03               	btfss	3,2
  1245     0E29  2E2B               	goto	u2491
  1246     0E2A  2E2C               	goto	u2490
  1247     0E2B                     u2491:
  1248     0E2B  2E30               	goto	l174
  1249     0E2C                     u2490:
  1250     0E2C                     l1838:
  1251                           
  1252                           ;oscilador.c: 12:         OSCCONbits.IRCF = 0b111;
  1253     0E2C  3070               	movlw	112
  1254     0E2D  1683               	bsf	3,5	;RP0=1, select bank1
  1255     0E2E  1303               	bcf	3,6	;RP1=0, select bank1
  1256     0E2F  048F               	iorwf	15,f	;volatile
  1257     0E30                     l174:	
  1258                           ;oscilador.c: 13:     }
  1259                           
  1260                           
  1261                           ;oscilador.c: 14:     if (IRCF == 6){
  1262     0E30  3006               	movlw	6
  1263     0E31  0672               	xorwf	setupINTOSC@IRCF,w
  1264     0E32  1D03               	btfss	3,2
  1265     0E33  2E35               	goto	u2501
  1266     0E34  2E36               	goto	u2500
  1267     0E35                     u2501:
  1268     0E35  2E3C               	goto	l175
  1269     0E36                     u2500:
  1270     0E36                     l1840:
  1271                           
  1272                           ;oscilador.c: 15:         OSCCONbits.IRCF = 0b110;
  1273     0E36  1683               	bsf	3,5	;RP0=1, select bank1
  1274     0E37  1303               	bcf	3,6	;RP1=0, select bank1
  1275     0E38  080F               	movf	15,w	;volatile
  1276     0E39  398F               	andlw	-113
  1277     0E3A  3860               	iorlw	96
  1278     0E3B  008F               	movwf	15	;volatile
  1279     0E3C                     l175:	
  1280                           ;oscilador.c: 16:     }
  1281                           
  1282                           
  1283                           ;oscilador.c: 17:     if (IRCF == 5){
  1284     0E3C  3005               	movlw	5
  1285     0E3D  0672               	xorwf	setupINTOSC@IRCF,w
  1286     0E3E  1D03               	btfss	3,2
  1287     0E3F  2E41               	goto	u2511
  1288     0E40  2E42               	goto	u2510
  1289     0E41                     u2511:
  1290     0E41  2E48               	goto	l176
  1291     0E42                     u2510:
  1292     0E42                     l1842:
  1293                           
  1294                           ;oscilador.c: 18:         OSCCONbits.IRCF = 0b101;
  1295     0E42  1683               	bsf	3,5	;RP0=1, select bank1
  1296     0E43  1303               	bcf	3,6	;RP1=0, select bank1
  1297     0E44  080F               	movf	15,w	;volatile
  1298     0E45  398F               	andlw	-113
  1299     0E46  3850               	iorlw	80
  1300     0E47  008F               	movwf	15	;volatile
  1301     0E48                     l176:	
  1302                           ;oscilador.c: 19:     }
  1303                           
  1304                           
  1305                           ;oscilador.c: 20:     if (IRCF == 4){
  1306     0E48  3004               	movlw	4
  1307     0E49  0672               	xorwf	setupINTOSC@IRCF,w
  1308     0E4A  1D03               	btfss	3,2
  1309     0E4B  2E4D               	goto	u2521
  1310     0E4C  2E4E               	goto	u2520
  1311     0E4D                     u2521:
  1312     0E4D  2E54               	goto	l177
  1313     0E4E                     u2520:
  1314     0E4E                     l1844:
  1315                           
  1316                           ;oscilador.c: 21:         OSCCONbits.IRCF = 0b100;
  1317     0E4E  1683               	bsf	3,5	;RP0=1, select bank1
  1318     0E4F  1303               	bcf	3,6	;RP1=0, select bank1
  1319     0E50  080F               	movf	15,w	;volatile
  1320     0E51  398F               	andlw	-113
  1321     0E52  3840               	iorlw	64
  1322     0E53  008F               	movwf	15	;volatile
  1323     0E54                     l177:	
  1324                           ;oscilador.c: 22:     }
  1325                           
  1326                           
  1327                           ;oscilador.c: 23:     if (IRCF == 3){
  1328     0E54  3003               	movlw	3
  1329     0E55  0672               	xorwf	setupINTOSC@IRCF,w
  1330     0E56  1D03               	btfss	3,2
  1331     0E57  2E59               	goto	u2531
  1332     0E58  2E5A               	goto	u2530
  1333     0E59                     u2531:
  1334     0E59  2E60               	goto	l178
  1335     0E5A                     u2530:
  1336     0E5A                     l1846:
  1337                           
  1338                           ;oscilador.c: 24:         OSCCONbits.IRCF = 0b011;
  1339     0E5A  1683               	bsf	3,5	;RP0=1, select bank1
  1340     0E5B  1303               	bcf	3,6	;RP1=0, select bank1
  1341     0E5C  080F               	movf	15,w	;volatile
  1342     0E5D  398F               	andlw	-113
  1343     0E5E  3830               	iorlw	48
  1344     0E5F  008F               	movwf	15	;volatile
  1345     0E60                     l178:	
  1346                           ;oscilador.c: 25:     }
  1347                           
  1348                           
  1349                           ;oscilador.c: 26:     if (IRCF == 2){
  1350     0E60  3002               	movlw	2
  1351     0E61  0672               	xorwf	setupINTOSC@IRCF,w
  1352     0E62  1D03               	btfss	3,2
  1353     0E63  2E65               	goto	u2541
  1354     0E64  2E66               	goto	u2540
  1355     0E65                     u2541:
  1356     0E65  2E6C               	goto	l179
  1357     0E66                     u2540:
  1358     0E66                     l1848:
  1359                           
  1360                           ;oscilador.c: 27:         OSCCONbits.IRCF = 0b010;
  1361     0E66  1683               	bsf	3,5	;RP0=1, select bank1
  1362     0E67  1303               	bcf	3,6	;RP1=0, select bank1
  1363     0E68  080F               	movf	15,w	;volatile
  1364     0E69  398F               	andlw	-113
  1365     0E6A  3820               	iorlw	32
  1366     0E6B  008F               	movwf	15	;volatile
  1367     0E6C                     l179:	
  1368                           ;oscilador.c: 28:     }
  1369                           
  1370                           
  1371                           ;oscilador.c: 29:     if (IRCF == 1){
  1372     0E6C  0372               	decf	setupINTOSC@IRCF,w
  1373     0E6D  1D03               	btfss	3,2
  1374     0E6E  2E70               	goto	u2551
  1375     0E6F  2E71               	goto	u2550
  1376     0E70                     u2551:
  1377     0E70  2E77               	goto	l180
  1378     0E71                     u2550:
  1379     0E71                     l1850:
  1380                           
  1381                           ;oscilador.c: 30:         OSCCONbits.IRCF = 0b001;
  1382     0E71  1683               	bsf	3,5	;RP0=1, select bank1
  1383     0E72  1303               	bcf	3,6	;RP1=0, select bank1
  1384     0E73  080F               	movf	15,w	;volatile
  1385     0E74  398F               	andlw	-113
  1386     0E75  3810               	iorlw	16
  1387     0E76  008F               	movwf	15	;volatile
  1388     0E77                     l180:	
  1389                           ;oscilador.c: 31:     }
  1390                           
  1391                           
  1392                           ;oscilador.c: 32:     if (IRCF == 0){
  1393     0E77  0872               	movf	setupINTOSC@IRCF,w
  1394     0E78  1D03               	btfss	3,2
  1395     0E79  2E7B               	goto	u2561
  1396     0E7A  2E7C               	goto	u2560
  1397     0E7B                     u2561:
  1398     0E7B  2E80               	goto	l1854
  1399     0E7C                     u2560:
  1400     0E7C                     l1852:
  1401                           
  1402                           ;oscilador.c: 33:         OSCCONbits.IRCF = 0b000;
  1403     0E7C  308F               	movlw	-113
  1404     0E7D  1683               	bsf	3,5	;RP0=1, select bank1
  1405     0E7E  1303               	bcf	3,6	;RP1=0, select bank1
  1406     0E7F  058F               	andwf	15,f	;volatile
  1407     0E80                     l1854:
  1408                           
  1409                           ;oscilador.c: 36:     OSCCONbits.SCS = 1;
  1410     0E80  1683               	bsf	3,5	;RP0=1, select bank1
  1411     0E81  1303               	bcf	3,6	;RP1=0, select bank1
  1412     0E82  140F               	bsf	15,0	;volatile
  1413     0E83                     l182:
  1414     0E83  0008               	return
  1415     0E84                     __end_of_setupINTOSC:
  1416                           
  1417                           	psect	text7
  1418     0D09                     __ptext7:	
  1419 ;; *************** function _setup *****************
  1420 ;; Defined at:
  1421 ;;		line 125 in file "main.c"
  1422 ;; Parameters:    Size  Location     Type
  1423 ;;		None
  1424 ;; Auto vars:     Size  Location     Type
  1425 ;;		None
  1426 ;; Return value:  Size  Location     Type
  1427 ;;                  1    wreg      void 
  1428 ;; Registers used:
  1429 ;;		status,2
  1430 ;; Tracked objects:
  1431 ;;		On entry : 0/0
  1432 ;;		On exit  : 0/0
  1433 ;;		Unchanged: 0/0
  1434 ;; Data sizes:     COMMON   BANK0   BANK1   BANK3   BANK2
  1435 ;;      Params:         0       0       0       0       0
  1436 ;;      Locals:         0       0       0       0       0
  1437 ;;      Temps:          0       0       0       0       0
  1438 ;;      Totals:         0       0       0       0       0
  1439 ;;Total ram usage:        0 bytes
  1440 ;; Hardware stack levels used: 1
  1441 ;; Hardware stack levels required when called: 1
  1442 ;; This function calls:
  1443 ;;		Nothing
  1444 ;; This function is called by:
  1445 ;;		_main
  1446 ;; This function uses a non-reentrant model
  1447 ;;
  1448                           
  1449     0D09                     _setup:	
  1450                           ;psect for function _setup
  1451                           
  1452     0D09                     l1834:	
  1453                           ;incstack = 0
  1454                           ; Regs used in _setup: [status,2]
  1455                           
  1456                           
  1457                           ;main.c: 126:     ANSELH = 0;
  1458     0D09  1683               	bsf	3,5	;RP0=1, select bank3
  1459     0D0A  1703               	bsf	3,6	;RP1=1, select bank3
  1460     0D0B  0189               	clrf	9	;volatile
  1461                           
  1462                           ;main.c: 127:     TRISB = 0;
  1463     0D0C  1683               	bsf	3,5	;RP0=1, select bank1
  1464     0D0D  1303               	bcf	3,6	;RP1=0, select bank1
  1465     0D0E  0186               	clrf	6	;volatile
  1466                           
  1467                           ;main.c: 128:     TRISC = 0;
  1468     0D0F  0187               	clrf	7	;volatile
  1469                           
  1470                           ;main.c: 129:     TRISD = 0;
  1471     0D10  0188               	clrf	8	;volatile
  1472                           
  1473                           ;main.c: 130:     PORTC = 0;
  1474     0D11  1283               	bcf	3,5	;RP0=0, select bank0
  1475     0D12  1303               	bcf	3,6	;RP1=0, select bank0
  1476     0D13  0187               	clrf	7	;volatile
  1477                           
  1478                           ;main.c: 131:     PORTD = 0;
  1479     0D14  0188               	clrf	8	;volatile
  1480     0D15                     l124:
  1481     0D15  0008               	return
  1482     0D16                     __end_of_setup:
  1483                           
  1484                           	psect	text8
  1485     0740                     __ptext8:	
  1486 ;; *************** function _modomanual *****************
  1487 ;; Defined at:
  1488 ;;		line 247 in file "main.c"
  1489 ;; Parameters:    Size  Location     Type
  1490 ;;		None
  1491 ;; Auto vars:     Size  Location     Type
  1492 ;;		None
  1493 ;; Return value:  Size  Location     Type
  1494 ;;                  1    wreg      void 
  1495 ;; Registers used:
  1496 ;;		wreg, status,2, status,0, btemp+1, pclath, cstack
  1497 ;; Tracked objects:
  1498 ;;		On entry : 0/0
  1499 ;;		On exit  : 0/0
  1500 ;;		Unchanged: 0/0
  1501 ;; Data sizes:     COMMON   BANK0   BANK1   BANK3   BANK2
  1502 ;;      Params:         0       0       0       0       0
  1503 ;;      Locals:         0       0       0       0       0
  1504 ;;      Temps:          0       3       0       0       0
  1505 ;;      Totals:         0       3       0       0       0
  1506 ;;Total ram usage:        3 bytes
  1507 ;; Hardware stack levels used: 1
  1508 ;; Hardware stack levels required when called: 4
  1509 ;; This function calls:
  1510 ;;		_PWMtmr0
  1511 ;;		_PWMtmr1
  1512 ;;		_mapeo
  1513 ;; This function is called by:
  1514 ;;		_main
  1515 ;; This function uses a non-reentrant model
  1516 ;;
  1517                           
  1518     0740                     _modomanual:	
  1519                           ;psect for function _modomanual
  1520                           
  1521     0740                     l2172:	
  1522                           ;incstack = 0
  1523                           ; Regs used in _modomanual: [wreg+status,2+status,0+btemp+1+pclath+cstack]
  1524                           
  1525                           
  1526                           ;main.c: 249:     ADCON0bits.CHS = 0b0000;
  1527     0740  30C3               	movlw	-61
  1528     0741  1283               	bcf	3,5	;RP0=0, select bank0
  1529     0742  1303               	bcf	3,6	;RP1=0, select bank0
  1530     0743  059F               	andwf	31,f	;volatile
  1531     0744                     l2174:
  1532                           
  1533                           ;main.c: 250:     _delay((unsigned long)((100)*(1000000/4000000.0)));
  1534     0744  3007               	movlw	7
  1535     0745  1283               	bcf	3,5	;RP0=0, select bank0
  1536     0746  1303               	bcf	3,6	;RP1=0, select bank0
  1537     0747  00E7               	movwf	??_modomanual
  1538     0748                     u3187:
  1539     0748  0BE7               	decfsz	??_modomanual,f
  1540     0749  2F48               	goto	u3187
  1541     074A  0000               	nop
  1542     074B                     l2176:
  1543                           
  1544                           ;main.c: 251:     ADCON0bits.GO = 1;
  1545     074B  1283               	bcf	3,5	;RP0=0, select bank0
  1546     074C  1303               	bcf	3,6	;RP1=0, select bank0
  1547     074D  149F               	bsf	31,1	;volatile
  1548     074E                     l157:	
  1549                           ;main.c: 252:     while (ADCON0bits.GO == 1);
  1550                           
  1551     074E  189F               	btfsc	31,1	;volatile
  1552     074F  2F51               	goto	u3121
  1553     0750  2F52               	goto	u3120
  1554     0751                     u3121:
  1555     0751  2F4E               	goto	l157
  1556     0752                     u3120:
  1557     0752                     l159:
  1558                           
  1559                           ;main.c: 253:     ADIF = 0;
  1560     0752  130C               	bcf	12,6	;volatile
  1561     0753                     l2178:
  1562                           
  1563                           ;main.c: 255:     mapeo();
  1564     0753  120A  158A  2773  120A  118A  	fcall	_mapeo
  1565     0758                     l2180:
  1566                           
  1567                           ;main.c: 257:     CCP1CONbits.DC1B = vPWMl;
  1568     0758  1283               	bcf	3,5	;RP0=0, select bank0
  1569     0759  1303               	bcf	3,6	;RP1=0, select bank0
  1570     075A  086A               	movf	_vPWMl,w
  1571     075B  00E7               	movwf	??_modomanual
  1572     075C  0EE7               	swapf	??_modomanual,f
  1573     075D  0817               	movf	23,w	;volatile
  1574     075E  0667               	xorwf	??_modomanual,w
  1575     075F  39CF               	andlw	-49
  1576     0760  0667               	xorwf	??_modomanual,w
  1577     0761  0097               	movwf	23	;volatile
  1578     0762                     l2182:
  1579                           
  1580                           ;main.c: 259:     CCPR1L = vPWMh;
  1581     0762  1683               	bsf	3,5	;RP0=1, select bank1
  1582     0763  1303               	bcf	3,6	;RP1=0, select bank1
  1583     0764  0826               	movf	_vPWMh^(0+128),w
  1584     0765  1283               	bcf	3,5	;RP0=0, select bank0
  1585     0766  1303               	bcf	3,6	;RP1=0, select bank0
  1586     0767  0095               	movwf	21	;volatile
  1587     0768                     l2184:
  1588                           
  1589                           ;main.c: 262:     ADCON0bits.CHS = 0b0001;
  1590     0768  081F               	movf	31,w	;volatile
  1591     0769  39C3               	andlw	-61
  1592     076A  3804               	iorlw	4
  1593     076B  009F               	movwf	31	;volatile
  1594     076C                     l2186:
  1595                           
  1596                           ;main.c: 263:     _delay((unsigned long)((100)*(1000000/4000000.0)));
  1597     076C  3007               	movlw	7
  1598     076D  1283               	bcf	3,5	;RP0=0, select bank0
  1599     076E  1303               	bcf	3,6	;RP1=0, select bank0
  1600     076F  00E7               	movwf	??_modomanual
  1601     0770                     u3197:
  1602     0770  0BE7               	decfsz	??_modomanual,f
  1603     0771  2F70               	goto	u3197
  1604     0772  0000               	nop
  1605     0773                     l2188:
  1606                           
  1607                           ;main.c: 264:     ADCON0bits.GO = 1;
  1608     0773  1283               	bcf	3,5	;RP0=0, select bank0
  1609     0774  1303               	bcf	3,6	;RP1=0, select bank0
  1610     0775  149F               	bsf	31,1	;volatile
  1611     0776                     l160:	
  1612                           ;main.c: 265:     while (ADCON0bits.GO == 1);
  1613                           
  1614     0776  189F               	btfsc	31,1	;volatile
  1615     0777  2F79               	goto	u3131
  1616     0778  2F7A               	goto	u3130
  1617     0779                     u3131:
  1618     0779  2F76               	goto	l160
  1619     077A                     u3130:
  1620     077A                     l162:
  1621                           
  1622                           ;main.c: 266:     ADIF = 0;
  1623     077A  130C               	bcf	12,6	;volatile
  1624     077B                     l2190:
  1625                           
  1626                           ;main.c: 268:     mapeo();
  1627     077B  120A  158A  2773  120A  118A  	fcall	_mapeo
  1628     0780                     l2192:
  1629                           
  1630                           ;main.c: 270:     CCP2CONbits.DC2B0 = vPWMl & 0x01;
  1631     0780  1283               	bcf	3,5	;RP0=0, select bank0
  1632     0781  1303               	bcf	3,6	;RP1=0, select bank0
  1633     0782  086A               	movf	_vPWMl,w
  1634     0783  3901               	andlw	1
  1635     0784  00E7               	movwf	??_modomanual
  1636     0785  0EE7               	swapf	??_modomanual,f
  1637     0786  081D               	movf	29,w	;volatile
  1638     0787  0667               	xorwf	??_modomanual,w
  1639     0788  39EF               	andlw	-17
  1640     0789  0667               	xorwf	??_modomanual,w
  1641     078A  009D               	movwf	29	;volatile
  1642     078B                     l2194:
  1643                           
  1644                           ;main.c: 271:     CCP2CONbits.DC2B1 = ((vPWMl & 0x02) >> 1);
  1645     078B  086B               	movf	_vPWMl+1,w
  1646     078C  00E8               	movwf	??_modomanual+1
  1647     078D  086A               	movf	_vPWMl,w
  1648     078E  00E7               	movwf	??_modomanual
  1649     078F  1003               	clrc
  1650     0790  0CE8               	rrf	??_modomanual+1,f
  1651     0791  0CE7               	rrf	??_modomanual,f
  1652     0792  0867               	movf	??_modomanual,w
  1653     0793  3901               	andlw	1
  1654     0794  00E9               	movwf	??_modomanual+2
  1655     0795  0EE9               	swapf	??_modomanual+2,f
  1656     0796  0DE9               	rlf	??_modomanual+2,f
  1657     0797  081D               	movf	29,w	;volatile
  1658     0798  0669               	xorwf	??_modomanual+2,w
  1659     0799  39DF               	andlw	-33
  1660     079A  0669               	xorwf	??_modomanual+2,w
  1661     079B  009D               	movwf	29	;volatile
  1662     079C                     l2196:
  1663                           
  1664                           ;main.c: 273:     CCPR2L = vPWMh;
  1665     079C  1683               	bsf	3,5	;RP0=1, select bank1
  1666     079D  1303               	bcf	3,6	;RP1=0, select bank1
  1667     079E  0826               	movf	_vPWMh^(0+128),w
  1668     079F  1283               	bcf	3,5	;RP0=0, select bank0
  1669     07A0  1303               	bcf	3,6	;RP1=0, select bank0
  1670     07A1  009B               	movwf	27	;volatile
  1671     07A2                     l2198:
  1672                           
  1673                           ;main.c: 276:     ADCON0bits.CHS = 0b0010;
  1674     07A2  081F               	movf	31,w	;volatile
  1675     07A3  39C3               	andlw	-61
  1676     07A4  3808               	iorlw	8
  1677     07A5  009F               	movwf	31	;volatile
  1678     07A6                     l2200:
  1679                           
  1680                           ;main.c: 277:     _delay((unsigned long)((100)*(1000000/4000000.0)));
  1681     07A6  3007               	movlw	7
  1682     07A7  1283               	bcf	3,5	;RP0=0, select bank0
  1683     07A8  1303               	bcf	3,6	;RP1=0, select bank0
  1684     07A9  00E7               	movwf	??_modomanual
  1685     07AA                     u3207:
  1686     07AA  0BE7               	decfsz	??_modomanual,f
  1687     07AB  2FAA               	goto	u3207
  1688     07AC  0000               	nop
  1689     07AD                     l2202:
  1690                           
  1691                           ;main.c: 278:     ADCON0bits.GO = 1;
  1692     07AD  1283               	bcf	3,5	;RP0=0, select bank0
  1693     07AE  1303               	bcf	3,6	;RP1=0, select bank0
  1694     07AF  149F               	bsf	31,1	;volatile
  1695     07B0                     l163:	
  1696                           ;main.c: 279:     while (ADCON0bits.GO == 1);
  1697                           
  1698     07B0  189F               	btfsc	31,1	;volatile
  1699     07B1  2FB3               	goto	u3141
  1700     07B2  2FB4               	goto	u3140
  1701     07B3                     u3141:
  1702     07B3  2FB0               	goto	l163
  1703     07B4                     u3140:
  1704     07B4                     l165:
  1705                           
  1706                           ;main.c: 280:     ADIF = 0;
  1707     07B4  130C               	bcf	12,6	;volatile
  1708     07B5                     l2204:
  1709                           
  1710                           ;main.c: 281:     PWMtmr0();
  1711     07B5  120A  158A  2684  120A  118A  	fcall	_PWMtmr0
  1712     07BA                     l2206:
  1713                           
  1714                           ;main.c: 282:     _delay((unsigned long)((100)*(1000000/4000000.0)));
  1715     07BA  3007               	movlw	7
  1716     07BB  1283               	bcf	3,5	;RP0=0, select bank0
  1717     07BC  1303               	bcf	3,6	;RP1=0, select bank0
  1718     07BD  00E7               	movwf	??_modomanual
  1719     07BE                     u3217:
  1720     07BE  0BE7               	decfsz	??_modomanual,f
  1721     07BF  2FBE               	goto	u3217
  1722     07C0  0000               	nop
  1723     07C1                     l2208:
  1724                           
  1725                           ;main.c: 285:     ADCON0bits.CHS = 0b0011;
  1726     07C1  1283               	bcf	3,5	;RP0=0, select bank0
  1727     07C2  1303               	bcf	3,6	;RP1=0, select bank0
  1728     07C3  081F               	movf	31,w	;volatile
  1729     07C4  39C3               	andlw	-61
  1730     07C5  380C               	iorlw	12
  1731     07C6  009F               	movwf	31	;volatile
  1732     07C7                     l2210:
  1733                           
  1734                           ;main.c: 286:     _delay((unsigned long)((100)*(1000000/4000000.0)));
  1735     07C7  3007               	movlw	7
  1736     07C8  1283               	bcf	3,5	;RP0=0, select bank0
  1737     07C9  1303               	bcf	3,6	;RP1=0, select bank0
  1738     07CA  00E7               	movwf	??_modomanual
  1739     07CB                     u3227:
  1740     07CB  0BE7               	decfsz	??_modomanual,f
  1741     07CC  2FCB               	goto	u3227
  1742     07CD  0000               	nop
  1743     07CE                     l2212:
  1744                           
  1745                           ;main.c: 287:     ADCON0bits.GO = 1;
  1746     07CE  1283               	bcf	3,5	;RP0=0, select bank0
  1747     07CF  1303               	bcf	3,6	;RP1=0, select bank0
  1748     07D0  149F               	bsf	31,1	;volatile
  1749     07D1                     l166:	
  1750                           ;main.c: 288:     while (ADCON0bits.GO == 1);
  1751                           
  1752     07D1  189F               	btfsc	31,1	;volatile
  1753     07D2  2FD4               	goto	u3151
  1754     07D3  2FD5               	goto	u3150
  1755     07D4                     u3151:
  1756     07D4  2FD1               	goto	l166
  1757     07D5                     u3150:
  1758     07D5                     l168:
  1759                           
  1760                           ;main.c: 289:     ADIF = 0;
  1761     07D5  130C               	bcf	12,6	;volatile
  1762     07D6                     l2214:
  1763                           
  1764                           ;main.c: 290:     PWMtmr1();
  1765     07D6  120A  118A  25C4  120A  118A  	fcall	_PWMtmr1
  1766     07DB                     l2216:
  1767                           
  1768                           ;main.c: 291:     _delay((unsigned long)((100)*(1000000/4000000.0)));
  1769     07DB  3007               	movlw	7
  1770     07DC  1283               	bcf	3,5	;RP0=0, select bank0
  1771     07DD  1303               	bcf	3,6	;RP1=0, select bank0
  1772     07DE  00E7               	movwf	??_modomanual
  1773     07DF                     u3237:
  1774     07DF  0BE7               	decfsz	??_modomanual,f
  1775     07E0  2FDF               	goto	u3237
  1776     07E1  0000               	nop
  1777     07E2                     l169:
  1778     07E2  0008               	return
  1779     07E3                     __end_of_modomanual:
  1780                           
  1781                           	psect	text9
  1782     0F73                     __ptext9:	
  1783 ;; *************** function _mapeo *****************
  1784 ;; Defined at:
  1785 ;;		line 233 in file "main.c"
  1786 ;; Parameters:    Size  Location     Type
  1787 ;;		None
  1788 ;; Auto vars:     Size  Location     Type
  1789 ;;		None
  1790 ;; Return value:  Size  Location     Type
  1791 ;;                  1    wreg      void 
  1792 ;; Registers used:
  1793 ;;		wreg, status,2, status,0, btemp+1, pclath, cstack
  1794 ;; Tracked objects:
  1795 ;;		On entry : 0/0
  1796 ;;		On exit  : 0/0
  1797 ;;		Unchanged: 0/0
  1798 ;; Data sizes:     COMMON   BANK0   BANK1   BANK3   BANK2
  1799 ;;      Params:         0       0       0       0       0
  1800 ;;      Locals:         0       0       0       0       0
  1801 ;;      Temps:          0       5       0       0       0
  1802 ;;      Totals:         0       5       0       0       0
  1803 ;;Total ram usage:        5 bytes
  1804 ;; Hardware stack levels used: 1
  1805 ;; Hardware stack levels required when called: 3
  1806 ;; This function calls:
  1807 ;;		___fladd
  1808 ;;		___flmul
  1809 ;;		___fltol
  1810 ;;		___xxtofl
  1811 ;; This function is called by:
  1812 ;;		_modomanual
  1813 ;; This function uses a non-reentrant model
  1814 ;;
  1815                           
  1816     0F73                     _mapeo:	
  1817                           ;psect for function _mapeo
  1818                           
  1819     0F73                     l2164:	
  1820                           ;incstack = 0
  1821                           ; Regs used in _mapeo: [wreg+status,2+status,0+btemp+1+pclath+cstack]
  1822                           
  1823                           
  1824                           ;main.c: 235:     valADC = ((ADRESH << 2) + (ADRESL >> 6));
  1825     0F73  1683               	bsf	3,5	;RP0=1, select bank1
  1826     0F74  1303               	bcf	3,6	;RP1=0, select bank1
  1827     0F75  081E               	movf	30,w	;volatile
  1828     0F76  1283               	bcf	3,5	;RP0=0, select bank0
  1829     0F77  1303               	bcf	3,6	;RP1=0, select bank0
  1830     0F78  00DE               	movwf	??_mapeo
  1831     0F79  3006               	movlw	6
  1832     0F7A                     u3115:
  1833     0F7A  1003               	clrc
  1834     0F7B  0CDE               	rrf	??_mapeo,f
  1835     0F7C  3EFF               	addlw	-1
  1836     0F7D  1D03               	skipz
  1837     0F7E  2F7A               	goto	u3115
  1838     0F7F  081E               	movf	30,w	;volatile
  1839     0F80  00DF               	movwf	??_mapeo+1
  1840     0F81  01E0               	clrf	??_mapeo+2
  1841     0F82  1003               	clrc
  1842     0F83  0DDF               	rlf	??_mapeo+1,f
  1843     0F84  0DE0               	rlf	??_mapeo+2,f
  1844     0F85  1003               	clrc
  1845     0F86  0DDF               	rlf	??_mapeo+1,f
  1846     0F87  0DE0               	rlf	??_mapeo+2,f
  1847     0F88  085E               	movf	??_mapeo,w
  1848     0F89  075F               	addwf	??_mapeo+1,w
  1849     0F8A  00E1               	movwf	??_mapeo+3
  1850     0F8B  3000               	movlw	0
  1851     0F8C  1803               	skipnc
  1852     0F8D  3001               	movlw	1
  1853     0F8E  0760               	addwf	??_mapeo+2,w
  1854     0F8F  00E2               	movwf	??_mapeo+4
  1855     0F90  0861               	movf	??_mapeo+3,w
  1856     0F91  00EE               	movwf	_valADC
  1857     0F92  0862               	movf	??_mapeo+4,w
  1858     0F93  00EF               	movwf	_valADC+1
  1859     0F94                     l2166:
  1860                           
  1861                           ;main.c: 237:     vPWM = (0.061*valADC + 63);
  1862     0F94  086E               	movf	_valADC,w
  1863     0F95  00F2               	movwf	___xxtofl@val
  1864     0F96  086F               	movf	_valADC+1,w
  1865     0F97  00F3               	movwf	___xxtofl@val+1
  1866     0F98  01F4               	clrf	___xxtofl@val+2
  1867     0F99  01F5               	clrf	___xxtofl@val+3
  1868     0F9A  3000               	movlw	0
  1869     0F9B  120A  118A  2686  120A  158A  	fcall	___xxtofl
  1870     0FA0  0875               	movf	?___xxtofl+3,w
  1871     0FA1  1283               	bcf	3,5	;RP0=0, select bank0
  1872     0FA2  1303               	bcf	3,6	;RP1=0, select bank0
  1873     0FA3  00AD               	movwf	___flmul@a+3
  1874     0FA4  0874               	movf	?___xxtofl+2,w
  1875     0FA5  00AC               	movwf	___flmul@a+2
  1876     0FA6  0873               	movf	?___xxtofl+1,w
  1877     0FA7  00AB               	movwf	___flmul@a+1
  1878     0FA8  0872               	movf	?___xxtofl,w
  1879     0FA9  00AA               	movwf	___flmul@a
  1880     0FAA  303D               	movlw	61
  1881     0FAB  00A9               	movwf	___flmul@b+3
  1882     0FAC  3079               	movlw	121
  1883     0FAD  00A8               	movwf	___flmul@b+2
  1884     0FAE  30DB               	movlw	219
  1885     0FAF  00A7               	movwf	___flmul@b+1
  1886     0FB0  3023               	movlw	35
  1887     0FB1  00A6               	movwf	___flmul@b
  1888     0FB2  120A  118A  2027  120A  158A  	fcall	___flmul
  1889     0FB7  1283               	bcf	3,5	;RP0=0, select bank0
  1890     0FB8  1303               	bcf	3,6	;RP1=0, select bank0
  1891     0FB9  0829               	movf	?___flmul+3,w
  1892     0FBA  00C7               	movwf	___fladd@a+3
  1893     0FBB  0828               	movf	?___flmul+2,w
  1894     0FBC  00C6               	movwf	___fladd@a+2
  1895     0FBD  0827               	movf	?___flmul+1,w
  1896     0FBE  00C5               	movwf	___fladd@a+1
  1897     0FBF  0826               	movf	?___flmul,w
  1898     0FC0  00C4               	movwf	___fladd@a
  1899     0FC1  3042               	movlw	66
  1900     0FC2  00C3               	movwf	___fladd@b+3
  1901     0FC3  307C               	movlw	124
  1902     0FC4  00C2               	movwf	___fladd@b+2
  1903     0FC5  3000               	movlw	0
  1904     0FC6  00C1               	movwf	___fladd@b+1
  1905     0FC7  3000               	movlw	0
  1906     0FC8  00C0               	movwf	___fladd@b
  1907     0FC9  120A  118A  236C  120A  158A  	fcall	___fladd
  1908     0FCE  1283               	bcf	3,5	;RP0=0, select bank0
  1909     0FCF  1303               	bcf	3,6	;RP1=0, select bank0
  1910     0FD0  0843               	movf	?___fladd+3,w
  1911     0FD1  00D7               	movwf	___fltol@f1+3
  1912     0FD2  0842               	movf	?___fladd+2,w
  1913     0FD3  00D6               	movwf	___fltol@f1+2
  1914     0FD4  0841               	movf	?___fladd+1,w
  1915     0FD5  00D5               	movwf	___fltol@f1+1
  1916     0FD6  0840               	movf	?___fladd,w
  1917     0FD7  00D4               	movwf	___fltol@f1
  1918     0FD8  120A  158A  26FB  120A  158A  	fcall	___fltol
  1919     0FDD  1283               	bcf	3,5	;RP0=0, select bank0
  1920     0FDE  1303               	bcf	3,6	;RP1=0, select bank0
  1921     0FDF  0855               	movf	?___fltol+1,w
  1922     0FE0  00ED               	movwf	_vPWM+1
  1923     0FE1  0854               	movf	?___fltol,w
  1924     0FE2  00EC               	movwf	_vPWM
  1925     0FE3                     l2168:
  1926                           
  1927                           ;main.c: 239:     vPWMl = vPWM & 0x003;
  1928     0FE3  3003               	movlw	3
  1929     0FE4  056C               	andwf	_vPWM,w
  1930     0FE5  00EA               	movwf	_vPWMl
  1931     0FE6  3000               	movlw	0
  1932     0FE7  056D               	andwf	_vPWM+1,w
  1933     0FE8  00EB               	movwf	_vPWMl+1
  1934     0FE9                     l2170:
  1935                           
  1936                           ;main.c: 241:     vPWMh = (vPWM & 0x3FC) >> 2;
  1937     0FE9  086D               	movf	_vPWM+1,w
  1938     0FEA  00DF               	movwf	??_mapeo+1
  1939     0FEB  086C               	movf	_vPWM,w
  1940     0FEC  00DE               	movwf	??_mapeo
  1941     0FED  1003               	clrc
  1942     0FEE  0CDF               	rrf	??_mapeo+1,f
  1943     0FEF  0CDE               	rrf	??_mapeo,f
  1944     0FF0  1003               	clrc
  1945     0FF1  0CDF               	rrf	??_mapeo+1,f
  1946     0FF2  0CDE               	rrf	??_mapeo,f
  1947     0FF3  30FF               	movlw	255
  1948     0FF4  055E               	andwf	??_mapeo,w
  1949     0FF5  1683               	bsf	3,5	;RP0=1, select bank1
  1950     0FF6  1303               	bcf	3,6	;RP1=0, select bank1
  1951     0FF7  00A6               	movwf	_vPWMh^(0+128)
  1952     0FF8  3000               	movlw	0
  1953     0FF9  1283               	bcf	3,5	;RP0=0, select bank0
  1954     0FFA  1303               	bcf	3,6	;RP1=0, select bank0
  1955     0FFB  055F               	andwf	??_mapeo+1,w
  1956     0FFC  1683               	bsf	3,5	;RP0=1, select bank1
  1957     0FFD  1303               	bcf	3,6	;RP1=0, select bank1
  1958     0FFE  00A7               	movwf	(_vPWMh+1)^(0+128)
  1959     0FFF                     l154:
  1960     0FFF  0008               	return
  1961     1000                     __end_of_mapeo:
  1962                           
  1963                           	psect	text10
  1964     05C4                     __ptext10:	
  1965 ;; *************** function _PWMtmr1 *****************
  1966 ;; Defined at:
  1967 ;;		line 224 in file "main.c"
  1968 ;; Parameters:    Size  Location     Type
  1969 ;;		None
  1970 ;; Auto vars:     Size  Location     Type
  1971 ;;		None
  1972 ;; Return value:  Size  Location     Type
  1973 ;;                  1    wreg      void 
  1974 ;; Registers used:
  1975 ;;		wreg, status,2, status,0, btemp+1, pclath, cstack
  1976 ;; Tracked objects:
  1977 ;;		On entry : 0/0
  1978 ;;		On exit  : 0/0
  1979 ;;		Unchanged: 0/0
  1980 ;; Data sizes:     COMMON   BANK0   BANK1   BANK3   BANK2
  1981 ;;      Params:         0       0       0       0       0
  1982 ;;      Locals:         0       0       0       0       0
  1983 ;;      Temps:          0       9       0       0       0
  1984 ;;      Totals:         0       9       0       0       0
  1985 ;;Total ram usage:        9 bytes
  1986 ;; Hardware stack levels used: 1
  1987 ;; Hardware stack levels required when called: 3
  1988 ;; This function calls:
  1989 ;;		___fladd
  1990 ;;		___flmul
  1991 ;;		___fltol
  1992 ;;		___xxtofl
  1993 ;; This function is called by:
  1994 ;;		_modomanual
  1995 ;; This function uses a non-reentrant model
  1996 ;;
  1997                           
  1998     05C4                     _PWMtmr1:	
  1999                           ;psect for function _PWMtmr1
  2000                           
  2001     05C4                     l2156:	
  2002                           ;incstack = 0
  2003                           ; Regs used in _PWMtmr1: [wreg+status,2+status,0+btemp+1+pclath+cstack]
  2004                           
  2005                           
  2006                           ;main.c: 225:     valADC = ((ADRESH << 2) + (ADRESL >> 6));
  2007     05C4  1683               	bsf	3,5	;RP0=1, select bank1
  2008     05C5  1303               	bcf	3,6	;RP1=0, select bank1
  2009     05C6  081E               	movf	30,w	;volatile
  2010     05C7  1283               	bcf	3,5	;RP0=0, select bank0
  2011     05C8  1303               	bcf	3,6	;RP1=0, select bank0
  2012     05C9  00DE               	movwf	??_PWMtmr1
  2013     05CA  3006               	movlw	6
  2014     05CB                     u3085:
  2015     05CB  1003               	clrc
  2016     05CC  0CDE               	rrf	??_PWMtmr1,f
  2017     05CD  3EFF               	addlw	-1
  2018     05CE  1D03               	skipz
  2019     05CF  2DCB               	goto	u3085
  2020     05D0  081E               	movf	30,w	;volatile
  2021     05D1  00DF               	movwf	??_PWMtmr1+1
  2022     05D2  01E0               	clrf	??_PWMtmr1+2
  2023     05D3  1003               	clrc
  2024     05D4  0DDF               	rlf	??_PWMtmr1+1,f
  2025     05D5  0DE0               	rlf	??_PWMtmr1+2,f
  2026     05D6  1003               	clrc
  2027     05D7  0DDF               	rlf	??_PWMtmr1+1,f
  2028     05D8  0DE0               	rlf	??_PWMtmr1+2,f
  2029     05D9  085E               	movf	??_PWMtmr1,w
  2030     05DA  075F               	addwf	??_PWMtmr1+1,w
  2031     05DB  00E1               	movwf	??_PWMtmr1+3
  2032     05DC  3000               	movlw	0
  2033     05DD  1803               	skipnc
  2034     05DE  3001               	movlw	1
  2035     05DF  0760               	addwf	??_PWMtmr1+2,w
  2036     05E0  00E2               	movwf	??_PWMtmr1+4
  2037     05E1  0861               	movf	??_PWMtmr1+3,w
  2038     05E2  00EE               	movwf	_valADC
  2039     05E3  0862               	movf	??_PWMtmr1+4,w
  2040     05E4  00EF               	movwf	_valADC+1
  2041     05E5                     l2158:
  2042                           
  2043                           ;main.c: 226:     HIGHpulse1 = (0.37*valADC + 65036);
  2044     05E5  086E               	movf	_valADC,w
  2045     05E6  00F2               	movwf	___xxtofl@val
  2046     05E7  086F               	movf	_valADC+1,w
  2047     05E8  00F3               	movwf	___xxtofl@val+1
  2048     05E9  01F4               	clrf	___xxtofl@val+2
  2049     05EA  01F5               	clrf	___xxtofl@val+3
  2050     05EB  3000               	movlw	0
  2051     05EC  120A  118A  2686  120A  118A  	fcall	___xxtofl
  2052     05F1  0875               	movf	?___xxtofl+3,w
  2053     05F2  1283               	bcf	3,5	;RP0=0, select bank0
  2054     05F3  1303               	bcf	3,6	;RP1=0, select bank0
  2055     05F4  00AD               	movwf	___flmul@a+3
  2056     05F5  0874               	movf	?___xxtofl+2,w
  2057     05F6  00AC               	movwf	___flmul@a+2
  2058     05F7  0873               	movf	?___xxtofl+1,w
  2059     05F8  00AB               	movwf	___flmul@a+1
  2060     05F9  0872               	movf	?___xxtofl,w
  2061     05FA  00AA               	movwf	___flmul@a
  2062     05FB  303E               	movlw	62
  2063     05FC  00A9               	movwf	___flmul@b+3
  2064     05FD  30BD               	movlw	189
  2065     05FE  00A8               	movwf	___flmul@b+2
  2066     05FF  3070               	movlw	112
  2067     0600  00A7               	movwf	___flmul@b+1
  2068     0601  30A4               	movlw	164
  2069     0602  00A6               	movwf	___flmul@b
  2070     0603  120A  118A  2027  120A  118A  	fcall	___flmul
  2071     0608  1283               	bcf	3,5	;RP0=0, select bank0
  2072     0609  1303               	bcf	3,6	;RP1=0, select bank0
  2073     060A  0829               	movf	?___flmul+3,w
  2074     060B  00C7               	movwf	___fladd@a+3
  2075     060C  0828               	movf	?___flmul+2,w
  2076     060D  00C6               	movwf	___fladd@a+2
  2077     060E  0827               	movf	?___flmul+1,w
  2078     060F  00C5               	movwf	___fladd@a+1
  2079     0610  0826               	movf	?___flmul,w
  2080     0611  00C4               	movwf	___fladd@a
  2081     0612  3047               	movlw	71
  2082     0613  00C3               	movwf	___fladd@b+3
  2083     0614  307E               	movlw	126
  2084     0615  00C2               	movwf	___fladd@b+2
  2085     0616  300C               	movlw	12
  2086     0617  00C1               	movwf	___fladd@b+1
  2087     0618  3000               	movlw	0
  2088     0619  00C0               	movwf	___fladd@b
  2089     061A  120A  118A  236C  120A  118A  	fcall	___fladd
  2090     061F  1283               	bcf	3,5	;RP0=0, select bank0
  2091     0620  1303               	bcf	3,6	;RP1=0, select bank0
  2092     0621  0843               	movf	?___fladd+3,w
  2093     0622  00D7               	movwf	___fltol@f1+3
  2094     0623  0842               	movf	?___fladd+2,w
  2095     0624  00D6               	movwf	___fltol@f1+2
  2096     0625  0841               	movf	?___fladd+1,w
  2097     0626  00D5               	movwf	___fltol@f1+1
  2098     0627  0840               	movf	?___fladd,w
  2099     0628  00D4               	movwf	___fltol@f1
  2100     0629  120A  158A  26FB  120A  118A  	fcall	___fltol
  2101     062E  1283               	bcf	3,5	;RP0=0, select bank0
  2102     062F  1303               	bcf	3,6	;RP1=0, select bank0
  2103     0630  0855               	movf	?___fltol+1,w
  2104     0631  00FB               	movwf	_HIGHpulse1+1
  2105     0632  0854               	movf	?___fltol,w
  2106     0633  00FA               	movwf	_HIGHpulse1
  2107     0634                     l2160:
  2108                           
  2109                           ;main.c: 227:     tmr1high = ((61314+(65535-HIGHpulse1)) & 0xFF00) >> 8;
  2110     0634  087A               	movf	_HIGHpulse1,w
  2111     0635  00DE               	movwf	??_PWMtmr1
  2112     0636  087B               	movf	_HIGHpulse1+1,w
  2113     0637  00DF               	movwf	??_PWMtmr1+1
  2114     0638  01E0               	clrf	??_PWMtmr1+2
  2115     0639  01E1               	clrf	??_PWMtmr1+3
  2116     063A  3081               	movlw	129
  2117     063B  00E2               	movwf	??_PWMtmr1+4
  2118     063C  30EF               	movlw	239
  2119     063D  00E3               	movwf	??_PWMtmr1+5
  2120     063E  3001               	movlw	1
  2121     063F  00E4               	movwf	??_PWMtmr1+6
  2122     0640  3000               	movlw	0
  2123     0641  00E5               	movwf	??_PWMtmr1+7
  2124     0642  085E               	movf	??_PWMtmr1,w
  2125     0643  02E2               	subwf	??_PWMtmr1+4,f
  2126     0644  085F               	movf	??_PWMtmr1+1,w
  2127     0645  1C03               	skipc
  2128     0646  0F5F               	incfsz	??_PWMtmr1+1,w
  2129     0647  2E49               	goto	u3091
  2130     0648  2E4A               	goto	u3092
  2131     0649                     u3091:
  2132     0649  02E3               	subwf	??_PWMtmr1+5,f
  2133     064A                     u3092:
  2134     064A  0860               	movf	??_PWMtmr1+2,w
  2135     064B  1C03               	skipc
  2136     064C  0F60               	incfsz	??_PWMtmr1+2,w
  2137     064D  2E4F               	goto	u3093
  2138     064E  2E50               	goto	u3094
  2139     064F                     u3093:
  2140     064F  02E4               	subwf	??_PWMtmr1+6,f
  2141     0650                     u3094:
  2142     0650  0861               	movf	??_PWMtmr1+3,w
  2143     0651  1C03               	skipc
  2144     0652  0F61               	incfsz	??_PWMtmr1+3,w
  2145     0653  2E55               	goto	u3095
  2146     0654  2E56               	goto	u3096
  2147     0655                     u3095:
  2148     0655  02E5               	subwf	??_PWMtmr1+7,f
  2149     0656                     u3096:
  2150     0656  3008               	movlw	8
  2151     0657  00E6               	movwf	??_PWMtmr1+8
  2152     0658                     u3105:
  2153     0658  0D65               	rlf	??_PWMtmr1+7,w
  2154     0659  0CE5               	rrf	??_PWMtmr1+7,f
  2155     065A  0CE4               	rrf	??_PWMtmr1+6,f
  2156     065B  0CE3               	rrf	??_PWMtmr1+5,f
  2157     065C  0CE2               	rrf	??_PWMtmr1+4,f
  2158     065D                     u3100:
  2159     065D  0BE6               	decfsz	??_PWMtmr1+8,f
  2160     065E  2E58               	goto	u3105
  2161     065F  30FF               	movlw	255
  2162     0660  0562               	andwf	??_PWMtmr1+4,w
  2163     0661  1683               	bsf	3,5	;RP0=1, select bank1
  2164     0662  1303               	bcf	3,6	;RP1=0, select bank1
  2165     0663  00A2               	movwf	_tmr1high^(0+128)
  2166     0664  3000               	movlw	0
  2167     0665  1283               	bcf	3,5	;RP0=0, select bank0
  2168     0666  1303               	bcf	3,6	;RP1=0, select bank0
  2169     0667  0563               	andwf	??_PWMtmr1+5,w
  2170     0668  1683               	bsf	3,5	;RP0=1, select bank1
  2171     0669  1303               	bcf	3,6	;RP1=0, select bank1
  2172     066A  00A3               	movwf	(_tmr1high+1)^(0+128)
  2173     066B                     l2162:
  2174                           
  2175                           ;main.c: 228:     tmr1low = (61314+(65535-HIGHpulse1)) & 0x00FF;
  2176     066B  3081               	movlw	129
  2177     066C  1283               	bcf	3,5	;RP0=0, select bank0
  2178     066D  1303               	bcf	3,6	;RP1=0, select bank0
  2179     066E  00DE               	movwf	??_PWMtmr1
  2180     066F  30EF               	movlw	239
  2181     0670  00DF               	movwf	??_PWMtmr1+1
  2182     0671  087A               	movf	_HIGHpulse1,w
  2183     0672  025E               	subwf	??_PWMtmr1,w
  2184     0673  00E0               	movwf	??_PWMtmr1+2
  2185     0674  087B               	movf	_HIGHpulse1+1,w
  2186     0675  1C03               	skipc
  2187     0676  0A7B               	incf	_HIGHpulse1+1,w
  2188     0677  025F               	subwf	??_PWMtmr1+1,w
  2189     0678  00E1               	movwf	??_PWMtmr1+3
  2190     0679  30FF               	movlw	255
  2191     067A  0560               	andwf	??_PWMtmr1+2,w
  2192     067B  1683               	bsf	3,5	;RP0=1, select bank1
  2193     067C  1303               	bcf	3,6	;RP1=0, select bank1
  2194     067D  00A0               	movwf	_tmr1low^(0+128)
  2195     067E  3000               	movlw	0
  2196     067F  1283               	bcf	3,5	;RP0=0, select bank0
  2197     0680  1303               	bcf	3,6	;RP1=0, select bank0
  2198     0681  0561               	andwf	??_PWMtmr1+3,w
  2199     0682  1683               	bsf	3,5	;RP0=1, select bank1
  2200     0683  1303               	bcf	3,6	;RP1=0, select bank1
  2201     0684  00A1               	movwf	(_tmr1low+1)^(0+128)
  2202     0685                     l151:
  2203     0685  0008               	return
  2204     0686                     __end_of_PWMtmr1:
  2205                           
  2206                           	psect	text11
  2207     0E84                     __ptext11:	
  2208 ;; *************** function _PWMtmr0 *****************
  2209 ;; Defined at:
  2210 ;;		line 217 in file "main.c"
  2211 ;; Parameters:    Size  Location     Type
  2212 ;;		None
  2213 ;; Auto vars:     Size  Location     Type
  2214 ;;		None
  2215 ;; Return value:  Size  Location     Type
  2216 ;;                  1    wreg      void 
  2217 ;; Registers used:
  2218 ;;		wreg, status,2, status,0, btemp+1, pclath, cstack
  2219 ;; Tracked objects:
  2220 ;;		On entry : 0/0
  2221 ;;		On exit  : 0/0
  2222 ;;		Unchanged: 0/0
  2223 ;; Data sizes:     COMMON   BANK0   BANK1   BANK3   BANK2
  2224 ;;      Params:         0       0       0       0       0
  2225 ;;      Locals:         0       0       0       0       0
  2226 ;;      Temps:          0       5       0       0       0
  2227 ;;      Totals:         0       5       0       0       0
  2228 ;;Total ram usage:        5 bytes
  2229 ;; Hardware stack levels used: 1
  2230 ;; Hardware stack levels required when called: 3
  2231 ;; This function calls:
  2232 ;;		___fladd
  2233 ;;		___flmul
  2234 ;;		___fltol
  2235 ;;		___xxtofl
  2236 ;; This function is called by:
  2237 ;;		_modomanual
  2238 ;; This function uses a non-reentrant model
  2239 ;;
  2240                           
  2241     0E84                     _PWMtmr0:	
  2242                           ;psect for function _PWMtmr0
  2243                           
  2244     0E84                     l2152:	
  2245                           ;incstack = 0
  2246                           ; Regs used in _PWMtmr0: [wreg+status,2+status,0+btemp+1+pclath+cstack]
  2247                           
  2248                           
  2249                           ;main.c: 218:     valADC = ((ADRESH << 2) + (ADRESL >> 6));
  2250     0E84  1683               	bsf	3,5	;RP0=1, select bank1
  2251     0E85  1303               	bcf	3,6	;RP1=0, select bank1
  2252     0E86  081E               	movf	30,w	;volatile
  2253     0E87  1283               	bcf	3,5	;RP0=0, select bank0
  2254     0E88  1303               	bcf	3,6	;RP1=0, select bank0
  2255     0E89  00DE               	movwf	??_PWMtmr0
  2256     0E8A  3006               	movlw	6
  2257     0E8B                     u3075:
  2258     0E8B  1003               	clrc
  2259     0E8C  0CDE               	rrf	??_PWMtmr0,f
  2260     0E8D  3EFF               	addlw	-1
  2261     0E8E  1D03               	skipz
  2262     0E8F  2E8B               	goto	u3075
  2263     0E90  081E               	movf	30,w	;volatile
  2264     0E91  00DF               	movwf	??_PWMtmr0+1
  2265     0E92  01E0               	clrf	??_PWMtmr0+2
  2266     0E93  1003               	clrc
  2267     0E94  0DDF               	rlf	??_PWMtmr0+1,f
  2268     0E95  0DE0               	rlf	??_PWMtmr0+2,f
  2269     0E96  1003               	clrc
  2270     0E97  0DDF               	rlf	??_PWMtmr0+1,f
  2271     0E98  0DE0               	rlf	??_PWMtmr0+2,f
  2272     0E99  085E               	movf	??_PWMtmr0,w
  2273     0E9A  075F               	addwf	??_PWMtmr0+1,w
  2274     0E9B  00E1               	movwf	??_PWMtmr0+3
  2275     0E9C  3000               	movlw	0
  2276     0E9D  1803               	skipnc
  2277     0E9E  3001               	movlw	1
  2278     0E9F  0760               	addwf	??_PWMtmr0+2,w
  2279     0EA0  00E2               	movwf	??_PWMtmr0+4
  2280     0EA1  0861               	movf	??_PWMtmr0+3,w
  2281     0EA2  00EE               	movwf	_valADC
  2282     0EA3  0862               	movf	??_PWMtmr0+4,w
  2283     0EA4  00EF               	movwf	_valADC+1
  2284     0EA5                     l2154:
  2285                           
  2286                           ;main.c: 219:     HIGHpulse = (0.017*valADC + 226);
  2287     0EA5  086E               	movf	_valADC,w
  2288     0EA6  00F2               	movwf	___xxtofl@val
  2289     0EA7  086F               	movf	_valADC+1,w
  2290     0EA8  00F3               	movwf	___xxtofl@val+1
  2291     0EA9  01F4               	clrf	___xxtofl@val+2
  2292     0EAA  01F5               	clrf	___xxtofl@val+3
  2293     0EAB  3000               	movlw	0
  2294     0EAC  120A  118A  2686  120A  158A  	fcall	___xxtofl
  2295     0EB1  0875               	movf	?___xxtofl+3,w
  2296     0EB2  1283               	bcf	3,5	;RP0=0, select bank0
  2297     0EB3  1303               	bcf	3,6	;RP1=0, select bank0
  2298     0EB4  00AD               	movwf	___flmul@a+3
  2299     0EB5  0874               	movf	?___xxtofl+2,w
  2300     0EB6  00AC               	movwf	___flmul@a+2
  2301     0EB7  0873               	movf	?___xxtofl+1,w
  2302     0EB8  00AB               	movwf	___flmul@a+1
  2303     0EB9  0872               	movf	?___xxtofl,w
  2304     0EBA  00AA               	movwf	___flmul@a
  2305     0EBB  303C               	movlw	60
  2306     0EBC  00A9               	movwf	___flmul@b+3
  2307     0EBD  308B               	movlw	139
  2308     0EBE  00A8               	movwf	___flmul@b+2
  2309     0EBF  3043               	movlw	67
  2310     0EC0  00A7               	movwf	___flmul@b+1
  2311     0EC1  3096               	movlw	150
  2312     0EC2  00A6               	movwf	___flmul@b
  2313     0EC3  120A  118A  2027  120A  158A  	fcall	___flmul
  2314     0EC8  1283               	bcf	3,5	;RP0=0, select bank0
  2315     0EC9  1303               	bcf	3,6	;RP1=0, select bank0
  2316     0ECA  0829               	movf	?___flmul+3,w
  2317     0ECB  00C7               	movwf	___fladd@a+3
  2318     0ECC  0828               	movf	?___flmul+2,w
  2319     0ECD  00C6               	movwf	___fladd@a+2
  2320     0ECE  0827               	movf	?___flmul+1,w
  2321     0ECF  00C5               	movwf	___fladd@a+1
  2322     0ED0  0826               	movf	?___flmul,w
  2323     0ED1  00C4               	movwf	___fladd@a
  2324     0ED2  3043               	movlw	67
  2325     0ED3  00C3               	movwf	___fladd@b+3
  2326     0ED4  3062               	movlw	98
  2327     0ED5  00C2               	movwf	___fladd@b+2
  2328     0ED6  3000               	movlw	0
  2329     0ED7  00C1               	movwf	___fladd@b+1
  2330     0ED8  3000               	movlw	0
  2331     0ED9  00C0               	movwf	___fladd@b
  2332     0EDA  120A  118A  236C  120A  158A  	fcall	___fladd
  2333     0EDF  1283               	bcf	3,5	;RP0=0, select bank0
  2334     0EE0  1303               	bcf	3,6	;RP1=0, select bank0
  2335     0EE1  0843               	movf	?___fladd+3,w
  2336     0EE2  00D7               	movwf	___fltol@f1+3
  2337     0EE3  0842               	movf	?___fladd+2,w
  2338     0EE4  00D6               	movwf	___fltol@f1+2
  2339     0EE5  0841               	movf	?___fladd+1,w
  2340     0EE6  00D5               	movwf	___fltol@f1+1
  2341     0EE7  0840               	movf	?___fladd,w
  2342     0EE8  00D4               	movwf	___fltol@f1
  2343     0EE9  120A  158A  26FB  120A  158A  	fcall	___fltol
  2344     0EEE  1283               	bcf	3,5	;RP0=0, select bank0
  2345     0EEF  1303               	bcf	3,6	;RP1=0, select bank0
  2346     0EF0  0855               	movf	?___fltol+1,w
  2347     0EF1  1683               	bsf	3,5	;RP0=1, select bank1
  2348     0EF2  1303               	bcf	3,6	;RP1=0, select bank1
  2349     0EF3  00A5               	movwf	(_HIGHpulse+1)^(0+128)
  2350     0EF4  1283               	bcf	3,5	;RP0=0, select bank0
  2351     0EF5  1303               	bcf	3,6	;RP1=0, select bank0
  2352     0EF6  0854               	movf	?___fltol,w
  2353     0EF7  1683               	bsf	3,5	;RP0=1, select bank1
  2354     0EF8  1303               	bcf	3,6	;RP1=0, select bank1
  2355     0EF9  00A4               	movwf	_HIGHpulse^(0+128)
  2356     0EFA                     l148:
  2357     0EFA  0008               	return
  2358     0EFB                     __end_of_PWMtmr0:
  2359                           
  2360                           	psect	text12
  2361     0686                     __ptext12:	
  2362 ;; *************** function ___xxtofl *****************
  2363 ;; Defined at:
  2364 ;;		line 10 in file "C:\Program Files\Microchip\xc8\v2.40\pic\sources\c90\common\xxtofl.c"
  2365 ;; Parameters:    Size  Location     Type
  2366 ;;  sign            1    wreg     unsigned char 
  2367 ;;  val             4    2[COMMON] long 
  2368 ;; Auto vars:     Size  Location     Type
  2369 ;;  sign            1    0[BANK0 ] unsigned char 
  2370 ;;  arg             4    2[BANK0 ] unsigned long 
  2371 ;;  exp             1    1[BANK0 ] unsigned char 
  2372 ;; Return value:  Size  Location     Type
  2373 ;;                  4    2[COMMON] unsigned char 
  2374 ;; Registers used:
  2375 ;;		wreg, status,2, status,0
  2376 ;; Tracked objects:
  2377 ;;		On entry : 0/0
  2378 ;;		On exit  : 0/0
  2379 ;;		Unchanged: 0/0
  2380 ;; Data sizes:     COMMON   BANK0   BANK1   BANK3   BANK2
  2381 ;;      Params:         4       0       0       0       0
  2382 ;;      Locals:         0       6       0       0       0
  2383 ;;      Temps:          4       0       0       0       0
  2384 ;;      Totals:         8       6       0       0       0
  2385 ;;Total ram usage:       14 bytes
  2386 ;; Hardware stack levels used: 1
  2387 ;; Hardware stack levels required when called: 1
  2388 ;; This function calls:
  2389 ;;		Nothing
  2390 ;; This function is called by:
  2391 ;;		_PWMtmr0
  2392 ;;		_PWMtmr1
  2393 ;;		_mapeo
  2394 ;; This function uses a non-reentrant model
  2395 ;;
  2396                           
  2397     0686                     ___xxtofl:	
  2398                           ;psect for function ___xxtofl
  2399                           
  2400                           
  2401                           ;incstack = 0
  2402                           ; Regs used in ___xxtofl: [wreg+status,2+status,0]
  2403                           ;___xxtofl@sign stored from wreg
  2404     0686  1283               	bcf	3,5	;RP0=0, select bank0
  2405     0687  1303               	bcf	3,6	;RP1=0, select bank0
  2406     0688  00A0               	movwf	___xxtofl@sign
  2407     0689                     l1770:
  2408     0689  0820               	movf	___xxtofl@sign,w
  2409     068A  1903               	btfsc	3,2
  2410     068B  2E8D               	goto	u2301
  2411     068C  2E8E               	goto	u2300
  2412     068D                     u2301:
  2413     068D  2EA2               	goto	l1776
  2414     068E                     u2300:
  2415     068E                     l1772:
  2416     068E  1FF5               	btfss	___xxtofl@val+3,7
  2417     068F  2E91               	goto	u2311
  2418     0690  2E92               	goto	u2310
  2419     0691                     u2311:
  2420     0691  2EA2               	goto	l1776
  2421     0692                     u2310:
  2422     0692                     l1774:
  2423     0692  0972               	comf	___xxtofl@val,w
  2424     0693  00A2               	movwf	___xxtofl@arg
  2425     0694  0973               	comf	___xxtofl@val+1,w
  2426     0695  00A3               	movwf	___xxtofl@arg+1
  2427     0696  0974               	comf	___xxtofl@val+2,w
  2428     0697  00A4               	movwf	___xxtofl@arg+2
  2429     0698  0975               	comf	___xxtofl@val+3,w
  2430     0699  00A5               	movwf	___xxtofl@arg+3
  2431     069A  0AA2               	incf	___xxtofl@arg,f
  2432     069B  1903               	skipnz
  2433     069C  0AA3               	incf	___xxtofl@arg+1,f
  2434     069D  1903               	skipnz
  2435     069E  0AA4               	incf	___xxtofl@arg+2,f
  2436     069F  1903               	skipnz
  2437     06A0  0AA5               	incf	___xxtofl@arg+3,f
  2438     06A1  2EAA               	goto	l701
  2439     06A2                     l1776:
  2440     06A2  0875               	movf	___xxtofl@val+3,w
  2441     06A3  00A5               	movwf	___xxtofl@arg+3
  2442     06A4  0874               	movf	___xxtofl@val+2,w
  2443     06A5  00A4               	movwf	___xxtofl@arg+2
  2444     06A6  0873               	movf	___xxtofl@val+1,w
  2445     06A7  00A3               	movwf	___xxtofl@arg+1
  2446     06A8  0872               	movf	___xxtofl@val,w
  2447     06A9  00A2               	movwf	___xxtofl@arg
  2448     06AA                     l701:
  2449     06AA  0875               	movf	___xxtofl@val+3,w
  2450     06AB  0474               	iorwf	___xxtofl@val+2,w
  2451     06AC  0473               	iorwf	___xxtofl@val+1,w
  2452     06AD  0472               	iorwf	___xxtofl@val,w
  2453     06AE  1D03               	skipz
  2454     06AF  2EB1               	goto	u2321
  2455     06B0  2EB2               	goto	u2320
  2456     06B1                     u2321:
  2457     06B1  2EBB               	goto	l1782
  2458     06B2                     u2320:
  2459     06B2                     l1778:
  2460     06B2  3000               	movlw	0
  2461     06B3  00F5               	movwf	?___xxtofl+3
  2462     06B4  3000               	movlw	0
  2463     06B5  00F4               	movwf	?___xxtofl+2
  2464     06B6  3000               	movlw	0
  2465     06B7  00F3               	movwf	?___xxtofl+1
  2466     06B8  3000               	movlw	0
  2467     06B9  00F2               	movwf	?___xxtofl
  2468     06BA  2F3F               	goto	l703
  2469     06BB                     l1782:
  2470     06BB  3096               	movlw	150
  2471     06BC  00A1               	movwf	___xxtofl@exp
  2472     06BD  2ECB               	goto	l1786
  2473     06BE                     l1784:
  2474     06BE  3001               	movlw	1
  2475     06BF  00F6               	movwf	??___xxtofl
  2476     06C0  0876               	movf	??___xxtofl,w
  2477     06C1  07A1               	addwf	___xxtofl@exp,f
  2478     06C2  3001               	movlw	1
  2479     06C3                     u2335:
  2480     06C3  1003               	clrc
  2481     06C4  0CA5               	rrf	___xxtofl@arg+3,f
  2482     06C5  0CA4               	rrf	___xxtofl@arg+2,f
  2483     06C6  0CA3               	rrf	___xxtofl@arg+1,f
  2484     06C7  0CA2               	rrf	___xxtofl@arg,f
  2485     06C8  3EFF               	addlw	-1
  2486     06C9  1D03               	skipz
  2487     06CA  2EC3               	goto	u2335
  2488     06CB                     l1786:
  2489     06CB  30FE               	movlw	254
  2490     06CC  0525               	andwf	___xxtofl@arg+3,w
  2491     06CD  1D03               	btfss	3,2
  2492     06CE  2ED0               	goto	u2341
  2493     06CF  2ED1               	goto	u2340
  2494     06D0                     u2341:
  2495     06D0  2EBE               	goto	l1784
  2496     06D1                     u2340:
  2497     06D1  2EED               	goto	l707
  2498     06D2                     l1788:
  2499     06D2  3001               	movlw	1
  2500     06D3  00F6               	movwf	??___xxtofl
  2501     06D4  0876               	movf	??___xxtofl,w
  2502     06D5  07A1               	addwf	___xxtofl@exp,f
  2503     06D6                     l1790:
  2504     06D6  3001               	movlw	1
  2505     06D7  07A2               	addwf	___xxtofl@arg,f
  2506     06D8  3000               	movlw	0
  2507     06D9  1803               	skipnc
  2508     06DA  3001               	movlw	1
  2509     06DB  07A3               	addwf	___xxtofl@arg+1,f
  2510     06DC  3000               	movlw	0
  2511     06DD  1803               	skipnc
  2512     06DE  3001               	movlw	1
  2513     06DF  07A4               	addwf	___xxtofl@arg+2,f
  2514     06E0  3000               	movlw	0
  2515     06E1  1803               	skipnc
  2516     06E2  3001               	movlw	1
  2517     06E3  07A5               	addwf	___xxtofl@arg+3,f
  2518     06E4                     l1792:
  2519     06E4  3001               	movlw	1
  2520     06E5                     u2355:
  2521     06E5  1003               	clrc
  2522     06E6  0CA5               	rrf	___xxtofl@arg+3,f
  2523     06E7  0CA4               	rrf	___xxtofl@arg+2,f
  2524     06E8  0CA3               	rrf	___xxtofl@arg+1,f
  2525     06E9  0CA2               	rrf	___xxtofl@arg,f
  2526     06EA  3EFF               	addlw	-1
  2527     06EB  1D03               	skipz
  2528     06EC  2EE5               	goto	u2355
  2529     06ED                     l707:
  2530     06ED  30FF               	movlw	255
  2531     06EE  0525               	andwf	___xxtofl@arg+3,w
  2532     06EF  1D03               	btfss	3,2
  2533     06F0  2EF2               	goto	u2361
  2534     06F1  2EF3               	goto	u2360
  2535     06F2                     u2361:
  2536     06F2  2ED2               	goto	l1788
  2537     06F3                     u2360:
  2538     06F3  2EFF               	goto	l1796
  2539     06F4                     l1794:
  2540     06F4  3001               	movlw	1
  2541     06F5  02A1               	subwf	___xxtofl@exp,f
  2542     06F6  3001               	movlw	1
  2543     06F7  00F6               	movwf	??___xxtofl
  2544     06F8                     u2375:
  2545     06F8  1003               	clrc
  2546     06F9  0DA2               	rlf	___xxtofl@arg,f
  2547     06FA  0DA3               	rlf	___xxtofl@arg+1,f
  2548     06FB  0DA4               	rlf	___xxtofl@arg+2,f
  2549     06FC  0DA5               	rlf	___xxtofl@arg+3,f
  2550     06FD  0BF6               	decfsz	??___xxtofl,f
  2551     06FE  2EF8               	goto	u2375
  2552     06FF                     l1796:
  2553     06FF  1BA4               	btfsc	___xxtofl@arg+2,7
  2554     0700  2F02               	goto	u2381
  2555     0701  2F03               	goto	u2380
  2556     0702                     u2381:
  2557     0702  2F09               	goto	l714
  2558     0703                     u2380:
  2559     0703                     l1798:
  2560     0703  3002               	movlw	2
  2561     0704  0221               	subwf	___xxtofl@exp,w
  2562     0705  1803               	skipnc
  2563     0706  2F08               	goto	u2391
  2564     0707  2F09               	goto	u2390
  2565     0708                     u2391:
  2566     0708  2EF4               	goto	l1794
  2567     0709                     u2390:
  2568     0709                     l714:
  2569     0709  1821               	btfsc	___xxtofl@exp,0
  2570     070A  2F0C               	goto	u2401
  2571     070B  2F0D               	goto	u2400
  2572     070C                     u2401:
  2573     070C  2F15               	goto	l715
  2574     070D                     u2400:
  2575     070D                     l1800:
  2576     070D  30FF               	movlw	255
  2577     070E  05A2               	andwf	___xxtofl@arg,f
  2578     070F  30FF               	movlw	255
  2579     0710  05A3               	andwf	___xxtofl@arg+1,f
  2580     0711  307F               	movlw	127
  2581     0712  05A4               	andwf	___xxtofl@arg+2,f
  2582     0713  30FF               	movlw	255
  2583     0714  05A5               	andwf	___xxtofl@arg+3,f
  2584     0715                     l715:
  2585     0715  1003               	clrc
  2586     0716  0CA1               	rrf	___xxtofl@exp,f
  2587     0717                     l1802:
  2588     0717  0821               	movf	___xxtofl@exp,w
  2589     0718  00F6               	movwf	??___xxtofl
  2590     0719  01F7               	clrf	??___xxtofl+1
  2591     071A  01F8               	clrf	??___xxtofl+2
  2592     071B  01F9               	clrf	??___xxtofl+3
  2593     071C  3018               	movlw	24
  2594     071D                     u2415:
  2595     071D  1003               	clrc
  2596     071E  0DF6               	rlf	??___xxtofl,f
  2597     071F  0DF7               	rlf	??___xxtofl+1,f
  2598     0720  0DF8               	rlf	??___xxtofl+2,f
  2599     0721  0DF9               	rlf	??___xxtofl+3,f
  2600     0722                     u2410:
  2601     0722  3EFF               	addlw	-1
  2602     0723  1D03               	skipz
  2603     0724  2F1D               	goto	u2415
  2604     0725  0876               	movf	??___xxtofl,w
  2605     0726  04A2               	iorwf	___xxtofl@arg,f
  2606     0727  0877               	movf	??___xxtofl+1,w
  2607     0728  04A3               	iorwf	___xxtofl@arg+1,f
  2608     0729  0878               	movf	??___xxtofl+2,w
  2609     072A  04A4               	iorwf	___xxtofl@arg+2,f
  2610     072B  0879               	movf	??___xxtofl+3,w
  2611     072C  04A5               	iorwf	___xxtofl@arg+3,f
  2612     072D                     l1804:
  2613     072D  0820               	movf	___xxtofl@sign,w
  2614     072E  1903               	btfsc	3,2
  2615     072F  2F31               	goto	u2421
  2616     0730  2F32               	goto	u2420
  2617     0731                     u2421:
  2618     0731  2F37               	goto	l1810
  2619     0732                     u2420:
  2620     0732                     l1806:
  2621     0732  1FF5               	btfss	___xxtofl@val+3,7
  2622     0733  2F35               	goto	u2431
  2623     0734  2F36               	goto	u2430
  2624     0735                     u2431:
  2625     0735  2F37               	goto	l1810
  2626     0736                     u2430:
  2627     0736                     l1808:
  2628     0736  17A5               	bsf	___xxtofl@arg+3,7
  2629     0737                     l1810:
  2630     0737  0825               	movf	___xxtofl@arg+3,w
  2631     0738  00F5               	movwf	?___xxtofl+3
  2632     0739  0824               	movf	___xxtofl@arg+2,w
  2633     073A  00F4               	movwf	?___xxtofl+2
  2634     073B  0823               	movf	___xxtofl@arg+1,w
  2635     073C  00F3               	movwf	?___xxtofl+1
  2636     073D  0822               	movf	___xxtofl@arg,w
  2637     073E  00F2               	movwf	?___xxtofl
  2638     073F                     l703:
  2639     073F  0008               	return
  2640     0740                     __end_of___xxtofl:
  2641                           
  2642                           	psect	text13
  2643     0EFB                     __ptext13:	
  2644 ;; *************** function ___fltol *****************
  2645 ;; Defined at:
  2646 ;;		line 43 in file "C:\Program Files\Microchip\xc8\v2.40\pic\sources\c90\common\fltol.c"
  2647 ;; Parameters:    Size  Location     Type
  2648 ;;  f1              4   52[BANK0 ] unsigned char 
  2649 ;; Auto vars:     Size  Location     Type
  2650 ;;  exp1            1   61[BANK0 ] unsigned char 
  2651 ;;  sign1           1   60[BANK0 ] unsigned char 
  2652 ;; Return value:  Size  Location     Type
  2653 ;;                  4   52[BANK0 ] long 
  2654 ;; Registers used:
  2655 ;;		wreg, status,2, status,0
  2656 ;; Tracked objects:
  2657 ;;		On entry : 0/0
  2658 ;;		On exit  : 0/0
  2659 ;;		Unchanged: 0/0
  2660 ;; Data sizes:     COMMON   BANK0   BANK1   BANK3   BANK2
  2661 ;;      Params:         0       4       0       0       0
  2662 ;;      Locals:         0       2       0       0       0
  2663 ;;      Temps:          0       4       0       0       0
  2664 ;;      Totals:         0      10       0       0       0
  2665 ;;Total ram usage:       10 bytes
  2666 ;; Hardware stack levels used: 1
  2667 ;; Hardware stack levels required when called: 1
  2668 ;; This function calls:
  2669 ;;		Nothing
  2670 ;; This function is called by:
  2671 ;;		_PWMtmr0
  2672 ;;		_PWMtmr1
  2673 ;;		_mapeo
  2674 ;; This function uses a non-reentrant model
  2675 ;;
  2676                           
  2677     0EFB                     ___fltol:	
  2678                           ;psect for function ___fltol
  2679                           
  2680     0EFB                     l1400:	
  2681                           ;incstack = 0
  2682                           ; Regs used in ___fltol: [wreg+status,2+status,0]
  2683                           
  2684     0EFB  1003               	clrc
  2685     0EFC  1283               	bcf	3,5	;RP0=0, select bank0
  2686     0EFD  1303               	bcf	3,6	;RP1=0, select bank0
  2687     0EFE  0D56               	rlf	___fltol@f1+2,w
  2688     0EFF  0D57               	rlf	___fltol@f1+3,w
  2689     0F00  00DD               	movwf	___fltol@exp1
  2690     0F01  085D               	movf	___fltol@exp1,w
  2691     0F02  1D03               	btfss	3,2
  2692     0F03  2F05               	goto	u1371
  2693     0F04  2F06               	goto	u1370
  2694     0F05                     u1371:
  2695     0F05  2F0F               	goto	l1406
  2696     0F06                     u1370:
  2697     0F06                     l1402:
  2698     0F06  3000               	movlw	0
  2699     0F07  00D7               	movwf	?___fltol+3
  2700     0F08  3000               	movlw	0
  2701     0F09  00D6               	movwf	?___fltol+2
  2702     0F0A  3000               	movlw	0
  2703     0F0B  00D5               	movwf	?___fltol+1
  2704     0F0C  3000               	movlw	0
  2705     0F0D  00D4               	movwf	?___fltol
  2706     0F0E  2F72               	goto	l454
  2707     0F0F                     l1406:
  2708     0F0F  0854               	movf	___fltol@f1,w
  2709     0F10  00D8               	movwf	??___fltol
  2710     0F11  0855               	movf	___fltol@f1+1,w
  2711     0F12  00D9               	movwf	??___fltol+1
  2712     0F13  0856               	movf	___fltol@f1+2,w
  2713     0F14  00DA               	movwf	??___fltol+2
  2714     0F15  0857               	movf	___fltol@f1+3,w
  2715     0F16  00DB               	movwf	??___fltol+3
  2716     0F17  301F               	movlw	31
  2717     0F18                     u1385:
  2718     0F18  1003               	clrc
  2719     0F19  0CDB               	rrf	??___fltol+3,f
  2720     0F1A  0CDA               	rrf	??___fltol+2,f
  2721     0F1B  0CD9               	rrf	??___fltol+1,f
  2722     0F1C  0CD8               	rrf	??___fltol,f
  2723     0F1D                     u1380:
  2724     0F1D  3EFF               	addlw	-1
  2725     0F1E  1D03               	skipz
  2726     0F1F  2F18               	goto	u1385
  2727     0F20  0858               	movf	??___fltol,w
  2728     0F21  00DC               	movwf	___fltol@sign1
  2729     0F22                     l1408:
  2730     0F22  17D6               	bsf	___fltol@f1+2,7
  2731     0F23                     l1410:
  2732     0F23  30FF               	movlw	255
  2733     0F24  05D4               	andwf	___fltol@f1,f
  2734     0F25  30FF               	movlw	255
  2735     0F26  05D5               	andwf	___fltol@f1+1,f
  2736     0F27  30FF               	movlw	255
  2737     0F28  05D6               	andwf	___fltol@f1+2,f
  2738     0F29  3000               	movlw	0
  2739     0F2A  05D7               	andwf	___fltol@f1+3,f
  2740     0F2B                     l1412:
  2741     0F2B  3096               	movlw	150
  2742     0F2C  02DD               	subwf	___fltol@exp1,f
  2743     0F2D                     l1414:
  2744     0F2D  1FDD               	btfss	___fltol@exp1,7
  2745     0F2E  2F30               	goto	u1391
  2746     0F2F  2F31               	goto	u1390
  2747     0F30                     u1391:
  2748     0F30  2F4B               	goto	l1424
  2749     0F31                     u1390:
  2750     0F31                     l1416:
  2751     0F31  085D               	movf	___fltol@exp1,w
  2752     0F32  3A80               	xorlw	128
  2753     0F33  3E97               	addlw	151
  2754     0F34  1803               	skipnc
  2755     0F35  2F37               	goto	u1401
  2756     0F36  2F38               	goto	u1400
  2757     0F37                     u1401:
  2758     0F37  2F39               	goto	l1422
  2759     0F38                     u1400:
  2760     0F38  2F06               	goto	l1402
  2761     0F39                     l1422:
  2762     0F39  3001               	movlw	1
  2763     0F3A                     u1415:
  2764     0F3A  1003               	clrc
  2765     0F3B  0CD7               	rrf	___fltol@f1+3,f
  2766     0F3C  0CD6               	rrf	___fltol@f1+2,f
  2767     0F3D  0CD5               	rrf	___fltol@f1+1,f
  2768     0F3E  0CD4               	rrf	___fltol@f1,f
  2769     0F3F  3EFF               	addlw	-1
  2770     0F40  1D03               	skipz
  2771     0F41  2F3A               	goto	u1415
  2772     0F42  3001               	movlw	1
  2773     0F43  00D8               	movwf	??___fltol
  2774     0F44  0858               	movf	??___fltol,w
  2775     0F45  07DD               	addwf	___fltol@exp1,f
  2776     0F46  1D03               	btfss	3,2
  2777     0F47  2F49               	goto	u1421
  2778     0F48  2F4A               	goto	u1420
  2779     0F49                     u1421:
  2780     0F49  2F39               	goto	l1422
  2781     0F4A                     u1420:
  2782     0F4A  2F62               	goto	l1432
  2783     0F4B                     l1424:
  2784     0F4B  3020               	movlw	32
  2785     0F4C  025D               	subwf	___fltol@exp1,w
  2786     0F4D  1C03               	skipc
  2787     0F4E  2F50               	goto	u1431
  2788     0F4F  2F51               	goto	u1430
  2789     0F50                     u1431:
  2790     0F50  2F5D               	goto	l461
  2791     0F51                     u1430:
  2792     0F51  2F06               	goto	l1402
  2793     0F52                     l1430:
  2794     0F52  3001               	movlw	1
  2795     0F53  00D8               	movwf	??___fltol
  2796     0F54                     u1445:
  2797     0F54  1003               	clrc
  2798     0F55  0DD4               	rlf	___fltol@f1,f
  2799     0F56  0DD5               	rlf	___fltol@f1+1,f
  2800     0F57  0DD6               	rlf	___fltol@f1+2,f
  2801     0F58  0DD7               	rlf	___fltol@f1+3,f
  2802     0F59  0BD8               	decfsz	??___fltol,f
  2803     0F5A  2F54               	goto	u1445
  2804     0F5B  3001               	movlw	1
  2805     0F5C  02DD               	subwf	___fltol@exp1,f
  2806     0F5D                     l461:
  2807     0F5D  085D               	movf	___fltol@exp1,w
  2808     0F5E  1D03               	btfss	3,2
  2809     0F5F  2F61               	goto	u1451
  2810     0F60  2F62               	goto	u1450
  2811     0F61                     u1451:
  2812     0F61  2F52               	goto	l1430
  2813     0F62                     u1450:
  2814     0F62                     l1432:
  2815     0F62  085C               	movf	___fltol@sign1,w
  2816     0F63  1903               	btfsc	3,2
  2817     0F64  2F66               	goto	u1461
  2818     0F65  2F67               	goto	u1460
  2819     0F66                     u1461:
  2820     0F66  2F72               	goto	l464
  2821     0F67                     u1460:
  2822     0F67                     l1434:
  2823     0F67  09D4               	comf	___fltol@f1,f
  2824     0F68  09D5               	comf	___fltol@f1+1,f
  2825     0F69  09D6               	comf	___fltol@f1+2,f
  2826     0F6A  09D7               	comf	___fltol@f1+3,f
  2827     0F6B  0AD4               	incf	___fltol@f1,f
  2828     0F6C  1903               	skipnz
  2829     0F6D  0AD5               	incf	___fltol@f1+1,f
  2830     0F6E  1903               	skipnz
  2831     0F6F  0AD6               	incf	___fltol@f1+2,f
  2832     0F70  1903               	skipnz
  2833     0F71  0AD7               	incf	___fltol@f1+3,f
  2834     0F72                     l464:
  2835     0F72                     l454:
  2836     0F72  0008               	return
  2837     0F73                     __end_of___fltol:
  2838                           
  2839                           	psect	text14
  2840     0027                     __ptext14:	
  2841 ;; *************** function ___flmul *****************
  2842 ;; Defined at:
  2843 ;;		line 8 in file "C:\Program Files\Microchip\xc8\v2.40\pic\sources\c90\common\sprcmul.c"
  2844 ;; Parameters:    Size  Location     Type
  2845 ;;  b               4    6[BANK0 ] long 
  2846 ;;  a               4   10[BANK0 ] long 
  2847 ;; Auto vars:     Size  Location     Type
  2848 ;;  prod            4   26[BANK0 ] struct .
  2849 ;;  grs             4   21[BANK0 ] unsigned long 
  2850 ;;  temp            2   30[BANK0 ] struct .
  2851 ;;  bexp            1   25[BANK0 ] unsigned char 
  2852 ;;  aexp            1   20[BANK0 ] unsigned char 
  2853 ;;  sign            1   19[BANK0 ] unsigned char 
  2854 ;; Return value:  Size  Location     Type
  2855 ;;                  4    6[BANK0 ] unsigned char 
  2856 ;; Registers used:
  2857 ;;		wreg, status,2, status,0, btemp+1, pclath, cstack
  2858 ;; Tracked objects:
  2859 ;;		On entry : 0/0
  2860 ;;		On exit  : 0/0
  2861 ;;		Unchanged: 0/0
  2862 ;; Data sizes:     COMMON   BANK0   BANK1   BANK3   BANK2
  2863 ;;      Params:         0       8       0       0       0
  2864 ;;      Locals:         0      13       0       0       0
  2865 ;;      Temps:          0       5       0       0       0
  2866 ;;      Totals:         0      26       0       0       0
  2867 ;;Total ram usage:       26 bytes
  2868 ;; Hardware stack levels used: 1
  2869 ;; Hardware stack levels required when called: 2
  2870 ;; This function calls:
  2871 ;;		__Umul8_16
  2872 ;; This function is called by:
  2873 ;;		_PWMtmr0
  2874 ;;		_PWMtmr1
  2875 ;;		_mapeo
  2876 ;; This function uses a non-reentrant model
  2877 ;;
  2878                           
  2879     0027                     ___flmul:	
  2880                           ;psect for function ___flmul
  2881                           
  2882     0027                     l2012:	
  2883                           ;incstack = 0
  2884                           ; Regs used in ___flmul: [wreg+status,2+status,0+btemp+1+pclath+cstack]
  2885                           
  2886     0027  1283               	bcf	3,5	;RP0=0, select bank0
  2887     0028  1303               	bcf	3,6	;RP1=0, select bank0
  2888     0029  0829               	movf	___flmul@b+3,w
  2889     002A  3980               	andlw	128
  2890     002B  00B3               	movwf	___flmul@sign
  2891     002C                     l2014:
  2892     002C  0829               	movf	___flmul@b+3,w
  2893     002D  00AE               	movwf	??___flmul
  2894     002E  072E               	addwf	??___flmul,w
  2895     002F  00B9               	movwf	___flmul@bexp
  2896     0030                     l2016:
  2897     0030  1FA8               	btfss	___flmul@b+2,7
  2898     0031  2833               	goto	u2701
  2899     0032  2834               	goto	u2700
  2900     0033                     u2701:
  2901     0033  2835               	goto	l2020
  2902     0034                     u2700:
  2903     0034                     l2018:
  2904     0034  1439               	bsf	___flmul@bexp,0
  2905     0035                     l2020:
  2906     0035  0839               	movf	___flmul@bexp,w
  2907     0036  1903               	btfsc	3,2
  2908     0037  2839               	goto	u2711
  2909     0038  283A               	goto	u2710
  2910     0039                     u2711:
  2911     0039  2849               	goto	l2028
  2912     003A                     u2710:
  2913     003A                     l2022:
  2914     003A  0A39               	incf	___flmul@bexp,w
  2915     003B  1D03               	btfss	3,2
  2916     003C  283E               	goto	u2721
  2917     003D  283F               	goto	u2720
  2918     003E                     u2721:
  2919     003E  2847               	goto	l2026
  2920     003F                     u2720:
  2921     003F                     l2024:
  2922     003F  3000               	movlw	0
  2923     0040  00A9               	movwf	___flmul@b+3
  2924     0041  3000               	movlw	0
  2925     0042  00A8               	movwf	___flmul@b+2
  2926     0043  3000               	movlw	0
  2927     0044  00A7               	movwf	___flmul@b+1
  2928     0045  3000               	movlw	0
  2929     0046  00A6               	movwf	___flmul@b
  2930     0047                     l2026:
  2931     0047  17A8               	bsf	___flmul@b+2,7
  2932     0048  2851               	goto	l2030
  2933     0049                     l2028:
  2934     0049  3000               	movlw	0
  2935     004A  00A9               	movwf	___flmul@b+3
  2936     004B  3000               	movlw	0
  2937     004C  00A8               	movwf	___flmul@b+2
  2938     004D  3000               	movlw	0
  2939     004E  00A7               	movwf	___flmul@b+1
  2940     004F  3000               	movlw	0
  2941     0050  00A6               	movwf	___flmul@b
  2942     0051                     l2030:
  2943     0051  082D               	movf	___flmul@a+3,w
  2944     0052  3980               	andlw	128
  2945     0053  00AE               	movwf	??___flmul
  2946     0054  082E               	movf	??___flmul,w
  2947     0055  06B3               	xorwf	___flmul@sign,f
  2948     0056                     l2032:
  2949     0056  082D               	movf	___flmul@a+3,w
  2950     0057  00AE               	movwf	??___flmul
  2951     0058  072E               	addwf	??___flmul,w
  2952     0059  00B4               	movwf	___flmul@aexp
  2953     005A                     l2034:
  2954     005A  1FAC               	btfss	___flmul@a+2,7
  2955     005B  285D               	goto	u2731
  2956     005C  285E               	goto	u2730
  2957     005D                     u2731:
  2958     005D  285F               	goto	l2038
  2959     005E                     u2730:
  2960     005E                     l2036:
  2961     005E  1434               	bsf	___flmul@aexp,0
  2962     005F                     l2038:
  2963     005F  0834               	movf	___flmul@aexp,w
  2964     0060  1903               	btfsc	3,2
  2965     0061  2863               	goto	u2741
  2966     0062  2864               	goto	u2740
  2967     0063                     u2741:
  2968     0063  2873               	goto	l2046
  2969     0064                     u2740:
  2970     0064                     l2040:
  2971     0064  0A34               	incf	___flmul@aexp,w
  2972     0065  1D03               	btfss	3,2
  2973     0066  2868               	goto	u2751
  2974     0067  2869               	goto	u2750
  2975     0068                     u2751:
  2976     0068  2871               	goto	l2044
  2977     0069                     u2750:
  2978     0069                     l2042:
  2979     0069  3000               	movlw	0
  2980     006A  00AD               	movwf	___flmul@a+3
  2981     006B  3000               	movlw	0
  2982     006C  00AC               	movwf	___flmul@a+2
  2983     006D  3000               	movlw	0
  2984     006E  00AB               	movwf	___flmul@a+1
  2985     006F  3000               	movlw	0
  2986     0070  00AA               	movwf	___flmul@a
  2987     0071                     l2044:
  2988     0071  17AC               	bsf	___flmul@a+2,7
  2989     0072  287B               	goto	l2048
  2990     0073                     l2046:
  2991     0073  3000               	movlw	0
  2992     0074  00AD               	movwf	___flmul@a+3
  2993     0075  3000               	movlw	0
  2994     0076  00AC               	movwf	___flmul@a+2
  2995     0077  3000               	movlw	0
  2996     0078  00AB               	movwf	___flmul@a+1
  2997     0079  3000               	movlw	0
  2998     007A  00AA               	movwf	___flmul@a
  2999     007B                     l2048:
  3000     007B  0834               	movf	___flmul@aexp,w
  3001     007C  1903               	btfsc	3,2
  3002     007D  287F               	goto	u2761
  3003     007E  2880               	goto	u2760
  3004     007F                     u2761:
  3005     007F  2885               	goto	l2052
  3006     0080                     u2760:
  3007     0080                     l2050:
  3008     0080  0839               	movf	___flmul@bexp,w
  3009     0081  1D03               	btfss	3,2
  3010     0082  2884               	goto	u2771
  3011     0083  2885               	goto	u2770
  3012     0084                     u2771:
  3013     0084  288E               	goto	l2056
  3014     0085                     u2770:
  3015     0085                     l2052:
  3016     0085  3000               	movlw	0
  3017     0086  00A9               	movwf	?___flmul+3
  3018     0087  3000               	movlw	0
  3019     0088  00A8               	movwf	?___flmul+2
  3020     0089  3000               	movlw	0
  3021     008A  00A7               	movwf	?___flmul+1
  3022     008B  3000               	movlw	0
  3023     008C  00A6               	movwf	?___flmul
  3024     008D  2B6B               	goto	l657
  3025     008E                     l2056:
  3026     008E  0826               	movf	___flmul@b,w
  3027     008F  00F2               	movwf	__Umul8_16@multiplicand
  3028     0090  082C               	movf	___flmul@a+2,w
  3029     0091  120A  158A  254A  120A  118A  	fcall	__Umul8_16
  3030     0096  0873               	movf	?__Umul8_16+1,w
  3031     0097  1283               	bcf	3,5	;RP0=0, select bank0
  3032     0098  1303               	bcf	3,6	;RP1=0, select bank0
  3033     0099  00BF               	movwf	___flmul@temp+1
  3034     009A  0872               	movf	?__Umul8_16,w
  3035     009B  00BE               	movwf	___flmul@temp
  3036     009C                     l2058:
  3037     009C  083E               	movf	___flmul@temp,w
  3038     009D  00AE               	movwf	??___flmul
  3039     009E  01AF               	clrf	??___flmul+1
  3040     009F  01B0               	clrf	??___flmul+2
  3041     00A0  01B1               	clrf	??___flmul+3
  3042     00A1  0831               	movf	??___flmul+3,w
  3043     00A2  00B8               	movwf	___flmul@grs+3
  3044     00A3  0830               	movf	??___flmul+2,w
  3045     00A4  00B7               	movwf	___flmul@grs+2
  3046     00A5  082F               	movf	??___flmul+1,w
  3047     00A6  00B6               	movwf	___flmul@grs+1
  3048     00A7  082E               	movf	??___flmul,w
  3049     00A8  00B5               	movwf	___flmul@grs
  3050     00A9                     l2060:
  3051     00A9  083F               	movf	___flmul@temp+1,w
  3052     00AA  00AE               	movwf	??___flmul
  3053     00AB  01AF               	clrf	??___flmul+1
  3054     00AC  01B0               	clrf	??___flmul+2
  3055     00AD  01B1               	clrf	??___flmul+3
  3056     00AE  0831               	movf	??___flmul+3,w
  3057     00AF  00BD               	movwf	___flmul@prod+3
  3058     00B0  0830               	movf	??___flmul+2,w
  3059     00B1  00BC               	movwf	___flmul@prod+2
  3060     00B2  082F               	movf	??___flmul+1,w
  3061     00B3  00BB               	movwf	___flmul@prod+1
  3062     00B4  082E               	movf	??___flmul,w
  3063     00B5  00BA               	movwf	___flmul@prod
  3064     00B6  0827               	movf	___flmul@b+1,w
  3065     00B7  00F2               	movwf	__Umul8_16@multiplicand
  3066     00B8  082B               	movf	___flmul@a+1,w
  3067     00B9  120A  158A  254A  120A  118A  	fcall	__Umul8_16
  3068     00BE  0873               	movf	?__Umul8_16+1,w
  3069     00BF  1283               	bcf	3,5	;RP0=0, select bank0
  3070     00C0  1303               	bcf	3,6	;RP1=0, select bank0
  3071     00C1  00BF               	movwf	___flmul@temp+1
  3072     00C2  0872               	movf	?__Umul8_16,w
  3073     00C3  00BE               	movwf	___flmul@temp
  3074     00C4                     l2062:
  3075     00C4  083E               	movf	___flmul@temp,w
  3076     00C5  00AE               	movwf	??___flmul
  3077     00C6  01AF               	clrf	??___flmul+1
  3078     00C7  01B0               	clrf	??___flmul+2
  3079     00C8  01B1               	clrf	??___flmul+3
  3080     00C9  082E               	movf	??___flmul,w
  3081     00CA  07B5               	addwf	___flmul@grs,f
  3082     00CB  082F               	movf	??___flmul+1,w
  3083     00CC  1103               	clrz
  3084     00CD  1803               	skipnc
  3085     00CE  3E01               	addlw	1
  3086     00CF  1903               	skipnz
  3087     00D0  28D2               	goto	u2781
  3088     00D1  07B6               	addwf	___flmul@grs+1,f
  3089     00D2                     u2781:
  3090     00D2  0830               	movf	??___flmul+2,w
  3091     00D3  1103               	clrz
  3092     00D4  1803               	skipnc
  3093     00D5  3E01               	addlw	1
  3094     00D6  1903               	skipnz
  3095     00D7  28D9               	goto	u2782
  3096     00D8  07B7               	addwf	___flmul@grs+2,f
  3097     00D9                     u2782:
  3098     00D9  0831               	movf	??___flmul+3,w
  3099     00DA  1103               	clrz
  3100     00DB  1803               	skipnc
  3101     00DC  3E01               	addlw	1
  3102     00DD  1903               	skipnz
  3103     00DE  28E0               	goto	u2783
  3104     00DF  07B8               	addwf	___flmul@grs+3,f
  3105     00E0                     u2783:
  3106     00E0                     l2064:
  3107     00E0  083F               	movf	___flmul@temp+1,w
  3108     00E1  00AE               	movwf	??___flmul
  3109     00E2  01AF               	clrf	??___flmul+1
  3110     00E3  01B0               	clrf	??___flmul+2
  3111     00E4  01B1               	clrf	??___flmul+3
  3112     00E5  082E               	movf	??___flmul,w
  3113     00E6  07BA               	addwf	___flmul@prod,f
  3114     00E7  082F               	movf	??___flmul+1,w
  3115     00E8  1103               	clrz
  3116     00E9  1803               	skipnc
  3117     00EA  3E01               	addlw	1
  3118     00EB  1903               	skipnz
  3119     00EC  28EE               	goto	u2791
  3120     00ED  07BB               	addwf	___flmul@prod+1,f
  3121     00EE                     u2791:
  3122     00EE  0830               	movf	??___flmul+2,w
  3123     00EF  1103               	clrz
  3124     00F0  1803               	skipnc
  3125     00F1  3E01               	addlw	1
  3126     00F2  1903               	skipnz
  3127     00F3  28F5               	goto	u2792
  3128     00F4  07BC               	addwf	___flmul@prod+2,f
  3129     00F5                     u2792:
  3130     00F5  0831               	movf	??___flmul+3,w
  3131     00F6  1103               	clrz
  3132     00F7  1803               	skipnc
  3133     00F8  3E01               	addlw	1
  3134     00F9  1903               	skipnz
  3135     00FA  28FC               	goto	u2793
  3136     00FB  07BD               	addwf	___flmul@prod+3,f
  3137     00FC                     u2793:
  3138     00FC  0828               	movf	___flmul@b+2,w
  3139     00FD  00F2               	movwf	__Umul8_16@multiplicand
  3140     00FE  082A               	movf	___flmul@a,w
  3141     00FF  120A  158A  254A  120A  118A  	fcall	__Umul8_16
  3142     0104  0873               	movf	?__Umul8_16+1,w
  3143     0105  1283               	bcf	3,5	;RP0=0, select bank0
  3144     0106  1303               	bcf	3,6	;RP1=0, select bank0
  3145     0107  00BF               	movwf	___flmul@temp+1
  3146     0108  0872               	movf	?__Umul8_16,w
  3147     0109  00BE               	movwf	___flmul@temp
  3148     010A                     l2066:
  3149     010A  083E               	movf	___flmul@temp,w
  3150     010B  00AE               	movwf	??___flmul
  3151     010C  01AF               	clrf	??___flmul+1
  3152     010D  01B0               	clrf	??___flmul+2
  3153     010E  01B1               	clrf	??___flmul+3
  3154     010F  082E               	movf	??___flmul,w
  3155     0110  07B5               	addwf	___flmul@grs,f
  3156     0111  082F               	movf	??___flmul+1,w
  3157     0112  1103               	clrz
  3158     0113  1803               	skipnc
  3159     0114  3E01               	addlw	1
  3160     0115  1903               	skipnz
  3161     0116  2918               	goto	u2801
  3162     0117  07B6               	addwf	___flmul@grs+1,f
  3163     0118                     u2801:
  3164     0118  0830               	movf	??___flmul+2,w
  3165     0119  1103               	clrz
  3166     011A  1803               	skipnc
  3167     011B  3E01               	addlw	1
  3168     011C  1903               	skipnz
  3169     011D  291F               	goto	u2802
  3170     011E  07B7               	addwf	___flmul@grs+2,f
  3171     011F                     u2802:
  3172     011F  0831               	movf	??___flmul+3,w
  3173     0120  1103               	clrz
  3174     0121  1803               	skipnc
  3175     0122  3E01               	addlw	1
  3176     0123  1903               	skipnz
  3177     0124  2926               	goto	u2803
  3178     0125  07B8               	addwf	___flmul@grs+3,f
  3179     0126                     u2803:
  3180     0126                     l2068:
  3181     0126  083F               	movf	___flmul@temp+1,w
  3182     0127  00AE               	movwf	??___flmul
  3183     0128  01AF               	clrf	??___flmul+1
  3184     0129  01B0               	clrf	??___flmul+2
  3185     012A  01B1               	clrf	??___flmul+3
  3186     012B  082E               	movf	??___flmul,w
  3187     012C  07BA               	addwf	___flmul@prod,f
  3188     012D  082F               	movf	??___flmul+1,w
  3189     012E  1103               	clrz
  3190     012F  1803               	skipnc
  3191     0130  3E01               	addlw	1
  3192     0131  1903               	skipnz
  3193     0132  2934               	goto	u2811
  3194     0133  07BB               	addwf	___flmul@prod+1,f
  3195     0134                     u2811:
  3196     0134  0830               	movf	??___flmul+2,w
  3197     0135  1103               	clrz
  3198     0136  1803               	skipnc
  3199     0137  3E01               	addlw	1
  3200     0138  1903               	skipnz
  3201     0139  293B               	goto	u2812
  3202     013A  07BC               	addwf	___flmul@prod+2,f
  3203     013B                     u2812:
  3204     013B  0831               	movf	??___flmul+3,w
  3205     013C  1103               	clrz
  3206     013D  1803               	skipnc
  3207     013E  3E01               	addlw	1
  3208     013F  1903               	skipnz
  3209     0140  2942               	goto	u2813
  3210     0141  07BD               	addwf	___flmul@prod+3,f
  3211     0142                     u2813:
  3212     0142                     l2070:
  3213     0142  3008               	movlw	8
  3214     0143  00AE               	movwf	??___flmul
  3215     0144                     u2825:
  3216     0144  1003               	clrc
  3217     0145  0DB5               	rlf	___flmul@grs,f
  3218     0146  0DB6               	rlf	___flmul@grs+1,f
  3219     0147  0DB7               	rlf	___flmul@grs+2,f
  3220     0148  0DB8               	rlf	___flmul@grs+3,f
  3221     0149  0BAE               	decfsz	??___flmul,f
  3222     014A  2944               	goto	u2825
  3223     014B                     l2072:
  3224     014B  0827               	movf	___flmul@b+1,w
  3225     014C  00F2               	movwf	__Umul8_16@multiplicand
  3226     014D  082A               	movf	___flmul@a,w
  3227     014E  120A  158A  254A  120A  118A  	fcall	__Umul8_16
  3228     0153  0873               	movf	?__Umul8_16+1,w
  3229     0154  1283               	bcf	3,5	;RP0=0, select bank0
  3230     0155  1303               	bcf	3,6	;RP1=0, select bank0
  3231     0156  00BF               	movwf	___flmul@temp+1
  3232     0157  0872               	movf	?__Umul8_16,w
  3233     0158  00BE               	movwf	___flmul@temp
  3234     0159                     l2074:
  3235     0159  083E               	movf	___flmul@temp,w
  3236     015A  00AE               	movwf	??___flmul
  3237     015B  083F               	movf	___flmul@temp+1,w
  3238     015C  00AF               	movwf	??___flmul+1
  3239     015D  01B0               	clrf	??___flmul+2
  3240     015E  01B1               	clrf	??___flmul+3
  3241     015F  082E               	movf	??___flmul,w
  3242     0160  07B5               	addwf	___flmul@grs,f
  3243     0161  082F               	movf	??___flmul+1,w
  3244     0162  1103               	clrz
  3245     0163  1803               	skipnc
  3246     0164  3E01               	addlw	1
  3247     0165  1903               	skipnz
  3248     0166  2968               	goto	u2831
  3249     0167  07B6               	addwf	___flmul@grs+1,f
  3250     0168                     u2831:
  3251     0168  0830               	movf	??___flmul+2,w
  3252     0169  1103               	clrz
  3253     016A  1803               	skipnc
  3254     016B  3E01               	addlw	1
  3255     016C  1903               	skipnz
  3256     016D  296F               	goto	u2832
  3257     016E  07B7               	addwf	___flmul@grs+2,f
  3258     016F                     u2832:
  3259     016F  0831               	movf	??___flmul+3,w
  3260     0170  1103               	clrz
  3261     0171  1803               	skipnc
  3262     0172  3E01               	addlw	1
  3263     0173  1903               	skipnz
  3264     0174  2976               	goto	u2833
  3265     0175  07B8               	addwf	___flmul@grs+3,f
  3266     0176                     u2833:
  3267     0176                     l2076:
  3268     0176  0826               	movf	___flmul@b,w
  3269     0177  00F2               	movwf	__Umul8_16@multiplicand
  3270     0178  082B               	movf	___flmul@a+1,w
  3271     0179  120A  158A  254A  120A  118A  	fcall	__Umul8_16
  3272     017E  0873               	movf	?__Umul8_16+1,w
  3273     017F  1283               	bcf	3,5	;RP0=0, select bank0
  3274     0180  1303               	bcf	3,6	;RP1=0, select bank0
  3275     0181  00BF               	movwf	___flmul@temp+1
  3276     0182  0872               	movf	?__Umul8_16,w
  3277     0183  00BE               	movwf	___flmul@temp
  3278     0184                     l2078:
  3279     0184  083E               	movf	___flmul@temp,w
  3280     0185  00AE               	movwf	??___flmul
  3281     0186  083F               	movf	___flmul@temp+1,w
  3282     0187  00AF               	movwf	??___flmul+1
  3283     0188  01B0               	clrf	??___flmul+2
  3284     0189  01B1               	clrf	??___flmul+3
  3285     018A  082E               	movf	??___flmul,w
  3286     018B  07B5               	addwf	___flmul@grs,f
  3287     018C  082F               	movf	??___flmul+1,w
  3288     018D  1103               	clrz
  3289     018E  1803               	skipnc
  3290     018F  3E01               	addlw	1
  3291     0190  1903               	skipnz
  3292     0191  2993               	goto	u2841
  3293     0192  07B6               	addwf	___flmul@grs+1,f
  3294     0193                     u2841:
  3295     0193  0830               	movf	??___flmul+2,w
  3296     0194  1103               	clrz
  3297     0195  1803               	skipnc
  3298     0196  3E01               	addlw	1
  3299     0197  1903               	skipnz
  3300     0198  299A               	goto	u2842
  3301     0199  07B7               	addwf	___flmul@grs+2,f
  3302     019A                     u2842:
  3303     019A  0831               	movf	??___flmul+3,w
  3304     019B  1103               	clrz
  3305     019C  1803               	skipnc
  3306     019D  3E01               	addlw	1
  3307     019E  1903               	skipnz
  3308     019F  29A1               	goto	u2843
  3309     01A0  07B8               	addwf	___flmul@grs+3,f
  3310     01A1                     u2843:
  3311     01A1                     l2080:
  3312     01A1  3008               	movlw	8
  3313     01A2  00AE               	movwf	??___flmul
  3314     01A3                     u2855:
  3315     01A3  1003               	clrc
  3316     01A4  0DB5               	rlf	___flmul@grs,f
  3317     01A5  0DB6               	rlf	___flmul@grs+1,f
  3318     01A6  0DB7               	rlf	___flmul@grs+2,f
  3319     01A7  0DB8               	rlf	___flmul@grs+3,f
  3320     01A8  0BAE               	decfsz	??___flmul,f
  3321     01A9  29A3               	goto	u2855
  3322     01AA  0826               	movf	___flmul@b,w
  3323     01AB  00F2               	movwf	__Umul8_16@multiplicand
  3324     01AC  082A               	movf	___flmul@a,w
  3325     01AD  120A  158A  254A  120A  118A  	fcall	__Umul8_16
  3326     01B2  0873               	movf	?__Umul8_16+1,w
  3327     01B3  1283               	bcf	3,5	;RP0=0, select bank0
  3328     01B4  1303               	bcf	3,6	;RP1=0, select bank0
  3329     01B5  00BF               	movwf	___flmul@temp+1
  3330     01B6  0872               	movf	?__Umul8_16,w
  3331     01B7  00BE               	movwf	___flmul@temp
  3332     01B8                     l2082:
  3333     01B8  083E               	movf	___flmul@temp,w
  3334     01B9  00AE               	movwf	??___flmul
  3335     01BA  083F               	movf	___flmul@temp+1,w
  3336     01BB  00AF               	movwf	??___flmul+1
  3337     01BC  01B0               	clrf	??___flmul+2
  3338     01BD  01B1               	clrf	??___flmul+3
  3339     01BE  082E               	movf	??___flmul,w
  3340     01BF  07B5               	addwf	___flmul@grs,f
  3341     01C0  082F               	movf	??___flmul+1,w
  3342     01C1  1103               	clrz
  3343     01C2  1803               	skipnc
  3344     01C3  3E01               	addlw	1
  3345     01C4  1903               	skipnz
  3346     01C5  29C7               	goto	u2861
  3347     01C6  07B6               	addwf	___flmul@grs+1,f
  3348     01C7                     u2861:
  3349     01C7  0830               	movf	??___flmul+2,w
  3350     01C8  1103               	clrz
  3351     01C9  1803               	skipnc
  3352     01CA  3E01               	addlw	1
  3353     01CB  1903               	skipnz
  3354     01CC  29CE               	goto	u2862
  3355     01CD  07B7               	addwf	___flmul@grs+2,f
  3356     01CE                     u2862:
  3357     01CE  0831               	movf	??___flmul+3,w
  3358     01CF  1103               	clrz
  3359     01D0  1803               	skipnc
  3360     01D1  3E01               	addlw	1
  3361     01D2  1903               	skipnz
  3362     01D3  29D5               	goto	u2863
  3363     01D4  07B8               	addwf	___flmul@grs+3,f
  3364     01D5                     u2863:
  3365     01D5                     l2084:
  3366     01D5  0827               	movf	___flmul@b+1,w
  3367     01D6  00F2               	movwf	__Umul8_16@multiplicand
  3368     01D7  082C               	movf	___flmul@a+2,w
  3369     01D8  120A  158A  254A  120A  118A  	fcall	__Umul8_16
  3370     01DD  0873               	movf	?__Umul8_16+1,w
  3371     01DE  1283               	bcf	3,5	;RP0=0, select bank0
  3372     01DF  1303               	bcf	3,6	;RP1=0, select bank0
  3373     01E0  00BF               	movwf	___flmul@temp+1
  3374     01E1  0872               	movf	?__Umul8_16,w
  3375     01E2  00BE               	movwf	___flmul@temp
  3376     01E3  083E               	movf	___flmul@temp,w
  3377     01E4  00AE               	movwf	??___flmul
  3378     01E5  083F               	movf	___flmul@temp+1,w
  3379     01E6  00AF               	movwf	??___flmul+1
  3380     01E7  01B0               	clrf	??___flmul+2
  3381     01E8  01B1               	clrf	??___flmul+3
  3382     01E9  082E               	movf	??___flmul,w
  3383     01EA  07BA               	addwf	___flmul@prod,f
  3384     01EB  082F               	movf	??___flmul+1,w
  3385     01EC  1103               	clrz
  3386     01ED  1803               	skipnc
  3387     01EE  3E01               	addlw	1
  3388     01EF  1903               	skipnz
  3389     01F0  29F2               	goto	u2871
  3390     01F1  07BB               	addwf	___flmul@prod+1,f
  3391     01F2                     u2871:
  3392     01F2  0830               	movf	??___flmul+2,w
  3393     01F3  1103               	clrz
  3394     01F4  1803               	skipnc
  3395     01F5  3E01               	addlw	1
  3396     01F6  1903               	skipnz
  3397     01F7  29F9               	goto	u2872
  3398     01F8  07BC               	addwf	___flmul@prod+2,f
  3399     01F9                     u2872:
  3400     01F9  0831               	movf	??___flmul+3,w
  3401     01FA  1103               	clrz
  3402     01FB  1803               	skipnc
  3403     01FC  3E01               	addlw	1
  3404     01FD  1903               	skipnz
  3405     01FE  2A00               	goto	u2873
  3406     01FF  07BD               	addwf	___flmul@prod+3,f
  3407     0200                     u2873:
  3408     0200                     l2086:
  3409     0200  0828               	movf	___flmul@b+2,w
  3410     0201  00F2               	movwf	__Umul8_16@multiplicand
  3411     0202  082B               	movf	___flmul@a+1,w
  3412     0203  120A  158A  254A  120A  118A  	fcall	__Umul8_16
  3413     0208  0873               	movf	?__Umul8_16+1,w
  3414     0209  1283               	bcf	3,5	;RP0=0, select bank0
  3415     020A  1303               	bcf	3,6	;RP1=0, select bank0
  3416     020B  00BF               	movwf	___flmul@temp+1
  3417     020C  0872               	movf	?__Umul8_16,w
  3418     020D  00BE               	movwf	___flmul@temp
  3419     020E                     l2088:
  3420     020E  083E               	movf	___flmul@temp,w
  3421     020F  00AE               	movwf	??___flmul
  3422     0210  083F               	movf	___flmul@temp+1,w
  3423     0211  00AF               	movwf	??___flmul+1
  3424     0212  01B0               	clrf	??___flmul+2
  3425     0213  01B1               	clrf	??___flmul+3
  3426     0214  082E               	movf	??___flmul,w
  3427     0215  07BA               	addwf	___flmul@prod,f
  3428     0216  082F               	movf	??___flmul+1,w
  3429     0217  1103               	clrz
  3430     0218  1803               	skipnc
  3431     0219  3E01               	addlw	1
  3432     021A  1903               	skipnz
  3433     021B  2A1D               	goto	u2881
  3434     021C  07BB               	addwf	___flmul@prod+1,f
  3435     021D                     u2881:
  3436     021D  0830               	movf	??___flmul+2,w
  3437     021E  1103               	clrz
  3438     021F  1803               	skipnc
  3439     0220  3E01               	addlw	1
  3440     0221  1903               	skipnz
  3441     0222  2A24               	goto	u2882
  3442     0223  07BC               	addwf	___flmul@prod+2,f
  3443     0224                     u2882:
  3444     0224  0831               	movf	??___flmul+3,w
  3445     0225  1103               	clrz
  3446     0226  1803               	skipnc
  3447     0227  3E01               	addlw	1
  3448     0228  1903               	skipnz
  3449     0229  2A2B               	goto	u2883
  3450     022A  07BD               	addwf	___flmul@prod+3,f
  3451     022B                     u2883:
  3452     022B  0828               	movf	___flmul@b+2,w
  3453     022C  00F2               	movwf	__Umul8_16@multiplicand
  3454     022D  082C               	movf	___flmul@a+2,w
  3455     022E  120A  158A  254A  120A  118A  	fcall	__Umul8_16
  3456     0233  0873               	movf	?__Umul8_16+1,w
  3457     0234  1283               	bcf	3,5	;RP0=0, select bank0
  3458     0235  1303               	bcf	3,6	;RP1=0, select bank0
  3459     0236  00BF               	movwf	___flmul@temp+1
  3460     0237  0872               	movf	?__Umul8_16,w
  3461     0238  00BE               	movwf	___flmul@temp
  3462     0239                     l2090:
  3463     0239  083E               	movf	___flmul@temp,w
  3464     023A  00AE               	movwf	??___flmul
  3465     023B  083F               	movf	___flmul@temp+1,w
  3466     023C  00AF               	movwf	??___flmul+1
  3467     023D  01B0               	clrf	??___flmul+2
  3468     023E  01B1               	clrf	??___flmul+3
  3469     023F  3008               	movlw	8
  3470     0240                     u2895:
  3471     0240  1003               	clrc
  3472     0241  0DAE               	rlf	??___flmul,f
  3473     0242  0DAF               	rlf	??___flmul+1,f
  3474     0243  0DB0               	rlf	??___flmul+2,f
  3475     0244  0DB1               	rlf	??___flmul+3,f
  3476     0245                     u2890:
  3477     0245  3EFF               	addlw	-1
  3478     0246  1D03               	skipz
  3479     0247  2A40               	goto	u2895
  3480     0248  082E               	movf	??___flmul,w
  3481     0249  07BA               	addwf	___flmul@prod,f
  3482     024A  082F               	movf	??___flmul+1,w
  3483     024B  1103               	clrz
  3484     024C  1803               	skipnc
  3485     024D  3E01               	addlw	1
  3486     024E  1903               	skipnz
  3487     024F  2A51               	goto	u2901
  3488     0250  07BB               	addwf	___flmul@prod+1,f
  3489     0251                     u2901:
  3490     0251  0830               	movf	??___flmul+2,w
  3491     0252  1103               	clrz
  3492     0253  1803               	skipnc
  3493     0254  3E01               	addlw	1
  3494     0255  1903               	skipnz
  3495     0256  2A58               	goto	u2902
  3496     0257  07BC               	addwf	___flmul@prod+2,f
  3497     0258                     u2902:
  3498     0258  0831               	movf	??___flmul+3,w
  3499     0259  1103               	clrz
  3500     025A  1803               	skipnc
  3501     025B  3E01               	addlw	1
  3502     025C  1903               	skipnz
  3503     025D  2A5F               	goto	u2903
  3504     025E  07BD               	addwf	___flmul@prod+3,f
  3505     025F                     u2903:
  3506     025F                     l2092:
  3507     025F  0835               	movf	___flmul@grs,w
  3508     0260  00AE               	movwf	??___flmul
  3509     0261  0836               	movf	___flmul@grs+1,w
  3510     0262  00AF               	movwf	??___flmul+1
  3511     0263  0837               	movf	___flmul@grs+2,w
  3512     0264  00B0               	movwf	??___flmul+2
  3513     0265  0838               	movf	___flmul@grs+3,w
  3514     0266  00B1               	movwf	??___flmul+3
  3515     0267  3018               	movlw	24
  3516     0268                     u2915:
  3517     0268  1003               	clrc
  3518     0269  0CB1               	rrf	??___flmul+3,f
  3519     026A  0CB0               	rrf	??___flmul+2,f
  3520     026B  0CAF               	rrf	??___flmul+1,f
  3521     026C  0CAE               	rrf	??___flmul,f
  3522     026D                     u2910:
  3523     026D  3EFF               	addlw	-1
  3524     026E  1D03               	skipz
  3525     026F  2A68               	goto	u2915
  3526     0270  082E               	movf	??___flmul,w
  3527     0271  07BA               	addwf	___flmul@prod,f
  3528     0272  082F               	movf	??___flmul+1,w
  3529     0273  1103               	clrz
  3530     0274  1803               	skipnc
  3531     0275  3E01               	addlw	1
  3532     0276  1903               	skipnz
  3533     0277  2A79               	goto	u2921
  3534     0278  07BB               	addwf	___flmul@prod+1,f
  3535     0279                     u2921:
  3536     0279  0830               	movf	??___flmul+2,w
  3537     027A  1103               	clrz
  3538     027B  1803               	skipnc
  3539     027C  3E01               	addlw	1
  3540     027D  1903               	skipnz
  3541     027E  2A80               	goto	u2922
  3542     027F  07BC               	addwf	___flmul@prod+2,f
  3543     0280                     u2922:
  3544     0280  0831               	movf	??___flmul+3,w
  3545     0281  1103               	clrz
  3546     0282  1803               	skipnc
  3547     0283  3E01               	addlw	1
  3548     0284  1903               	skipnz
  3549     0285  2A87               	goto	u2923
  3550     0286  07BD               	addwf	___flmul@prod+3,f
  3551     0287                     u2923:
  3552     0287                     l2094:
  3553     0287  3008               	movlw	8
  3554     0288  00AE               	movwf	??___flmul
  3555     0289                     u2935:
  3556     0289  1003               	clrc
  3557     028A  0DB5               	rlf	___flmul@grs,f
  3558     028B  0DB6               	rlf	___flmul@grs+1,f
  3559     028C  0DB7               	rlf	___flmul@grs+2,f
  3560     028D  0DB8               	rlf	___flmul@grs+3,f
  3561     028E  0BAE               	decfsz	??___flmul,f
  3562     028F  2A89               	goto	u2935
  3563     0290                     l2096:
  3564     0290  0839               	movf	___flmul@bexp,w
  3565     0291  0734               	addwf	___flmul@aexp,w
  3566     0292  00AE               	movwf	??___flmul
  3567     0293  01AF               	clrf	??___flmul+1
  3568     0294  0DAF               	rlf	??___flmul+1,f
  3569     0295  082E               	movf	??___flmul,w
  3570     0296  3E82               	addlw	130
  3571     0297  00BE               	movwf	___flmul@temp
  3572     0298  082F               	movf	??___flmul+1,w
  3573     0299  1803               	skipnc
  3574     029A  3E01               	addlw	1
  3575     029B  3EFF               	addlw	255
  3576     029C  00BF               	movwf	___flmul@temp+1
  3577     029D  2ABB               	goto	l2108
  3578     029E                     l2098:
  3579     029E  3001               	movlw	1
  3580     029F  00AE               	movwf	??___flmul
  3581     02A0                     u2945:
  3582     02A0  1003               	clrc
  3583     02A1  0DBA               	rlf	___flmul@prod,f
  3584     02A2  0DBB               	rlf	___flmul@prod+1,f
  3585     02A3  0DBC               	rlf	___flmul@prod+2,f
  3586     02A4  0DBD               	rlf	___flmul@prod+3,f
  3587     02A5  0BAE               	decfsz	??___flmul,f
  3588     02A6  2AA0               	goto	u2945
  3589     02A7                     l2100:
  3590     02A7  1FB8               	btfss	___flmul@grs+3,7
  3591     02A8  2AAA               	goto	u2951
  3592     02A9  2AAB               	goto	u2950
  3593     02AA                     u2951:
  3594     02AA  2AAC               	goto	l2104
  3595     02AB                     u2950:
  3596     02AB                     l2102:
  3597     02AB  143A               	bsf	___flmul@prod,0
  3598     02AC                     l2104:
  3599     02AC  3001               	movlw	1
  3600     02AD  00AE               	movwf	??___flmul
  3601     02AE                     u2965:
  3602     02AE  1003               	clrc
  3603     02AF  0DB5               	rlf	___flmul@grs,f
  3604     02B0  0DB6               	rlf	___flmul@grs+1,f
  3605     02B1  0DB7               	rlf	___flmul@grs+2,f
  3606     02B2  0DB8               	rlf	___flmul@grs+3,f
  3607     02B3  0BAE               	decfsz	??___flmul,f
  3608     02B4  2AAE               	goto	u2965
  3609     02B5                     l2106:
  3610     02B5  30FF               	movlw	255
  3611     02B6  07BE               	addwf	___flmul@temp,f
  3612     02B7  1803               	skipnc
  3613     02B8  0ABF               	incf	___flmul@temp+1,f
  3614     02B9  30FF               	movlw	255
  3615     02BA  07BF               	addwf	___flmul@temp+1,f
  3616     02BB                     l2108:
  3617     02BB  1FBC               	btfss	___flmul@prod+2,7
  3618     02BC  2ABE               	goto	u2971
  3619     02BD  2ABF               	goto	u2970
  3620     02BE                     u2971:
  3621     02BE  2A9E               	goto	l2098
  3622     02BF                     u2970:
  3623     02BF                     l2110:
  3624     02BF  01B4               	clrf	___flmul@aexp
  3625     02C0                     l2112:
  3626     02C0  1FB8               	btfss	___flmul@grs+3,7
  3627     02C1  2AC3               	goto	u2981
  3628     02C2  2AC4               	goto	u2980
  3629     02C3                     u2981:
  3630     02C3  2AE0               	goto	l2120
  3631     02C4                     u2980:
  3632     02C4                     l2114:
  3633     02C4  30FF               	movlw	255
  3634     02C5  0535               	andwf	___flmul@grs,w
  3635     02C6  00AE               	movwf	??___flmul
  3636     02C7  30FF               	movlw	255
  3637     02C8  0536               	andwf	___flmul@grs+1,w
  3638     02C9  00AF               	movwf	??___flmul+1
  3639     02CA  30FF               	movlw	255
  3640     02CB  0537               	andwf	___flmul@grs+2,w
  3641     02CC  00B0               	movwf	??___flmul+2
  3642     02CD  307F               	movlw	127
  3643     02CE  0538               	andwf	___flmul@grs+3,w
  3644     02CF  00B1               	movwf	??___flmul+3
  3645     02D0  0831               	movf	??___flmul+3,w
  3646     02D1  0430               	iorwf	??___flmul+2,w
  3647     02D2  042F               	iorwf	??___flmul+1,w
  3648     02D3  042E               	iorwf	??___flmul,w
  3649     02D4  1903               	skipnz
  3650     02D5  2AD7               	goto	u2991
  3651     02D6  2AD8               	goto	u2990
  3652     02D7                     u2991:
  3653     02D7  2ADB               	goto	l663
  3654     02D8                     u2990:
  3655     02D8                     l2116:
  3656     02D8  01B4               	clrf	___flmul@aexp
  3657     02D9  0AB4               	incf	___flmul@aexp,f
  3658     02DA  2AE0               	goto	l2120
  3659     02DB                     l663:
  3660     02DB  1C3A               	btfss	___flmul@prod,0
  3661     02DC  2ADE               	goto	u3001
  3662     02DD  2ADF               	goto	u3000
  3663     02DE                     u3001:
  3664     02DE  2AE0               	goto	l2120
  3665     02DF                     u3000:
  3666     02DF  2AD8               	goto	l2116
  3667     02E0                     l2120:
  3668     02E0  0834               	movf	___flmul@aexp,w
  3669     02E1  1903               	btfsc	3,2
  3670     02E2  2AE4               	goto	u3011
  3671     02E3  2AE5               	goto	u3010
  3672     02E4                     u3011:
  3673     02E4  2B16               	goto	l2130
  3674     02E5                     u3010:
  3675     02E5                     l2122:
  3676     02E5  3001               	movlw	1
  3677     02E6  07BA               	addwf	___flmul@prod,f
  3678     02E7  3000               	movlw	0
  3679     02E8  1803               	skipnc
  3680     02E9  3001               	movlw	1
  3681     02EA  07BB               	addwf	___flmul@prod+1,f
  3682     02EB  3000               	movlw	0
  3683     02EC  1803               	skipnc
  3684     02ED  3001               	movlw	1
  3685     02EE  07BC               	addwf	___flmul@prod+2,f
  3686     02EF  3000               	movlw	0
  3687     02F0  1803               	skipnc
  3688     02F1  3001               	movlw	1
  3689     02F2  07BD               	addwf	___flmul@prod+3,f
  3690     02F3                     l2124:
  3691     02F3  1C3D               	btfss	___flmul@prod+3,0
  3692     02F4  2AF6               	goto	u3021
  3693     02F5  2AF7               	goto	u3020
  3694     02F6                     u3021:
  3695     02F6  2B16               	goto	l2130
  3696     02F7                     u3020:
  3697     02F7                     l2126:
  3698     02F7  083A               	movf	___flmul@prod,w
  3699     02F8  00AE               	movwf	??___flmul
  3700     02F9  083B               	movf	___flmul@prod+1,w
  3701     02FA  00AF               	movwf	??___flmul+1
  3702     02FB  083C               	movf	___flmul@prod+2,w
  3703     02FC  00B0               	movwf	??___flmul+2
  3704     02FD  083D               	movf	___flmul@prod+3,w
  3705     02FE  00B1               	movwf	??___flmul+3
  3706     02FF  3001               	movlw	1
  3707     0300  00B2               	movwf	??___flmul+4
  3708     0301                     u3035:
  3709     0301  0D31               	rlf	??___flmul+3,w
  3710     0302  0CB1               	rrf	??___flmul+3,f
  3711     0303  0CB0               	rrf	??___flmul+2,f
  3712     0304  0CAF               	rrf	??___flmul+1,f
  3713     0305  0CAE               	rrf	??___flmul,f
  3714     0306                     u3030:
  3715     0306  0BB2               	decfsz	??___flmul+4,f
  3716     0307  2B01               	goto	u3035
  3717     0308  0831               	movf	??___flmul+3,w
  3718     0309  00BD               	movwf	___flmul@prod+3
  3719     030A  0830               	movf	??___flmul+2,w
  3720     030B  00BC               	movwf	___flmul@prod+2
  3721     030C  082F               	movf	??___flmul+1,w
  3722     030D  00BB               	movwf	___flmul@prod+1
  3723     030E  082E               	movf	??___flmul,w
  3724     030F  00BA               	movwf	___flmul@prod
  3725     0310                     l2128:
  3726     0310  3001               	movlw	1
  3727     0311  07BE               	addwf	___flmul@temp,f
  3728     0312  1803               	skipnc
  3729     0313  0ABF               	incf	___flmul@temp+1,f
  3730     0314  3000               	movlw	0
  3731     0315  07BF               	addwf	___flmul@temp+1,f
  3732     0316                     l2130:
  3733     0316  083F               	movf	___flmul@temp+1,w
  3734     0317  3A80               	xorlw	128
  3735     0318  00FF               	movwf	btemp+1
  3736     0319  3080               	movlw	128
  3737     031A  027F               	subwf	btemp+1,w
  3738     031B  1D03               	skipz
  3739     031C  2B1F               	goto	u3045
  3740     031D  30FF               	movlw	255
  3741     031E  023E               	subwf	___flmul@temp,w
  3742     031F                     u3045:
  3743     031F  1C03               	skipc
  3744     0320  2B22               	goto	u3041
  3745     0321  2B23               	goto	u3040
  3746     0322                     u3041:
  3747     0322  2B2E               	goto	l2134
  3748     0323                     u3040:
  3749     0323                     l2132:
  3750     0323  307F               	movlw	127
  3751     0324  1283               	bcf	3,5	;RP0=0, select bank0
  3752     0325  1303               	bcf	3,6	;RP1=0, select bank0
  3753     0326  00BD               	movwf	___flmul@prod+3
  3754     0327  3080               	movlw	128
  3755     0328  00BC               	movwf	___flmul@prod+2
  3756     0329  3000               	movlw	0
  3757     032A  00BB               	movwf	___flmul@prod+1
  3758     032B  3000               	movlw	0
  3759     032C  00BA               	movwf	___flmul@prod
  3760     032D  2B5F               	goto	l669
  3761     032E                     l2134:
  3762     032E  1283               	bcf	3,5	;RP0=0, select bank0
  3763     032F  1303               	bcf	3,6	;RP1=0, select bank0
  3764     0330  083F               	movf	___flmul@temp+1,w
  3765     0331  3A80               	xorlw	128
  3766     0332  00FF               	movwf	btemp+1
  3767     0333  3080               	movlw	128
  3768     0334  027F               	subwf	btemp+1,w
  3769     0335  1D03               	skipz
  3770     0336  2B39               	goto	u3055
  3771     0337  3001               	movlw	1
  3772     0338  023E               	subwf	___flmul@temp,w
  3773     0339                     u3055:
  3774     0339  1803               	skipnc
  3775     033A  2B3C               	goto	u3051
  3776     033B  2B3D               	goto	u3050
  3777     033C                     u3051:
  3778     033C  2B49               	goto	l2140
  3779     033D                     u3050:
  3780     033D                     l2136:
  3781     033D  3000               	movlw	0
  3782     033E  1283               	bcf	3,5	;RP0=0, select bank0
  3783     033F  1303               	bcf	3,6	;RP1=0, select bank0
  3784     0340  00BD               	movwf	___flmul@prod+3
  3785     0341  3000               	movlw	0
  3786     0342  00BC               	movwf	___flmul@prod+2
  3787     0343  3000               	movlw	0
  3788     0344  00BB               	movwf	___flmul@prod+1
  3789     0345  3000               	movlw	0
  3790     0346  00BA               	movwf	___flmul@prod
  3791     0347                     l2138:
  3792     0347  01B3               	clrf	___flmul@sign
  3793     0348  2B5F               	goto	l669
  3794     0349                     l2140:
  3795     0349  1283               	bcf	3,5	;RP0=0, select bank0
  3796     034A  1303               	bcf	3,6	;RP1=0, select bank0
  3797     034B  083E               	movf	___flmul@temp,w
  3798     034C  00B9               	movwf	___flmul@bexp
  3799     034D  30FF               	movlw	255
  3800     034E  05BA               	andwf	___flmul@prod,f
  3801     034F  30FF               	movlw	255
  3802     0350  05BB               	andwf	___flmul@prod+1,f
  3803     0351  307F               	movlw	127
  3804     0352  05BC               	andwf	___flmul@prod+2,f
  3805     0353  3000               	movlw	0
  3806     0354  05BD               	andwf	___flmul@prod+3,f
  3807     0355                     l2142:
  3808     0355  1C39               	btfss	___flmul@bexp,0
  3809     0356  2B58               	goto	u3061
  3810     0357  2B59               	goto	u3060
  3811     0358                     u3061:
  3812     0358  2B5A               	goto	l2146
  3813     0359                     u3060:
  3814     0359                     l2144:
  3815     0359  17BC               	bsf	___flmul@prod+2,7
  3816     035A                     l2146:
  3817     035A  0839               	movf	___flmul@bexp,w
  3818     035B  00AE               	movwf	??___flmul
  3819     035C  1003               	clrc
  3820     035D  0C2E               	rrf	??___flmul,w
  3821     035E  00BD               	movwf	___flmul@prod+3
  3822     035F                     l669:
  3823     035F  0833               	movf	___flmul@sign,w
  3824     0360  00AE               	movwf	??___flmul
  3825     0361  082E               	movf	??___flmul,w
  3826     0362  04BD               	iorwf	___flmul@prod+3,f
  3827     0363                     l2148:
  3828     0363  083D               	movf	___flmul@prod+3,w
  3829     0364  00A9               	movwf	?___flmul+3
  3830     0365  083C               	movf	___flmul@prod+2,w
  3831     0366  00A8               	movwf	?___flmul+2
  3832     0367  083B               	movf	___flmul@prod+1,w
  3833     0368  00A7               	movwf	?___flmul+1
  3834     0369  083A               	movf	___flmul@prod,w
  3835     036A  00A6               	movwf	?___flmul
  3836     036B                     l657:
  3837     036B  0008               	return
  3838     036C                     __end_of___flmul:
  3839                           
  3840                           	psect	text15
  3841     0D4A                     __ptext15:	
  3842 ;; *************** function __Umul8_16 *****************
  3843 ;; Defined at:
  3844 ;;		line 4 in file "C:\Program Files\Microchip\xc8\v2.40\pic\sources\c90\common\Umul8_16.c"
  3845 ;; Parameters:    Size  Location     Type
  3846 ;;  multiplier      1    wreg     unsigned char 
  3847 ;;  multiplicand    1    2[COMMON] unsigned char 
  3848 ;; Auto vars:     Size  Location     Type
  3849 ;;  multiplier      1    4[BANK0 ] unsigned char 
  3850 ;;  word_mpld       2    2[BANK0 ] unsigned int 
  3851 ;;  product         2    0[BANK0 ] unsigned int 
  3852 ;; Return value:  Size  Location     Type
  3853 ;;                  2    2[COMMON] unsigned int 
  3854 ;; Registers used:
  3855 ;;		wreg, status,2, status,0
  3856 ;; Tracked objects:
  3857 ;;		On entry : 0/0
  3858 ;;		On exit  : 0/0
  3859 ;;		Unchanged: 0/0
  3860 ;; Data sizes:     COMMON   BANK0   BANK1   BANK3   BANK2
  3861 ;;      Params:         2       0       0       0       0
  3862 ;;      Locals:         0       5       0       0       0
  3863 ;;      Temps:          2       0       0       0       0
  3864 ;;      Totals:         4       5       0       0       0
  3865 ;;Total ram usage:        9 bytes
  3866 ;; Hardware stack levels used: 1
  3867 ;; Hardware stack levels required when called: 1
  3868 ;; This function calls:
  3869 ;;		Nothing
  3870 ;; This function is called by:
  3871 ;;		___flmul
  3872 ;; This function uses a non-reentrant model
  3873 ;;
  3874                           
  3875     0D4A                     __Umul8_16:	
  3876                           ;psect for function __Umul8_16
  3877                           
  3878                           
  3879                           ;incstack = 0
  3880                           ; Regs used in __Umul8_16: [wreg+status,2+status,0]
  3881                           ;__Umul8_16@multiplier stored from wreg
  3882     0D4A  1283               	bcf	3,5	;RP0=0, select bank0
  3883     0D4B  1303               	bcf	3,6	;RP1=0, select bank0
  3884     0D4C  00A4               	movwf	__Umul8_16@multiplier
  3885     0D4D                     l1998:
  3886     0D4D  01A0               	clrf	__Umul8_16@product
  3887     0D4E  01A1               	clrf	__Umul8_16@product+1
  3888     0D4F                     l2000:
  3889     0D4F  0872               	movf	__Umul8_16@multiplicand,w
  3890     0D50  00F4               	movwf	??__Umul8_16
  3891     0D51  01F5               	clrf	??__Umul8_16+1
  3892     0D52  0874               	movf	??__Umul8_16,w
  3893     0D53  00A2               	movwf	__Umul8_16@word_mpld
  3894     0D54  0875               	movf	??__Umul8_16+1,w
  3895     0D55  00A3               	movwf	__Umul8_16@word_mpld+1
  3896     0D56                     l2002:
  3897     0D56  1C24               	btfss	__Umul8_16@multiplier,0
  3898     0D57  2D59               	goto	u2671
  3899     0D58  2D5A               	goto	u2670
  3900     0D59                     u2671:
  3901     0D59  2D60               	goto	l676
  3902     0D5A                     u2670:
  3903     0D5A                     l2004:
  3904     0D5A  0822               	movf	__Umul8_16@word_mpld,w
  3905     0D5B  07A0               	addwf	__Umul8_16@product,f
  3906     0D5C  1803               	skipnc
  3907     0D5D  0AA1               	incf	__Umul8_16@product+1,f
  3908     0D5E  0823               	movf	__Umul8_16@word_mpld+1,w
  3909     0D5F  07A1               	addwf	__Umul8_16@product+1,f
  3910     0D60                     l676:
  3911     0D60  3001               	movlw	1
  3912     0D61                     u2685:
  3913     0D61  1003               	clrc
  3914     0D62  0DA2               	rlf	__Umul8_16@word_mpld,f
  3915     0D63  0DA3               	rlf	__Umul8_16@word_mpld+1,f
  3916     0D64  3EFF               	addlw	-1
  3917     0D65  1D03               	skipz
  3918     0D66  2D61               	goto	u2685
  3919     0D67  1003               	clrc
  3920     0D68  0CA4               	rrf	__Umul8_16@multiplier,f
  3921     0D69                     l2006:
  3922     0D69  0824               	movf	__Umul8_16@multiplier,w
  3923     0D6A  1D03               	btfss	3,2
  3924     0D6B  2D6D               	goto	u2691
  3925     0D6C  2D6E               	goto	u2690
  3926     0D6D                     u2691:
  3927     0D6D  2D56               	goto	l2002
  3928     0D6E                     u2690:
  3929     0D6E                     l2008:
  3930     0D6E  0821               	movf	__Umul8_16@product+1,w
  3931     0D6F  00F3               	movwf	?__Umul8_16+1
  3932     0D70  0820               	movf	__Umul8_16@product,w
  3933     0D71  00F2               	movwf	?__Umul8_16
  3934     0D72                     l678:
  3935     0D72  0008               	return
  3936     0D73                     __end_of__Umul8_16:
  3937                           
  3938                           	psect	text16
  3939     036C                     __ptext16:	
  3940 ;; *************** function ___fladd *****************
  3941 ;; Defined at:
  3942 ;;		line 10 in file "C:\Program Files\Microchip\xc8\v2.40\pic\sources\c90\common\sprcadd.c"
  3943 ;; Parameters:    Size  Location     Type
  3944 ;;  b               4   32[BANK0 ] unsigned int 
  3945 ;;  a               4   36[BANK0 ] unsigned int 
  3946 ;; Auto vars:     Size  Location     Type
  3947 ;;  grs             1   51[BANK0 ] unsigned char 
  3948 ;;  bexp            1   50[BANK0 ] unsigned char 
  3949 ;;  aexp            1   49[BANK0 ] unsigned char 
  3950 ;;  signs           1   48[BANK0 ] unsigned char 
  3951 ;; Return value:  Size  Location     Type
  3952 ;;                  4   32[BANK0 ] unsigned char 
  3953 ;; Registers used:
  3954 ;;		wreg, status,2, status,0, btemp+1
  3955 ;; Tracked objects:
  3956 ;;		On entry : 0/0
  3957 ;;		On exit  : 0/0
  3958 ;;		Unchanged: 0/0
  3959 ;; Data sizes:     COMMON   BANK0   BANK1   BANK3   BANK2
  3960 ;;      Params:         0       8       0       0       0
  3961 ;;      Locals:         0       4       0       0       0
  3962 ;;      Temps:          0       8       0       0       0
  3963 ;;      Totals:         0      20       0       0       0
  3964 ;;Total ram usage:       20 bytes
  3965 ;; Hardware stack levels used: 1
  3966 ;; Hardware stack levels required when called: 1
  3967 ;; This function calls:
  3968 ;;		Nothing
  3969 ;; This function is called by:
  3970 ;;		_PWMtmr0
  3971 ;;		_PWMtmr1
  3972 ;;		_mapeo
  3973 ;; This function uses a non-reentrant model
  3974 ;;
  3975                           
  3976     036C                     ___fladd:	
  3977                           ;psect for function ___fladd
  3978                           
  3979     036C                     l1436:	
  3980                           ;incstack = 0
  3981                           ; Regs used in ___fladd: [wreg+status,2+status,0+btemp+1]
  3982                           
  3983     036C  1283               	bcf	3,5	;RP0=0, select bank0
  3984     036D  1303               	bcf	3,6	;RP1=0, select bank0
  3985     036E  0843               	movf	___fladd@b+3,w
  3986     036F  3980               	andlw	128
  3987     0370  00D0               	movwf	___fladd@signs
  3988     0371                     l1438:
  3989     0371  0843               	movf	___fladd@b+3,w
  3990     0372  00C8               	movwf	??___fladd
  3991     0373  0748               	addwf	??___fladd,w
  3992     0374  00D2               	movwf	___fladd@bexp
  3993     0375                     l1440:
  3994     0375  1FC2               	btfss	___fladd@b+2,7
  3995     0376  2B78               	goto	u1471
  3996     0377  2B79               	goto	u1470
  3997     0378                     u1471:
  3998     0378  2B7A               	goto	l1444
  3999     0379                     u1470:
  4000     0379                     l1442:
  4001     0379  1452               	bsf	___fladd@bexp,0
  4002     037A                     l1444:
  4003     037A  0852               	movf	___fladd@bexp,w
  4004     037B  1903               	btfsc	3,2
  4005     037C  2B7E               	goto	u1481
  4006     037D  2B7F               	goto	u1480
  4007     037E                     u1481:
  4008     037E  2B8F               	goto	l1454
  4009     037F                     u1480:
  4010     037F                     l1446:
  4011     037F  0A52               	incf	___fladd@bexp,w
  4012     0380  1D03               	btfss	3,2
  4013     0381  2B83               	goto	u1491
  4014     0382  2B84               	goto	u1490
  4015     0383                     u1491:
  4016     0383  2B8C               	goto	l1450
  4017     0384                     u1490:
  4018     0384                     l1448:
  4019     0384  3000               	movlw	0
  4020     0385  00C3               	movwf	___fladd@b+3
  4021     0386  3000               	movlw	0
  4022     0387  00C2               	movwf	___fladd@b+2
  4023     0388  3000               	movlw	0
  4024     0389  00C1               	movwf	___fladd@b+1
  4025     038A  3000               	movlw	0
  4026     038B  00C0               	movwf	___fladd@b
  4027     038C                     l1450:
  4028     038C  17C2               	bsf	___fladd@b+2,7
  4029     038D                     l1452:
  4030     038D  01C3               	clrf	___fladd@b+3
  4031     038E  2B97               	goto	l1456
  4032     038F                     l1454:
  4033     038F  3000               	movlw	0
  4034     0390  00C3               	movwf	___fladd@b+3
  4035     0391  3000               	movlw	0
  4036     0392  00C2               	movwf	___fladd@b+2
  4037     0393  3000               	movlw	0
  4038     0394  00C1               	movwf	___fladd@b+1
  4039     0395  3000               	movlw	0
  4040     0396  00C0               	movwf	___fladd@b
  4041     0397                     l1456:
  4042     0397  0847               	movf	___fladd@a+3,w
  4043     0398  3980               	andlw	128
  4044     0399  00D1               	movwf	___fladd@aexp
  4045     039A                     l1458:
  4046     039A  0851               	movf	___fladd@aexp,w
  4047     039B  0650               	xorwf	___fladd@signs,w
  4048     039C  1903               	skipnz
  4049     039D  2B9F               	goto	u1501
  4050     039E  2BA0               	goto	u1500
  4051     039F                     u1501:
  4052     039F  2BA1               	goto	l1462
  4053     03A0                     u1500:
  4054     03A0                     l1460:
  4055     03A0  1750               	bsf	___fladd@signs,6
  4056     03A1                     l1462:
  4057     03A1  0847               	movf	___fladd@a+3,w
  4058     03A2  00C8               	movwf	??___fladd
  4059     03A3  0748               	addwf	??___fladd,w
  4060     03A4  00D1               	movwf	___fladd@aexp
  4061     03A5                     l1464:
  4062     03A5  1FC6               	btfss	___fladd@a+2,7
  4063     03A6  2BA8               	goto	u1511
  4064     03A7  2BA9               	goto	u1510
  4065     03A8                     u1511:
  4066     03A8  2BAA               	goto	l1468
  4067     03A9                     u1510:
  4068     03A9                     l1466:
  4069     03A9  1451               	bsf	___fladd@aexp,0
  4070     03AA                     l1468:
  4071     03AA  0851               	movf	___fladd@aexp,w
  4072     03AB  1903               	btfsc	3,2
  4073     03AC  2BAE               	goto	u1521
  4074     03AD  2BAF               	goto	u1520
  4075     03AE                     u1521:
  4076     03AE  2BBF               	goto	l1478
  4077     03AF                     u1520:
  4078     03AF                     l1470:
  4079     03AF  0A51               	incf	___fladd@aexp,w
  4080     03B0  1D03               	btfss	3,2
  4081     03B1  2BB3               	goto	u1531
  4082     03B2  2BB4               	goto	u1530
  4083     03B3                     u1531:
  4084     03B3  2BBC               	goto	l1474
  4085     03B4                     u1530:
  4086     03B4                     l1472:
  4087     03B4  3000               	movlw	0
  4088     03B5  00C7               	movwf	___fladd@a+3
  4089     03B6  3000               	movlw	0
  4090     03B7  00C6               	movwf	___fladd@a+2
  4091     03B8  3000               	movlw	0
  4092     03B9  00C5               	movwf	___fladd@a+1
  4093     03BA  3000               	movlw	0
  4094     03BB  00C4               	movwf	___fladd@a
  4095     03BC                     l1474:
  4096     03BC  17C6               	bsf	___fladd@a+2,7
  4097     03BD                     l1476:
  4098     03BD  01C7               	clrf	___fladd@a+3
  4099     03BE  2BC7               	goto	l561
  4100     03BF                     l1478:
  4101     03BF  3000               	movlw	0
  4102     03C0  00C7               	movwf	___fladd@a+3
  4103     03C1  3000               	movlw	0
  4104     03C2  00C6               	movwf	___fladd@a+2
  4105     03C3  3000               	movlw	0
  4106     03C4  00C5               	movwf	___fladd@a+1
  4107     03C5  3000               	movlw	0
  4108     03C6  00C4               	movwf	___fladd@a
  4109     03C7                     l561:
  4110     03C7  0852               	movf	___fladd@bexp,w
  4111     03C8  0251               	subwf	___fladd@aexp,w
  4112     03C9  1803               	skipnc
  4113     03CA  2BCC               	goto	u1541
  4114     03CB  2BCD               	goto	u1540
  4115     03CC                     u1541:
  4116     03CC  2BF3               	goto	l1514
  4117     03CD                     u1540:
  4118     03CD                     l1480:
  4119     03CD  1F50               	btfss	___fladd@signs,6
  4120     03CE  2BD0               	goto	u1551
  4121     03CF  2BD1               	goto	u1550
  4122     03D0                     u1551:
  4123     03D0  2BD5               	goto	l1484
  4124     03D1                     u1550:
  4125     03D1                     l1482:
  4126     03D1  3080               	movlw	128
  4127     03D2  00C8               	movwf	??___fladd
  4128     03D3  0848               	movf	??___fladd,w
  4129     03D4  06D0               	xorwf	___fladd@signs,f
  4130     03D5                     l1484:
  4131     03D5  0852               	movf	___fladd@bexp,w
  4132     03D6  00D3               	movwf	___fladd@grs
  4133     03D7                     l1486:
  4134     03D7  0851               	movf	___fladd@aexp,w
  4135     03D8  00D2               	movwf	___fladd@bexp
  4136     03D9                     l1488:
  4137     03D9  0853               	movf	___fladd@grs,w
  4138     03DA  00D1               	movwf	___fladd@aexp
  4139     03DB                     l1490:
  4140     03DB  0840               	movf	___fladd@b,w
  4141     03DC  00D3               	movwf	___fladd@grs
  4142     03DD                     l1492:
  4143     03DD  0844               	movf	___fladd@a,w
  4144     03DE  00C0               	movwf	___fladd@b
  4145     03DF                     l1494:
  4146     03DF  0853               	movf	___fladd@grs,w
  4147     03E0  00C4               	movwf	___fladd@a
  4148     03E1                     l1496:
  4149     03E1  0841               	movf	___fladd@b+1,w
  4150     03E2  00D3               	movwf	___fladd@grs
  4151     03E3                     l1498:
  4152     03E3  0845               	movf	___fladd@a+1,w
  4153     03E4  00C1               	movwf	___fladd@b+1
  4154     03E5                     l1500:
  4155     03E5  0853               	movf	___fladd@grs,w
  4156     03E6  00C5               	movwf	___fladd@a+1
  4157     03E7                     l1502:
  4158     03E7  0842               	movf	___fladd@b+2,w
  4159     03E8  00D3               	movwf	___fladd@grs
  4160     03E9                     l1504:
  4161     03E9  0846               	movf	___fladd@a+2,w
  4162     03EA  00C2               	movwf	___fladd@b+2
  4163     03EB                     l1506:
  4164     03EB  0853               	movf	___fladd@grs,w
  4165     03EC  00C6               	movwf	___fladd@a+2
  4166     03ED                     l1508:
  4167     03ED  0843               	movf	___fladd@b+3,w
  4168     03EE  00D3               	movwf	___fladd@grs
  4169     03EF                     l1510:
  4170     03EF  0847               	movf	___fladd@a+3,w
  4171     03F0  00C3               	movwf	___fladd@b+3
  4172     03F1                     l1512:
  4173     03F1  0853               	movf	___fladd@grs,w
  4174     03F2  00C7               	movwf	___fladd@a+3
  4175     03F3                     l1514:
  4176     03F3  01D3               	clrf	___fladd@grs
  4177     03F4                     l1516:
  4178     03F4  0851               	movf	___fladd@aexp,w
  4179     03F5  00C8               	movwf	??___fladd
  4180     03F6  01C9               	clrf	??___fladd+1
  4181     03F7  0849               	movf	??___fladd+1,w
  4182     03F8  00CB               	movwf	??___fladd+3
  4183     03F9  0852               	movf	___fladd@bexp,w
  4184     03FA  0248               	subwf	??___fladd,w
  4185     03FB  00CA               	movwf	??___fladd+2
  4186     03FC  1C03               	skipc
  4187     03FD  03CB               	decf	??___fladd+3,f
  4188     03FE  084B               	movf	??___fladd+3,w
  4189     03FF  3A80               	xorlw	128
  4190     0400  00FF               	movwf	btemp+1
  4191     0401  3080               	movlw	128
  4192     0402  027F               	subwf	btemp+1,w
  4193     0403  1D03               	skipz
  4194     0404  2C07               	goto	u1565
  4195     0405  301A               	movlw	26
  4196     0406  024A               	subwf	??___fladd+2,w
  4197     0407                     u1565:
  4198     0407  1C03               	skipc
  4199     0408  2C0A               	goto	u1561
  4200     0409  2C0B               	goto	u1560
  4201     040A                     u1561:
  4202     040A  2C42               	goto	l1532
  4203     040B                     u1560:
  4204     040B                     l1518:
  4205     040B  1283               	bcf	3,5	;RP0=0, select bank0
  4206     040C  1303               	bcf	3,6	;RP1=0, select bank0
  4207     040D  0843               	movf	___fladd@b+3,w
  4208     040E  0442               	iorwf	___fladd@b+2,w
  4209     040F  0441               	iorwf	___fladd@b+1,w
  4210     0410  0440               	iorwf	___fladd@b,w
  4211     0411  1D03               	skipz
  4212     0412  2C14               	goto	u1571
  4213     0413  2C16               	goto	u1570
  4214     0414                     u1571:
  4215     0414  3001               	movlw	1
  4216     0415  2C17               	goto	u1580
  4217     0416                     u1570:
  4218     0416  3000               	movlw	0
  4219     0417                     u1580:
  4220     0417  00D3               	movwf	___fladd@grs
  4221     0418  3000               	movlw	0
  4222     0419  00C3               	movwf	___fladd@b+3
  4223     041A  3000               	movlw	0
  4224     041B  00C2               	movwf	___fladd@b+2
  4225     041C  3000               	movlw	0
  4226     041D  00C1               	movwf	___fladd@b+1
  4227     041E  3000               	movlw	0
  4228     041F  00C0               	movwf	___fladd@b
  4229     0420  0851               	movf	___fladd@aexp,w
  4230     0421  00D2               	movwf	___fladd@bexp
  4231     0422  2C4A               	goto	l565
  4232     0423                     l567:
  4233     0423  1C53               	btfss	___fladd@grs,0
  4234     0424  2C26               	goto	u1591
  4235     0425  2C27               	goto	u1590
  4236     0426                     u1591:
  4237     0426  2C2E               	goto	l1522
  4238     0427                     u1590:
  4239     0427                     l1520:
  4240     0427  0853               	movf	___fladd@grs,w
  4241     0428  00C8               	movwf	??___fladd
  4242     0429  1003               	clrc
  4243     042A  0C48               	rrf	??___fladd,w
  4244     042B  3801               	iorlw	1
  4245     042C  00D3               	movwf	___fladd@grs
  4246     042D  2C30               	goto	l1524
  4247     042E                     l1522:
  4248     042E  1003               	clrc
  4249     042F  0CD3               	rrf	___fladd@grs,f
  4250     0430                     l1524:
  4251     0430  1C40               	btfss	___fladd@b,0
  4252     0431  2C33               	goto	u1601
  4253     0432  2C34               	goto	u1600
  4254     0433                     u1601:
  4255     0433  2C35               	goto	l1528
  4256     0434                     u1600:
  4257     0434                     l1526:
  4258     0434  17D3               	bsf	___fladd@grs,7
  4259     0435                     l1528:
  4260     0435  3001               	movlw	1
  4261     0436  00C8               	movwf	??___fladd
  4262     0437                     u1615:
  4263     0437  0D43               	rlf	___fladd@b+3,w
  4264     0438  0CC3               	rrf	___fladd@b+3,f
  4265     0439  0CC2               	rrf	___fladd@b+2,f
  4266     043A  0CC1               	rrf	___fladd@b+1,f
  4267     043B  0CC0               	rrf	___fladd@b,f
  4268     043C  0BC8               	decfsz	??___fladd& (0+127),f
  4269     043D  2C37               	goto	u1615
  4270     043E                     l1530:
  4271     043E  3001               	movlw	1
  4272     043F  00C8               	movwf	??___fladd
  4273     0440  0848               	movf	??___fladd,w
  4274     0441  07D2               	addwf	___fladd@bexp,f
  4275     0442                     l1532:
  4276     0442  1283               	bcf	3,5	;RP0=0, select bank0
  4277     0443  1303               	bcf	3,6	;RP1=0, select bank0
  4278     0444  0851               	movf	___fladd@aexp,w
  4279     0445  0252               	subwf	___fladd@bexp,w
  4280     0446  1C03               	skipc
  4281     0447  2C49               	goto	u1621
  4282     0448  2C4A               	goto	u1620
  4283     0449                     u1621:
  4284     0449  2C23               	goto	l567
  4285     044A                     u1620:
  4286     044A                     l565:
  4287     044A  1B50               	btfsc	___fladd@signs,6
  4288     044B  2C4D               	goto	u1631
  4289     044C  2C4E               	goto	u1630
  4290     044D                     u1631:
  4291     044D  2C97               	goto	l1558
  4292     044E                     u1630:
  4293     044E                     l1534:
  4294     044E  0852               	movf	___fladd@bexp,w
  4295     044F  1D03               	btfss	3,2
  4296     0450  2C52               	goto	u1641
  4297     0451  2C53               	goto	u1640
  4298     0452                     u1641:
  4299     0452  2C5C               	goto	l1540
  4300     0453                     u1640:
  4301     0453                     l1536:
  4302     0453  3000               	movlw	0
  4303     0454  00C3               	movwf	?___fladd+3
  4304     0455  3000               	movlw	0
  4305     0456  00C2               	movwf	?___fladd+2
  4306     0457  3000               	movlw	0
  4307     0458  00C1               	movwf	?___fladd+1
  4308     0459  3000               	movlw	0
  4309     045A  00C0               	movwf	?___fladd
  4310     045B  2DC3               	goto	l574
  4311     045C                     l1540:
  4312     045C  0844               	movf	___fladd@a,w
  4313     045D  07C0               	addwf	___fladd@b,f
  4314     045E  0845               	movf	___fladd@a+1,w
  4315     045F  1103               	clrz
  4316     0460  1803               	skipnc
  4317     0461  3E01               	addlw	1
  4318     0462  1903               	skipnz
  4319     0463  2C65               	goto	u1651
  4320     0464  07C1               	addwf	___fladd@b+1,f
  4321     0465                     u1651:
  4322     0465  0846               	movf	___fladd@a+2,w
  4323     0466  1103               	clrz
  4324     0467  1803               	skipnc
  4325     0468  3E01               	addlw	1
  4326     0469  1903               	skipnz
  4327     046A  2C6C               	goto	u1652
  4328     046B  07C2               	addwf	___fladd@b+2,f
  4329     046C                     u1652:
  4330     046C  0847               	movf	___fladd@a+3,w
  4331     046D  1103               	clrz
  4332     046E  1803               	skipnc
  4333     046F  3E01               	addlw	1
  4334     0470  1903               	skipnz
  4335     0471  2C73               	goto	u1653
  4336     0472  07C3               	addwf	___fladd@b+3,f
  4337     0473                     u1653:
  4338     0473                     l1542:
  4339     0473  1C43               	btfss	___fladd@b+3,0
  4340     0474  2C76               	goto	u1661
  4341     0475  2C77               	goto	u1660
  4342     0476                     u1661:
  4343     0476  2D4B               	goto	l1592
  4344     0477                     u1660:
  4345     0477                     l1544:
  4346     0477  1C53               	btfss	___fladd@grs,0
  4347     0478  2C7A               	goto	u1671
  4348     0479  2C7B               	goto	u1670
  4349     047A                     u1671:
  4350     047A  2C82               	goto	l1548
  4351     047B                     u1670:
  4352     047B                     l1546:
  4353     047B  0853               	movf	___fladd@grs,w
  4354     047C  00C8               	movwf	??___fladd
  4355     047D  1003               	clrc
  4356     047E  0C48               	rrf	??___fladd,w
  4357     047F  3801               	iorlw	1
  4358     0480  00D3               	movwf	___fladd@grs
  4359     0481  2C84               	goto	l1550
  4360     0482                     l1548:
  4361     0482  1003               	clrc
  4362     0483  0CD3               	rrf	___fladd@grs,f
  4363     0484                     l1550:
  4364     0484  1C40               	btfss	___fladd@b,0
  4365     0485  2C87               	goto	u1681
  4366     0486  2C88               	goto	u1680
  4367     0487                     u1681:
  4368     0487  2C89               	goto	l1554
  4369     0488                     u1680:
  4370     0488                     l1552:
  4371     0488  17D3               	bsf	___fladd@grs,7
  4372     0489                     l1554:
  4373     0489  3001               	movlw	1
  4374     048A  00C8               	movwf	??___fladd
  4375     048B                     u1695:
  4376     048B  0D43               	rlf	___fladd@b+3,w
  4377     048C  0CC3               	rrf	___fladd@b+3,f
  4378     048D  0CC2               	rrf	___fladd@b+2,f
  4379     048E  0CC1               	rrf	___fladd@b+1,f
  4380     048F  0CC0               	rrf	___fladd@b,f
  4381     0490  0BC8               	decfsz	??___fladd& (0+127),f
  4382     0491  2C8B               	goto	u1695
  4383     0492                     l1556:
  4384     0492  3001               	movlw	1
  4385     0493  00C8               	movwf	??___fladd
  4386     0494  0848               	movf	??___fladd,w
  4387     0495  07D2               	addwf	___fladd@bexp,f
  4388     0496  2D4B               	goto	l1592
  4389     0497                     l1558:
  4390     0497  0843               	movf	___fladd@b+3,w
  4391     0498  3A80               	xorlw	128
  4392     0499  00FF               	movwf	btemp+1
  4393     049A  0847               	movf	___fladd@a+3,w
  4394     049B  3A80               	xorlw	128
  4395     049C  027F               	subwf	btemp+1,w
  4396     049D  1D03               	skipz
  4397     049E  2CA9               	goto	u1703
  4398     049F  0846               	movf	___fladd@a+2,w
  4399     04A0  0242               	subwf	___fladd@b+2,w
  4400     04A1  1D03               	skipz
  4401     04A2  2CA9               	goto	u1703
  4402     04A3  0845               	movf	___fladd@a+1,w
  4403     04A4  0241               	subwf	___fladd@b+1,w
  4404     04A5  1D03               	skipz
  4405     04A6  2CA9               	goto	u1703
  4406     04A7  0844               	movf	___fladd@a,w
  4407     04A8  0240               	subwf	___fladd@b,w
  4408     04A9                     u1703:
  4409     04A9  1803               	skipnc
  4410     04AA  2CAC               	goto	u1701
  4411     04AB  2CAD               	goto	u1700
  4412     04AC                     u1701:
  4413     04AC  2D05               	goto	l1568
  4414     04AD                     u1700:
  4415     04AD                     l1560:
  4416     04AD  30FF               	movlw	255
  4417     04AE  00C8               	movwf	??___fladd
  4418     04AF  30FF               	movlw	255
  4419     04B0  00C9               	movwf	??___fladd+1
  4420     04B1  30FF               	movlw	255
  4421     04B2  00CA               	movwf	??___fladd+2
  4422     04B3  30FF               	movlw	255
  4423     04B4  00CB               	movwf	??___fladd+3
  4424     04B5  0844               	movf	___fladd@a,w
  4425     04B6  00CC               	movwf	??___fladd+4
  4426     04B7  0845               	movf	___fladd@a+1,w
  4427     04B8  00CD               	movwf	??___fladd+5
  4428     04B9  0846               	movf	___fladd@a+2,w
  4429     04BA  00CE               	movwf	??___fladd+6
  4430     04BB  0847               	movf	___fladd@a+3,w
  4431     04BC  00CF               	movwf	??___fladd+7
  4432     04BD  0840               	movf	___fladd@b,w
  4433     04BE  02CC               	subwf	??___fladd+4,f
  4434     04BF  0841               	movf	___fladd@b+1,w
  4435     04C0  1C03               	skipc
  4436     04C1  0F41               	incfsz	___fladd@b+1,w
  4437     04C2  2CC4               	goto	u1711
  4438     04C3  2CC5               	goto	u1712
  4439     04C4                     u1711:
  4440     04C4  02CD               	subwf	??___fladd+5,f
  4441     04C5                     u1712:
  4442     04C5  0842               	movf	___fladd@b+2,w
  4443     04C6  1C03               	skipc
  4444     04C7  0F42               	incfsz	___fladd@b+2,w
  4445     04C8  2CCA               	goto	u1713
  4446     04C9  2CCB               	goto	u1714
  4447     04CA                     u1713:
  4448     04CA  02CE               	subwf	??___fladd+6,f
  4449     04CB                     u1714:
  4450     04CB  0843               	movf	___fladd@b+3,w
  4451     04CC  1C03               	skipc
  4452     04CD  0F43               	incfsz	___fladd@b+3,w
  4453     04CE  2CD0               	goto	u1715
  4454     04CF  2CD1               	goto	u1716
  4455     04D0                     u1715:
  4456     04D0  02CF               	subwf	??___fladd+7,f
  4457     04D1                     u1716:
  4458     04D1  084C               	movf	??___fladd+4,w
  4459     04D2  07C8               	addwf	??___fladd,f
  4460     04D3  084D               	movf	??___fladd+5,w
  4461     04D4  1803               	skipnc
  4462     04D5  0F4D               	incfsz	??___fladd+5,w
  4463     04D6  2CD8               	goto	u1720
  4464     04D7  2CD9               	goto	u1721
  4465     04D8                     u1720:
  4466     04D8  07C9               	addwf	??___fladd+1,f
  4467     04D9                     u1721:
  4468     04D9  084E               	movf	??___fladd+6,w
  4469     04DA  1803               	skipnc
  4470     04DB  0F4E               	incfsz	??___fladd+6,w
  4471     04DC  2CDE               	goto	u1722
  4472     04DD  2CDF               	goto	u1723
  4473     04DE                     u1722:
  4474     04DE  07CA               	addwf	??___fladd+2,f
  4475     04DF                     u1723:
  4476     04DF  084F               	movf	??___fladd+7,w
  4477     04E0  1803               	skipnc
  4478     04E1  0A4F               	incf	??___fladd+7,w
  4479     04E2  07CB               	addwf	??___fladd+3,f
  4480     04E3  084B               	movf	??___fladd+3,w
  4481     04E4  00C3               	movwf	___fladd@b+3
  4482     04E5  084A               	movf	??___fladd+2,w
  4483     04E6  00C2               	movwf	___fladd@b+2
  4484     04E7  0849               	movf	??___fladd+1,w
  4485     04E8  00C1               	movwf	___fladd@b+1
  4486     04E9  0848               	movf	??___fladd,w
  4487     04EA  00C0               	movwf	___fladd@b
  4488     04EB                     l1562:
  4489     04EB  3080               	movlw	128
  4490     04EC  00C8               	movwf	??___fladd
  4491     04ED  0848               	movf	??___fladd,w
  4492     04EE  06D0               	xorwf	___fladd@signs,f
  4493     04EF  09D3               	comf	___fladd@grs,f
  4494     04F0  0AD3               	incf	___fladd@grs,f
  4495     04F1                     l1564:
  4496     04F1  0853               	movf	___fladd@grs,w
  4497     04F2  1D03               	btfss	3,2
  4498     04F3  2CF5               	goto	u1731
  4499     04F4  2CF6               	goto	u1730
  4500     04F5                     u1731:
  4501     04F5  2D13               	goto	l582
  4502     04F6                     u1730:
  4503     04F6                     l1566:
  4504     04F6  3001               	movlw	1
  4505     04F7  07C0               	addwf	___fladd@b,f
  4506     04F8  3000               	movlw	0
  4507     04F9  1803               	skipnc
  4508     04FA  3001               	movlw	1
  4509     04FB  07C1               	addwf	___fladd@b+1,f
  4510     04FC  3000               	movlw	0
  4511     04FD  1803               	skipnc
  4512     04FE  3001               	movlw	1
  4513     04FF  07C2               	addwf	___fladd@b+2,f
  4514     0500  3000               	movlw	0
  4515     0501  1803               	skipnc
  4516     0502  3001               	movlw	1
  4517     0503  07C3               	addwf	___fladd@b+3,f
  4518     0504  2D13               	goto	l582
  4519     0505                     l1568:
  4520     0505  0844               	movf	___fladd@a,w
  4521     0506  02C0               	subwf	___fladd@b,f
  4522     0507  0845               	movf	___fladd@a+1,w
  4523     0508  1C03               	skipc
  4524     0509  0F45               	incfsz	___fladd@a+1,w
  4525     050A  02C1               	subwf	___fladd@b+1,f
  4526     050B  0846               	movf	___fladd@a+2,w
  4527     050C  1C03               	skipc
  4528     050D  0F46               	incfsz	___fladd@a+2,w
  4529     050E  02C2               	subwf	___fladd@b+2,f
  4530     050F  0847               	movf	___fladd@a+3,w
  4531     0510  1C03               	skipc
  4532     0511  0F47               	incfsz	___fladd@a+3,w
  4533     0512  02C3               	subwf	___fladd@b+3,f
  4534     0513                     l582:
  4535     0513  0843               	movf	___fladd@b+3,w
  4536     0514  0442               	iorwf	___fladd@b+2,w
  4537     0515  0441               	iorwf	___fladd@b+1,w
  4538     0516  0440               	iorwf	___fladd@b,w
  4539     0517  1D03               	skipz
  4540     0518  2D1A               	goto	u1741
  4541     0519  2D1B               	goto	u1740
  4542     051A                     u1741:
  4543     051A  2D47               	goto	l1590
  4544     051B                     u1740:
  4545     051B                     l1570:
  4546     051B  0853               	movf	___fladd@grs,w
  4547     051C  1D03               	btfss	3,2
  4548     051D  2D1F               	goto	u1751
  4549     051E  2D20               	goto	u1750
  4550     051F                     u1751:
  4551     051F  2D47               	goto	l1590
  4552     0520                     u1750:
  4553     0520                     l1572:
  4554     0520  3000               	movlw	0
  4555     0521  00C3               	movwf	?___fladd+3
  4556     0522  3000               	movlw	0
  4557     0523  00C2               	movwf	?___fladd+2
  4558     0524  3000               	movlw	0
  4559     0525  00C1               	movwf	?___fladd+1
  4560     0526  3000               	movlw	0
  4561     0527  00C0               	movwf	?___fladd
  4562     0528  2DC3               	goto	l574
  4563     0529                     l1576:
  4564     0529  3001               	movlw	1
  4565     052A  00C8               	movwf	??___fladd
  4566     052B                     u1765:
  4567     052B  1003               	clrc
  4568     052C  0DC0               	rlf	___fladd@b,f
  4569     052D  0DC1               	rlf	___fladd@b+1,f
  4570     052E  0DC2               	rlf	___fladd@b+2,f
  4571     052F  0DC3               	rlf	___fladd@b+3,f
  4572     0530  0BC8               	decfsz	??___fladd,f
  4573     0531  2D2B               	goto	u1765
  4574     0532                     l1578:
  4575     0532  1FD3               	btfss	___fladd@grs,7
  4576     0533  2D35               	goto	u1771
  4577     0534  2D36               	goto	u1770
  4578     0535                     u1771:
  4579     0535  2D37               	goto	l586
  4580     0536                     u1770:
  4581     0536                     l1580:
  4582     0536  1440               	bsf	___fladd@b,0
  4583     0537                     l586:
  4584     0537  1C53               	btfss	___fladd@grs,0
  4585     0538  2D3A               	goto	u1781
  4586     0539  2D3B               	goto	u1780
  4587     053A                     u1781:
  4588     053A  2D3E               	goto	l1584
  4589     053B                     u1780:
  4590     053B                     l1582:
  4591     053B  1403               	setc
  4592     053C  0DD3               	rlf	___fladd@grs,f
  4593     053D  2D40               	goto	l1586
  4594     053E                     l1584:
  4595     053E  1003               	clrc
  4596     053F  0DD3               	rlf	___fladd@grs,f
  4597     0540                     l1586:
  4598     0540  0852               	movf	___fladd@bexp,w
  4599     0541  1903               	btfsc	3,2
  4600     0542  2D44               	goto	u1791
  4601     0543  2D45               	goto	u1790
  4602     0544                     u1791:
  4603     0544  2D47               	goto	l1590
  4604     0545                     u1790:
  4605     0545                     l1588:
  4606     0545  3001               	movlw	1
  4607     0546  02D2               	subwf	___fladd@bexp,f
  4608     0547                     l1590:
  4609     0547  1FC2               	btfss	___fladd@b+2,7
  4610     0548  2D4A               	goto	u1801
  4611     0549  2D4B               	goto	u1800
  4612     054A                     u1801:
  4613     054A  2D29               	goto	l1576
  4614     054B                     u1800:
  4615     054B                     l1592:
  4616     054B  01D1               	clrf	___fladd@aexp
  4617     054C                     l1594:
  4618     054C  1FD3               	btfss	___fladd@grs,7
  4619     054D  2D4F               	goto	u1811
  4620     054E  2D50               	goto	u1810
  4621     054F                     u1811:
  4622     054F  2D5E               	goto	l1602
  4623     0550                     u1810:
  4624     0550                     l1596:
  4625     0550  0853               	movf	___fladd@grs,w
  4626     0551  397F               	andlw	127
  4627     0552  1903               	btfsc	3,2
  4628     0553  2D55               	goto	u1821
  4629     0554  2D56               	goto	u1820
  4630     0555                     u1821:
  4631     0555  2D59               	goto	l592
  4632     0556                     u1820:
  4633     0556                     l1598:
  4634     0556  01D1               	clrf	___fladd@aexp
  4635     0557  0AD1               	incf	___fladd@aexp,f
  4636     0558  2D5E               	goto	l1602
  4637     0559                     l592:
  4638     0559  1C40               	btfss	___fladd@b,0
  4639     055A  2D5C               	goto	u1831
  4640     055B  2D5D               	goto	u1830
  4641     055C                     u1831:
  4642     055C  2D5E               	goto	l1602
  4643     055D                     u1830:
  4644     055D  2D56               	goto	l1598
  4645     055E                     l1602:
  4646     055E  0851               	movf	___fladd@aexp,w
  4647     055F  1903               	btfsc	3,2
  4648     0560  2D62               	goto	u1841
  4649     0561  2D63               	goto	u1840
  4650     0562                     u1841:
  4651     0562  2D97               	goto	l595
  4652     0563                     u1840:
  4653     0563                     l1604:
  4654     0563  3001               	movlw	1
  4655     0564  07C0               	addwf	___fladd@b,f
  4656     0565  3000               	movlw	0
  4657     0566  1803               	skipnc
  4658     0567  3001               	movlw	1
  4659     0568  07C1               	addwf	___fladd@b+1,f
  4660     0569  3000               	movlw	0
  4661     056A  1803               	skipnc
  4662     056B  3001               	movlw	1
  4663     056C  07C2               	addwf	___fladd@b+2,f
  4664     056D  3000               	movlw	0
  4665     056E  1803               	skipnc
  4666     056F  3001               	movlw	1
  4667     0570  07C3               	addwf	___fladd@b+3,f
  4668     0571                     l1606:
  4669     0571  1C43               	btfss	___fladd@b+3,0
  4670     0572  2D74               	goto	u1851
  4671     0573  2D75               	goto	u1850
  4672     0574                     u1851:
  4673     0574  2D97               	goto	l595
  4674     0575                     u1850:
  4675     0575                     l1608:
  4676     0575  0840               	movf	___fladd@b,w
  4677     0576  00C8               	movwf	??___fladd
  4678     0577  0841               	movf	___fladd@b+1,w
  4679     0578  00C9               	movwf	??___fladd+1
  4680     0579  0842               	movf	___fladd@b+2,w
  4681     057A  00CA               	movwf	??___fladd+2
  4682     057B  0843               	movf	___fladd@b+3,w
  4683     057C  00CB               	movwf	??___fladd+3
  4684     057D  3001               	movlw	1
  4685     057E  00CC               	movwf	??___fladd+4
  4686     057F                     u1865:
  4687     057F  0D4B               	rlf	??___fladd+3,w
  4688     0580  0CCB               	rrf	??___fladd+3,f
  4689     0581  0CCA               	rrf	??___fladd+2,f
  4690     0582  0CC9               	rrf	??___fladd+1,f
  4691     0583  0CC8               	rrf	??___fladd,f
  4692     0584                     u1860:
  4693     0584  0BCC               	decfsz	??___fladd+4,f
  4694     0585  2D7F               	goto	u1865
  4695     0586  084B               	movf	??___fladd+3,w
  4696     0587  00C3               	movwf	___fladd@b+3
  4697     0588  084A               	movf	??___fladd+2,w
  4698     0589  00C2               	movwf	___fladd@b+2
  4699     058A  0849               	movf	??___fladd+1,w
  4700     058B  00C1               	movwf	___fladd@b+1
  4701     058C  0848               	movf	??___fladd,w
  4702     058D  00C0               	movwf	___fladd@b
  4703     058E  0A52               	incf	___fladd@bexp,w
  4704     058F  1903               	btfsc	3,2
  4705     0590  2D92               	goto	u1871
  4706     0591  2D93               	goto	u1870
  4707     0592                     u1871:
  4708     0592  2D97               	goto	l595
  4709     0593                     u1870:
  4710     0593                     l1610:
  4711     0593  3001               	movlw	1
  4712     0594  00C8               	movwf	??___fladd
  4713     0595  0848               	movf	??___fladd,w
  4714     0596  07D2               	addwf	___fladd@bexp,f
  4715     0597                     l595:
  4716     0597  0A52               	incf	___fladd@bexp,w
  4717     0598  1903               	btfsc	3,2
  4718     0599  2D9B               	goto	u1881
  4719     059A  2D9C               	goto	u1880
  4720     059B                     u1881:
  4721     059B  2DA1               	goto	l1614
  4722     059C                     u1880:
  4723     059C                     l1612:
  4724     059C  0852               	movf	___fladd@bexp,w
  4725     059D  1D03               	btfss	3,2
  4726     059E  2DA0               	goto	u1891
  4727     059F  2DA1               	goto	u1890
  4728     05A0                     u1891:
  4729     05A0  2DAF               	goto	l1620
  4730     05A1                     u1890:
  4731     05A1                     l1614:
  4732     05A1  3000               	movlw	0
  4733     05A2  00C3               	movwf	___fladd@b+3
  4734     05A3  3000               	movlw	0
  4735     05A4  00C2               	movwf	___fladd@b+2
  4736     05A5  3000               	movlw	0
  4737     05A6  00C1               	movwf	___fladd@b+1
  4738     05A7  3000               	movlw	0
  4739     05A8  00C0               	movwf	___fladd@b
  4740     05A9                     l1616:
  4741     05A9  0852               	movf	___fladd@bexp,w
  4742     05AA  1D03               	btfss	3,2
  4743     05AB  2DAD               	goto	u1901
  4744     05AC  2DAE               	goto	u1900
  4745     05AD                     u1901:
  4746     05AD  2DAF               	goto	l1620
  4747     05AE                     u1900:
  4748     05AE                     l1618:
  4749     05AE  01D0               	clrf	___fladd@signs
  4750     05AF                     l1620:
  4751     05AF  1C52               	btfss	___fladd@bexp,0
  4752     05B0  2DB2               	goto	u1911
  4753     05B1  2DB3               	goto	u1910
  4754     05B2                     u1911:
  4755     05B2  2DB5               	goto	l1624
  4756     05B3                     u1910:
  4757     05B3                     l1622:
  4758     05B3  17C2               	bsf	___fladd@b+2,7
  4759     05B4  2DB9               	goto	l603
  4760     05B5                     l1624:
  4761     05B5  307F               	movlw	127
  4762     05B6  00C8               	movwf	??___fladd
  4763     05B7  0848               	movf	??___fladd,w
  4764     05B8  05C2               	andwf	___fladd@b+2,f
  4765     05B9                     l603:
  4766     05B9  0852               	movf	___fladd@bexp,w
  4767     05BA  00C8               	movwf	??___fladd
  4768     05BB  1003               	clrc
  4769     05BC  0C48               	rrf	??___fladd,w
  4770     05BD  00C3               	movwf	___fladd@b+3
  4771     05BE                     l1626:
  4772     05BE  1FD0               	btfss	___fladd@signs,7
  4773     05BF  2DC1               	goto	u1921
  4774     05C0  2DC2               	goto	u1920
  4775     05C1                     u1921:
  4776     05C1  2DC3               	goto	l604
  4777     05C2                     u1920:
  4778     05C2                     l1628:
  4779     05C2  17C3               	bsf	___fladd@b+3,7
  4780     05C3                     l604:
  4781     05C3                     l574:
  4782     05C3  0008               	return
  4783     05C4                     __end_of___fladd:
  4784                           
  4785                           	psect	text17
  4786     0DE6                     __ptext17:	
  4787 ;; *************** function _isr *****************
  4788 ;; Defined at:
  4789 ;;		line 69 in file "main.c"
  4790 ;; Parameters:    Size  Location     Type
  4791 ;;		None
  4792 ;; Auto vars:     Size  Location     Type
  4793 ;;		None
  4794 ;; Return value:  Size  Location     Type
  4795 ;;                  1    wreg      void 
  4796 ;; Registers used:
  4797 ;;		wreg, status,2
  4798 ;; Tracked objects:
  4799 ;;		On entry : 0/0
  4800 ;;		On exit  : 0/0
  4801 ;;		Unchanged: 0/0
  4802 ;; Data sizes:     COMMON   BANK0   BANK1   BANK3   BANK2
  4803 ;;      Params:         0       0       0       0       0
  4804 ;;      Locals:         0       0       0       0       0
  4805 ;;      Temps:          2       0       0       0       0
  4806 ;;      Totals:         2       0       0       0       0
  4807 ;;Total ram usage:        2 bytes
  4808 ;; Hardware stack levels used: 1
  4809 ;; This function calls:
  4810 ;;		Nothing
  4811 ;; This function is called by:
  4812 ;;		Interrupt level 1
  4813 ;; This function uses a non-reentrant model
  4814 ;;
  4815                           
  4816     0DE6                     _isr:	
  4817                           ;psect for function _isr
  4818                           
  4819     0DE6                     i1l1946:
  4820                           
  4821                           ;main.c: 70:     if (INTCONbits.T0IF){
  4822     0DE6  1D0B               	btfss	11,2	;volatile
  4823     0DE7  2DE9               	goto	u263_21
  4824     0DE8  2DEA               	goto	u263_20
  4825     0DE9                     u263_21:
  4826     0DE9  2E00               	goto	i1l1960
  4827     0DEA                     u263_20:
  4828     0DEA                     i1l1948:
  4829                           
  4830                           ;main.c: 72:         if (PORTCbits.RC3){
  4831     0DEA  1283               	bcf	3,5	;RP0=0, select bank0
  4832     0DEB  1303               	bcf	3,6	;RP1=0, select bank0
  4833     0DEC  1D87               	btfss	7,3	;volatile
  4834     0DED  2DEF               	goto	u264_21
  4835     0DEE  2DF0               	goto	u264_20
  4836     0DEF                     u264_21:
  4837     0DEF  2DF8               	goto	i1l1954
  4838     0DF0                     u264_20:
  4839     0DF0                     i1l1950:
  4840                           
  4841                           ;main.c: 74:             TMR0 = 255-HIGHpulse;
  4842     0DF0  1683               	bsf	3,5	;RP0=1, select bank1
  4843     0DF1  1303               	bcf	3,6	;RP1=0, select bank1
  4844     0DF2  0924               	comf	_HIGHpulse^(0+128),w
  4845     0DF3  1283               	bcf	3,5	;RP0=0, select bank0
  4846     0DF4  1303               	bcf	3,6	;RP1=0, select bank0
  4847     0DF5  0081               	movwf	1	;volatile
  4848     0DF6                     i1l1952:
  4849                           
  4850                           ;main.c: 75:             PORTCbits.RC3 = 0;
  4851     0DF6  1187               	bcf	7,3	;volatile
  4852                           
  4853                           ;main.c: 76:         }
  4854     0DF7  2DFF               	goto	i1l1958
  4855     0DF8                     i1l1954:
  4856                           
  4857                           ;main.c: 79:             TMR0 = HIGHpulse;
  4858     0DF8  1683               	bsf	3,5	;RP0=1, select bank1
  4859     0DF9  1303               	bcf	3,6	;RP1=0, select bank1
  4860     0DFA  0824               	movf	_HIGHpulse^(0+128),w
  4861     0DFB  1283               	bcf	3,5	;RP0=0, select bank0
  4862     0DFC  1303               	bcf	3,6	;RP1=0, select bank0
  4863     0DFD  0081               	movwf	1	;volatile
  4864     0DFE                     i1l1956:
  4865                           
  4866                           ;main.c: 80:             PORTCbits.RC3 = 1;
  4867     0DFE  1587               	bsf	7,3	;volatile
  4868     0DFF                     i1l1958:
  4869                           
  4870                           ;main.c: 83:         INTCONbits.T0IF = 0;
  4871     0DFF  110B               	bcf	11,2	;volatile
  4872     0E00                     i1l1960:
  4873                           
  4874                           ;main.c: 85:     if (PIR1bits.TMR1IF){
  4875     0E00  1283               	bcf	3,5	;RP0=0, select bank0
  4876     0E01  1303               	bcf	3,6	;RP1=0, select bank0
  4877     0E02  1C0C               	btfss	12,0	;volatile
  4878     0E03  2E05               	goto	u265_21
  4879     0E04  2E06               	goto	u265_20
  4880     0E05                     u265_21:
  4881     0E05  2E1E               	goto	i1l113
  4882     0E06                     u265_20:
  4883     0E06                     i1l1962:
  4884                           
  4885                           ;main.c: 87:         if (PORTCbits.RC0){
  4886     0E06  1C07               	btfss	7,0	;volatile
  4887     0E07  2E09               	goto	u266_21
  4888     0E08  2E0A               	goto	u266_20
  4889     0E09                     u266_21:
  4890     0E09  2E18               	goto	i1l1968
  4891     0E0A                     u266_20:
  4892     0E0A                     i1l1964:
  4893                           
  4894                           ;main.c: 89:             TMR1H = tmr1high;
  4895     0E0A  1683               	bsf	3,5	;RP0=1, select bank1
  4896     0E0B  1303               	bcf	3,6	;RP1=0, select bank1
  4897     0E0C  0822               	movf	_tmr1high^(0+128),w
  4898     0E0D  1283               	bcf	3,5	;RP0=0, select bank0
  4899     0E0E  1303               	bcf	3,6	;RP1=0, select bank0
  4900     0E0F  008F               	movwf	15	;volatile
  4901                           
  4902                           ;main.c: 90:             TMR1L = tmr1low;
  4903     0E10  1683               	bsf	3,5	;RP0=1, select bank1
  4904     0E11  1303               	bcf	3,6	;RP1=0, select bank1
  4905     0E12  0820               	movf	_tmr1low^(0+128),w
  4906     0E13  1283               	bcf	3,5	;RP0=0, select bank0
  4907     0E14  1303               	bcf	3,6	;RP1=0, select bank0
  4908     0E15  008E               	movwf	14	;volatile
  4909     0E16                     i1l1966:
  4910                           
  4911                           ;main.c: 91:             PORTCbits.RC0 = 0;
  4912     0E16  1007               	bcf	7,0	;volatile
  4913                           
  4914                           ;main.c: 92:         }
  4915     0E17  2E1D               	goto	i1l1974
  4916     0E18                     i1l1968:
  4917                           
  4918                           ;main.c: 95:             TMR1H = (HIGHpulse1&0xFF00) >> 8;
  4919     0E18  087B               	movf	_HIGHpulse1+1,w
  4920     0E19  008F               	movwf	15	;volatile
  4921     0E1A                     i1l1970:
  4922                           
  4923                           ;main.c: 96:             TMR1L = HIGHpulse1&0x00FF;
  4924     0E1A  087A               	movf	_HIGHpulse1,w
  4925     0E1B  008E               	movwf	14	;volatile
  4926     0E1C                     i1l1972:
  4927                           
  4928                           ;main.c: 97:             PORTCbits.RC0 = 1;
  4929     0E1C  1407               	bsf	7,0	;volatile
  4930     0E1D                     i1l1974:
  4931                           
  4932                           ;main.c: 100:         PIR1bits.TMR1IF = 0;
  4933     0E1D  100C               	bcf	12,0	;volatile
  4934     0E1E                     i1l113:
  4935     0E1E  0871               	movf	??_isr+1,w
  4936     0E1F  008A               	movwf	10
  4937     0E20  0E70               	swapf	??_isr,w
  4938     0E21  0083               	movwf	3
  4939     0E22  0EFE               	swapf	btemp,f
  4940     0E23  0E7E               	swapf	btemp,w
  4941     0E24  0009               	retfie
  4942     0E25                     __end_of_isr:
  4943     007E                     btemp	set	126	;btemp
  4944     007E                     wtemp0	set	126
  4945                           
  4946                           	psect	intentry
  4947     0004                     __pintentry:	
  4948                           ;incstack = 0
  4949                           ; Regs used in _isr: [wreg+status,2]
  4950                           
  4951     0004                     interrupt_function:
  4952     007E                     saved_w	set	btemp
  4953     0004  00FE               	movwf	btemp
  4954     0005  0E03               	swapf	3,w
  4955     0006  00F0               	movwf	??_isr
  4956     0007  080A               	movf	10,w
  4957     0008  00F1               	movwf	??_isr+1
  4958     0009  120A  158A  2DE6   	ljmp	_isr
  4959                           
  4960                           	psect	idloc
  4961                           
  4962                           ;Config register IDLOC0 @ 0x2000
  4963                           ;	unspecified, using default values
  4964     2000                     	org	8192
  4965     2000  3FFF               	dw	16383
  4966                           
  4967                           ;Config register IDLOC1 @ 0x2001
  4968                           ;	unspecified, using default values
  4969     2001                     	org	8193
  4970     2001  3FFF               	dw	16383
  4971                           
  4972                           ;Config register IDLOC2 @ 0x2002
  4973                           ;	unspecified, using default values
  4974     2002                     	org	8194
  4975     2002  3FFF               	dw	16383
  4976                           
  4977                           ;Config register IDLOC3 @ 0x2003
  4978                           ;	unspecified, using default values
  4979     2003                     	org	8195
  4980     2003  3FFF               	dw	16383
  4981                           
  4982                           	psect	config
  4983                           
  4984                           ;Config register CONFIG1 @ 0x2007
  4985                           ;	Oscillator Selection bits
  4986                           ;	FOSC = INTRC_NOCLKOUT, INTOSCIO oscillator: I/O function on RA6/OSC2/CLKOUT pin, I/O f
      +                          unction on RA7/OSC1/CLKIN
  4987                           ;	Watchdog Timer Enable bit
  4988                           ;	WDTE = OFF, WDT disabled and can be enabled by SWDTEN bit of the WDTCON register
  4989                           ;	Power-up Timer Enable bit
  4990                           ;	PWRTE = OFF, PWRT disabled
  4991                           ;	RE3/MCLR pin function select bit
  4992                           ;	MCLRE = OFF, RE3/MCLR pin function is digital input, MCLR internally tied to VDD
  4993                           ;	Code Protection bit
  4994                           ;	CP = OFF, Program memory code protection is disabled
  4995                           ;	Data Code Protection bit
  4996                           ;	CPD = OFF, Data memory code protection is disabled
  4997                           ;	Brown Out Reset Selection bits
  4998                           ;	BOREN = OFF, BOR disabled
  4999                           ;	Internal External Switchover bit
  5000                           ;	IESO = OFF, Internal/External Switchover mode is disabled
  5001                           ;	Fail-Safe Clock Monitor Enabled bit
  5002                           ;	FCMEN = OFF, Fail-Safe Clock Monitor is disabled
  5003                           ;	Low Voltage Programming Enable bit
  5004                           ;	LVP = OFF, RB3 pin has digital I/O, HV on MCLR must be used for programming
  5005                           ;	In-Circuit Debugger Mode bit
  5006                           ;	DEBUG = 0x1, unprogramme  5007     2007                     	org	8199
  5008     2007  20D4               	dw	8404
  5009                           
  5010                           ;Config register CONFIG2 @ 0x2008
  5011                           ;	Brown-out Reset Selection bit
  5012                           ;	BOR4V = BOR40V, Brown-out Reset set to 4.0V
  5013                           ;	Flash Program Memory Self Write Enable bits
  5014                           ;	WRT = OFF, Write protection off
  5015     2008                     	org	8200
  5016     2008  3FFF               	dw	16383

Data Sizes:
    Strings     0
    Constant    0
    Data        0
    BSS         16
    Persistent  0
    Stack       0

Auto Spaces:
    Space          Size  Autos    Used
    COMMON           14     10      12
    BANK0            80     74      80
    BANK1            80      1       9
    BANK3            96      0       0
    BANK2            96      0       0

Pointer List with Targets:

    None.

Critical Paths under _main in COMMON

    _mapeo->___xxtofl
    _PWMtmr1->___xxtofl
    _PWMtmr0->___xxtofl
    ___fltol->___xxtofl
    ___flmul->___xxtofl
    ___fladd->___xxtofl

Critical Paths under _isr in COMMON

    None.

Critical Paths under _main in BANK0

    _main->_modomanual
    _modomanual->_PWMtmr1
    _mapeo->___fltol
    _PWMtmr1->___fltol
    _PWMtmr0->___fltol
    ___fltol->___fladd
    ___flmul->___xxtofl
    ___fladd->___flmul

Critical Paths under _isr in BANK0

    None.

Critical Paths under _main in BANK1

    None.

Critical Paths under _isr in BANK1

    None.

Critical Paths under _main in BANK3

    None.

Critical Paths under _isr in BANK3

    None.

Critical Paths under _main in BANK2

    None.

Critical Paths under _isr in BANK2

    None.

Call Graph Tables:

 ---------------------------------------------------------------------------------
 (Depth) Function   	        Calls       Base Space   Used Autos Params    Refs
 ---------------------------------------------------------------------------------
 (0) _main                                                 1     1      0   22034
                                              0 BANK1      1     1      0
                         _modomanual
                              _setup
                        _setupINTOSC
                          _setupTMR0
                          _setupTMR1
                          _setup_ADC
                         _setup_PWM1
                         _setup_PWM2
 ---------------------------------------------------------------------------------
 (1) _setup_PWM2                                           0     0      0       0
 ---------------------------------------------------------------------------------
 (1) _setup_PWM1                                           0     0      0       0
 ---------------------------------------------------------------------------------
 (1) _setup_ADC                                            1     1      0       0
                                              2 COMMON     1     1      0
 ---------------------------------------------------------------------------------
 (1) _setupTMR1                                            0     0      0       0
 ---------------------------------------------------------------------------------
 (1) _setupTMR0                                            0     0      0       0
 ---------------------------------------------------------------------------------
 (1) _setupINTOSC                                          1     1      0     176
                                              2 COMMON     1     1      0
 ---------------------------------------------------------------------------------
 (1) _setup                                                0     0      0       0
 ---------------------------------------------------------------------------------
 (1) _modomanual                                           3     3      0   21858
                                             71 BANK0      3     3      0
                            _PWMtmr0
                            _PWMtmr1
                              _mapeo
 ---------------------------------------------------------------------------------
 (2) _mapeo                                                5     5      0    7286
                                             62 BANK0      5     5      0
                            ___fladd
                            ___flmul
                            ___fltol
                           ___xxtofl
 ---------------------------------------------------------------------------------
 (2) _PWMtmr1                                              9     9      0    7286
                                             62 BANK0      9     9      0
                            ___fladd
                            ___flmul
                            ___fltol
                           ___xxtofl
 ---------------------------------------------------------------------------------
 (2) _PWMtmr0                                              5     5      0    7286
                                             62 BANK0      5     5      0
                            ___fladd
                            ___flmul
                            ___fltol
                           ___xxtofl
 ---------------------------------------------------------------------------------
 (3) ___xxtofl                                            14    10      4     550
                                              2 COMMON     8     4      4
                                              0 BANK0      6     6      0
 ---------------------------------------------------------------------------------
 (3) ___fltol                                             10     6      4     457
                                             52 BANK0     10     6      4
                            ___fladd (ARG)
                            ___flmul (ARG)
                           ___xxtofl (ARG)
 ---------------------------------------------------------------------------------
 (3) ___flmul                                             26    18      8    3713
                                              6 BANK0     26    18      8
                          __Umul8_16
                           ___xxtofl (ARG)
 ---------------------------------------------------------------------------------
 (4) __Umul8_16                                            9     7      2     980
                                              2 COMMON     4     2      2
                                              0 BANK0      5     5      0
 ---------------------------------------------------------------------------------
 (3) ___fladd                                             20    12      8    2566
                                             32 BANK0     20    12      8
                            ___flmul (ARG)
                           ___xxtofl (ARG)
 ---------------------------------------------------------------------------------
 Estimated maximum stack depth 4
 ---------------------------------------------------------------------------------
 (Depth) Function   	        Calls       Base Space   Used Autos Params    Refs
 ---------------------------------------------------------------------------------
 (5) _isr                                                  2     2      0       0
                                              0 COMMON     2     2      0
 ---------------------------------------------------------------------------------
 Estimated maximum stack depth 5
 ---------------------------------------------------------------------------------

 Call Graph Graphs:

 _main (ROOT)
   _modomanual
     _PWMtmr0
       ___fladd
         ___flmul (ARG)
           __Umul8_16
           ___xxtofl (ARG)
         ___xxtofl (ARG)
       ___flmul
       ___fltol
         ___fladd (ARG)
         ___flmul (ARG)
         ___xxtofl (ARG)
       ___xxtofl
     _PWMtmr1
       ___fladd
       ___flmul
       ___fltol
       ___xxtofl
     _mapeo
       ___fladd
       ___flmul
       ___fltol
       ___xxtofl
   _setup
   _setupINTOSC
   _setupTMR0
   _setupTMR1
   _setup_ADC
   _setup_PWM1
   _setup_PWM2

 _isr (ROOT)

 Address spaces:
Name               Size   Autos  Total    Cost      Usage
BITCOMMON            E      0       0       0        0.0%
EEDATA             100      0       0       0        0.0%
NULL                 0      0       0       0        0.0%
CODE                 0      0       0       0        0.0%
COMMON               E      A       C       1       85.7%
BITSFR0              0      0       0       1        0.0%
SFR0                 0      0       0       1        0.0%
BITSFR1              0      0       0       2        0.0%
SFR1                 0      0       0       2        0.0%
STACK                0      0       0       2        0.0%
ABS                  0      0      65       3        0.0%
BITBANK0            50      0       0       4        0.0%
BITSFR3              0      0       0       4        0.0%
SFR3                 0      0       0       4        0.0%
BANK0               50     4A      50       5      100.0%
BITSFR2              0      0       0       5        0.0%
SFR2                 0      0       0       5        0.0%
BITBANK1            50      0       0       6        0.0%
BANK1               50      1       9       7       11.2%
BITBANK3            60      0       0       8        0.0%
BANK3               60      0       0       9        0.0%
BITBANK2            60      0       0      10        0.0%
BANK2               60      0       0      11        0.0%
DATA                 0      0      65      12        0.0%


Microchip Technology PIC Macro Assembler V2.40 build 20220703182018 
Symbol Table                                                                                   Sat Nov 12 14:57:42 2022

    __Umul8_16@word_mpld 0022                      l130 07F0                      l124 0D15  
                    l132 07F4                      l133 07F7                      l142 0D24  
                    l151 0685                      l127 0DA7                      l160 0776  
                    l136 0D2F                      l145 0D49                      l154 0FFF  
                    l162 077A                      l138 0D33                      l163 07B0  
                    l139 0D36                      l148 0EFA                      l180 0E77  
                    l165 07B4                      l157 074E                      l166 07D1  
                    l182 0E83                      l174 0E30                      l159 0752  
                    l175 0E3C                      l168 07D5                      l176 0E48  
                    l169 07E2                      l177 0E54                      l178 0E60  
                    l603 05B9                      l179 0E6C                      l604 05C3  
                    l461 0F5D                      l701 06AA                      l454 0F72  
                    l703 073F                      l464 0F72                      l561 03C7  
                    l714 0709                      l715 0715                      l707 06ED  
                    l565 044A                      l582 0513                      l574 05C3  
                    l567 0423                      l663 02DB                      l592 0559  
                    l657 036B                      l586 0537                      l595 0597  
                    l676 0D60                      l669 035F                      l678 0D72  
                    _PR2 0092                      _isr 0DE6             ___flmul@aexp 0034  
           ___flmul@bexp 0039             ___flmul@sign 0033             ___flmul@temp 003E  
           ___flmul@prod 003A             ___fltol@exp1 005D                     l2000 0D4F  
                   l2002 0D56                     l2004 0D5A                     l2100 02A7  
                   l2020 0035                     l2012 0027                     l2006 0D69  
                   l2110 02BF                     l2102 02AB                     l2030 0051  
                   l2022 003A                     l2014 002C                     l2008 0D6E  
                   l2120 02E0                     l2112 02C0                     l2104 02AC  
                   l2040 0064                     l2032 0056                     l2024 003F  
                   l2016 0030                     l1400 0EFB                     l2200 07A6  
                   l2122 02E5                     l2130 0316                     l2114 02C4  
                   l2106 02B5                     l2050 0080                     l2042 0069  
                   l2034 005A                     l2026 0047                     l2018 0034  
                   l1410 0F23                     l1402 0F06                     l2210 07C7  
                   l2202 07AD                     l1500 03E5                     l2140 0349  
                   l2132 0323                     l2124 02F3                     l2116 02D8  
                   l2108 02BB                     l2060 00A9                     l2052 0085  
                   l2044 0071                     l2036 005E                     l2028 0049  
                   l1412 0F2B                     l2212 07CE                     l2204 07B5  
                   l2220 0DAD                     l1510 03EF                     l1502 03E7  
                   l2142 0355                     l2134 032E                     l2126 02F7  
                   l2070 0142                     l2062 00C4                     l2046 0073  
                   l2038 005F                     l1430 0F52                     l1422 0F39  
                   l1414 0F2D                     l1406 0F0F                     l2214 07D6  
                   l2206 07BA                     l2230 0DC7                     l2222 0DB3  
                   l1520 0427                     l1512 03F1                     l1504 03E9  
                   l1440 0375                     l2144 0359                     l2136 033D  
                   l2128 0310                     l2080 01A1                     l2072 014B  
                   l2064 00E0                     l2056 008E                     l2048 007B  
                   l1432 0F62                     l1416 0F31                     l1424 0F4B  
                   l1408 0F22                     l2152 0E84                     l2160 0634  
                   l2216 07DB                     l2208 07C1                     l2232 0DCC  
                   l2224 0DB8                     l1610 0593                     l1602 055E  
                   l1530 043E                     l1522 042E                     l1506 03EB  
                   l1514 03F3                     l1450 038C                     l1442 0379  
                   l2146 035A                     l2138 0347                     l2090 0239  
                   l2082 01B8                     l2074 0159                     l2066 010A  
                   l2058 009C                     l1434 0F67                     l2154 0EA5  
                   l2162 066B                     l2170 0FE9                     l2234 0DD2  
                   l2226 0DBD                     l2218 0DA8                     l1620 05AF  
                   l1612 059C                     l1604 0563                     l1540 045C  
                   l1524 0430                     l1532 0442                     l1516 03F4  
                   l1508 03ED                     l1460 03A0                     l1452 038D  
                   l1444 037A                     l1436 036C                     l2148 0363  
                   l2092 025F                     l2084 01D5                     l2076 0176  
                   l2068 0126                     l2156 05C4                     l2164 0F73  
                   l2180 0758                     l2172 0740                     l2236 0DD6  
                   l2228 0DC2                     l1622 05B3                     l1614 05A1  
                   l1606 0571                     l1550 0484                     l1542 0473  
                   l1534 044E                     l1526 0434                     l1518 040B  
                   l1470 03AF                     l1462 03A1                     l1446 037F  
                   l1454 038F                     l1438 0371                     l2094 0287  
                   l2086 0200                     l2078 0184                     l2158 05E5  
                   l2166 0F94                     l2190 077B                     l2182 0762  
                   l2174 0744                     l2238 0DDB                     l1624 05B5  
                   l1616 05A9                     l1608 0575                     l1560 04AD  
                   l1552 0488                     l1544 0477                     l1536 0453  
                   l1528 0435                     l1480 03CD                     l1472 03B4  
                   l1464 03A5                     l1456 0397                     l1448 0384  
                   l2096 0290                     l2088 020E                     l1800 070D  
                   l2168 0FE3                     l2192 0780                     l2184 0768  
                   l2176 074B                     l1626 05BE                     l1618 05AE  
                   l1570 051B                     l1562 04EB                     l1554 0489  
                   l1546 047B                     l1490 03DB                     l1482 03D1  
                   l1474 03BC                     l1466 03A9                     l1458 039A  
                   l2098 029E                     l1810 0737                     l1802 0717  
                   l2194 078B                     l2186 076C                     l2178 0753  
                   l1628 05C2                     l1580 0536                     l1572 0520  
                   l1564 04F1                     l1556 0492                     l1548 0482  
                   l1492 03DD                     l1484 03D5                     l1476 03BD  
                   l1468 03AA                     l1804 072D                     l2196 079C  
                   l2188 0773                     l1582 053B                     l1590 0547  
                   l1566 04F6                     l1558 0497                     l1494 03DF  
                   l1486 03D7                     l1478 03BF                     l1806 0732  
                   l2198 07A2                     l1584 053E                     l1576 0529  
                   l1568 0505                     l1592 054B                     l1496 03E1  
                   l1488 03D9                     l1808 0736                     l1840 0E36  
                   l1594 054C                     l1586 0540                     l1578 0532  
                   l1498 03E3                     l1770 0689                     l1834 0D09  
                   l1850 0E71                     l1842 0E42                     l1596 0550  
                   l1588 0545                     l1772 068E                     l1852 0E7C  
                   l1844 0E4E                     l1836 0E26                     l1860 07E3  
                   l1598 0556                     l1790 06D6                     l1782 06BB  
                   l1774 0692                     l1854 0E80                     l1846 0E5A  
                   l1838 0E2C                     l1862 07E6                     l1870 0D25  
                   l1792 06E4                     l1784 06BE                     l1776 06A2  
                   l1848 0E66                     l1880 0D21                     l1856 0D73  
                   l1864 07EC                     l1872 0D28                     l1794 06F4  
                   l1786 06CB                     l1778 06B2                     l1890 0D3E  
                   l1882 0D37                     l1858 0DA3                     l1866 07ED  
                   l1874 0D2E                     l1796 06FF                     l1788 06D2  
                   l1876 0D16                     l1892 0D40                     l1884 0D3B  
                   l1868 07EF                     l1798 0703                     l1878 0D1D  
                   l1894 0D42                     l1886 0D3C                     l1896 0D43  
                   l1888 0D3D                     l1898 0D46                     l1998 0D4D  
                   _ADIF 0066                     ?_isr 0070                     u3000 02DF  
                   u1400 0F38                     u3001 02DE                     u1401 0F37  
                   u3010 02E5                     u3011 02E4                     u1500 03A0  
                   u3020 02F7                     u1420 0F4A                     u2300 068E  
                   u3100 065D                     u1501 039F                     u3021 02F6  
                   u1421 0F49                     u2301 068D                     u1510 03A9  
                   u3030 0306                     u1430 0F51                     u2310 0692  
                   u1511 03A8                     u1431 0F50                     u1415 0F3A  
                   u2311 0691                     u1600 0434                     u1520 03AF  
                   u3040 0323                     u2400 070D                     u2320 06B2  
                   u3120 0752                     u1601 0433                     u1521 03AE  
                   u3041 0322                     u2401 070C                     u2321 06B1  
                   u3105 0658                     u3121 0751                     u1530 03B4  
                   u3050 033D                     u1450 0F62                     u1370 0F06  
                   u2410 0722                     u3130 077A                     u1531 03B3  
                   u3051 033C                     u3035 0301                     u1451 0F61  
                   u1371 0F05                     u3115 0F7A                     u3131 0779  
                   u1700 04AD                     u1620 044A                     u1540 03CD  
                   u3060 0359                     u1460 0F67                     u1380 0F1D  
                   u2420 0732                     u2340 06D1                     u3140 07B4  
                   u2500 0E36                     u1701 04AC                     u1621 0449  
                   u1541 03CC                     u3061 0358                     u3045 031F  
                   u1461 0F66                     u1445 0F54                     u2421 0731  
                   u2341 06D0                     u3141 07B3                     u2501 0E35  
                   u1630 044E                     u1550 03D1                     u1470 0379  
                   u1390 0F31                     u2430 0736                     u3150 07D5  
                   u2510 0E42                     u1711 04C4                     u1703 04A9  
                   u1631 044D                     u1615 0437                     u1551 03D0  
                   u1471 0378                     u3055 0339                     u1391 0F30  
                   u2431 0735                     u2415 071D                     u2335 06C3  
                   u3151 07D4                     u3207 07AA                     u2511 0E41  
                   u1800 054B                     u1720 04D8                     u1712 04C5  
                   u1640 0453                     u1560 040B                     u1480 037F  
                   u2360 06F3                     u2520 0E4E                     u1801 054A  
                   u1721 04D9                     u1713 04CA                     u1641 0452  
                   u1561 040A                     u1481 037E                     u1385 0F18  
                   u2361 06F2                     u3217 07BE                     u2521 0E4D  
                   u1810 0550                     u1730 04F6                     u1722 04DE  
                   u1714 04CB                     u1570 0416                     u1490 0384  
                   u2530 0E5A                     u1811 054F                     u1731 04F5  
                   u1723 04DF                     u1715 04D0                     u1651 0465  
                   u1571 0414                     u1491 0383                     u2355 06E5  
                   u3075 0E8B                     u3091 0649                     u3227 07CB  
                   u2531 0E59                     u1900 05AE                     u1820 0556  
                   u1740 051B                     u1716 04D1                     u1660 0477  
                   u1652 046C                     u1580 0417                     u2700 0034  
                   u2380 0703                     u3092 064A                     u2540 0E66  
                   u1901 05AD                     u1821 0555                     u1741 051A  
                   u1661 0476                     u1653 0473                     u1565 0407  
                   u2701 0033                     u2381 0702                     u3093 064F  
                   u3085 05CB                     u3237 07DF                     u2541 0E65  
                   u1910 05B3                     u1830 055D                     u1750 0520  
                   u1670 047B                     u1590 0427                     u2710 003A  
                   u2390 0709                     u3094 0650                     u2550 0E71  
                   u1911 05B2                     u1831 055C                     u1751 051F  
                   u1671 047A                     u1591 0426                     u2711 0039  
                   u2391 0708                     u2375 06F8                     u3095 0655  
                   u2551 0E70                     u3167 0DDF                     u1920 05C2  
                   u1840 0563                     u1680 0488                     u2720 003F  
                   u3096 0656                     u2560 0E7C                     u1921 05C1  
                   u1841 0562                     u1681 0487                     u2801 0118  
                   u2721 003E                     u2561 0E7B                     u3177 0DA5  
                   u1850 0575                     u1770 0536                     u2802 011F  
                   u2730 005E                     u2490 0E2C                     u2570 07F4  
                   u1851 0574                     u1771 0535                     u2811 0134  
                   u2803 0126                     u2731 005D                     u3187 0748  
                   u2491 0E2B                     u2571 07F3                     u1860 0584  
                   u1780 053B                     u2812 013B                     u2740 0064  
                   u2580 0D33                     u1781 053A                     u1765 052B  
                   u2901 0251                     u2813 0142                     u2741 0063  
                   u3197 0770                     u2581 0D32                     u1870 0593  
                   u1790 0545                     u2670 0D5A                     u2910 026D  
                   u2902 0258                     u2750 0069                     u1871 0592  
                   u1791 0544                     u1695 048B                     u2671 0D59  
                   u2903 025F                     u2831 0168                     u2751 0068  
                   u1880 059C                     u2832 016F                     u2760 0080  
                   u1881 059B                     u1865 057F                     u2921 0279  
                   u2841 0193                     u2833 0176                     u2825 0144  
                   u2761 007F                     u1890 05A1                     u2690 0D6E  
                   u2922 0280                     u2842 019A                     u2770 0085  
                   u1891 05A0                     u2691 0D6D                     u2923 0287  
                   u2915 0268                     u2843 01A1                     u2771 0084  
                   u2685 0D61                     u2861 01C7                     u2781 00D2  
                   u2950 02AB                     u2862 01CE                     u2782 00D9  
                   u2951 02AA                     u2935 0289                     u2871 01F2  
                   u2863 01D5                     u2855 01A3                     u2791 00EE  
                   u2783 00E0                     u2872 01F9                     u2792 00F5  
                   u2945 02A0                     u2881 021D                     u2873 0200  
                   u2793 00FC                     u2970 02BF                     u2890 0245  
                   u2882 0224                     u2971 02BE                     u2883 022B  
                   u2980 02C4                     u2981 02C3                     u2965 02AE  
                   u2990 02D8                     u2991 02D7                     u2895 0240  
                   _TMR0 0001                     _vPWM 006C                     _main 0DA8  
                   btemp 007E                     start 000C          __end_of_PWMtmr0 0EFB  
        __end_of_PWMtmr1 0686                    ??_isr 0070            ___fltol@sign1 005C  
        __end_of___fladd 05C4                    ?_main 0070          __end_of___flmul 036C  
        __end_of___fltol 0F73                    i1l113 0E1E                    _TMR1H 000F  
                  _TMR1L 000E                    _PORTC 0007                    _PORTD 0008  
                  _TRISB 0086                    _TRISC 0087                    _TRISD 0088  
                  _vPWMh 00A6                    _vPWMl 006A                    _mapeo 0F73  
                  _setup 0D09                    pclath 000A                    status 0003  
                  wtemp0 007E          __initialization 000F             __end_of_main 0DE6  
                 ??_main 00A8                   ?_mapeo 0070                   _ADRESH 001E  
                 _ADRESL 009E                   _CCPR1L 0015                   _CCPR2L 001B  
                 ?_setup 0070                   _ANSELH 0189                   i1l1950 0DF0  
                 i1l1952 0DF6                   i1l1960 0E00                   i1l1970 0E1A  
                 i1l1962 0E06                   i1l1954 0DF8                   i1l1946 0DE6  
                 i1l1972 0E1C                   i1l1964 0E0A                   i1l1956 0DFE  
                 i1l1948 0DEA                   i1l1974 0E1D                   i1l1966 0E16  
                 i1l1958 0DFF                   i1l1968 0E18                ??_PWMtmr0 005E  
              ??_PWMtmr1 005E                   u263_20 0DEA                   u263_21 0DE9  
                 u264_20 0DF0                   u264_21 0DEF                   u265_20 0E06  
                 u265_21 0E05                   u266_20 0E0A                   u266_21 0E09  
                 _TMR2IF 0061                   _TMR2ON 0092         __end_of___xxtofl 0740  
              ??___fladd 0048                ??___flmul 002E                ??___fltol 0058  
                 _valADC 006E             ?_setupINTOSC 0070                   saved_w 007E  
           ___xxtofl@arg 0022             ___xxtofl@exp 0021             ___xxtofl@val 0072  
__end_of__initialization 0023               ___fltol@f1 0054           __pcstackCOMMON 0070  
          __end_of_mapeo 1000            __end_of_setup 0D16           _OPTION_REGbits 0081  
                ??_mapeo 005E                  ??_setup 0072               __pbssBANK0 006A  
             __pbssBANK1 00A0        __end_of__Umul8_16 0D73               __pmaintext 0DA8  
             __pintentry 0004                  _CCP1CON 0017                  _CCP2CON 001D  
              ?___xxtofl 0072                  _PWMtmr0 0E84                  _PWMtmr1 05C4  
                ___fladd 036C                  ___flmul 0027                  ___fltol 0EFB  
              _ANSELbits 0188                  __ptext1 0D25                  __ptext2 07E3  
                __ptext3 0D73                  __ptext4 0D37                  __ptext5 0D16  
                __ptext6 0E25                  __ptext7 0D09                  __ptext8 0740  
                __ptext9 0F73                _T1CONbits 0010                _T2CONbits 0012  
             ??___xxtofl 0076                  _tmr1low 00A0                _HIGHpulse 00A4  
             _modomanual 0740     end_of_initialization 0023        __end_of_setupTMR0 0D25  
      __end_of_setupTMR1 0D4A        __end_of_setup_ADC 0DA8               _setup_PWM1 07E3  
             _setup_PWM2 0D25                _PORTAbits 0005                _PORTCbits 0007  
            ___fladd@grs 0053            ___xxtofl@sign 0020                _TRISAbits 0085  
              _TRISCbits 0087              ___flmul@grs 0035              _CCP1CONbits 0017  
            _CCP2CONbits 001D      start_initialization 000F              __end_of_isr 0E25  
            ?_modomanual 0070                __Umul8_16 0D4A              ?_setup_PWM1 0070  
            ?_setup_PWM2 0070                ___fladd@a 0044                ___fladd@b 0040  
              ___flmul@a 002A                ___flmul@b 0026              __pbssCOMMON 007A  
              ___latbits 0002            __pcstackBANK0 0020            __pcstackBANK1 00A8  
               ?_PWMtmr0 0070                 ?_PWMtmr1 0070          setupINTOSC@IRCF 0072  
               ?___fladd 0040                 ?___flmul 0026                 ?___fltol 0054  
             ?__Umul8_16 0072        interrupt_function 0004                 _PIE1bits 008C  
               _PIR1bits 000C                _setupTMR0 0D16                _setupTMR1 0D37  
              _setup_ADC 0D73               _ADCON0bits 001F               _ADCON1bits 009F  
          ??_setupINTOSC 0072               ?_setupTMR0 0070               ?_setupTMR1 0070  
             ?_setup_ADC 0070              ??__Umul8_16 0074                 ___xxtofl 0686  
               __ptext10 05C4                 __ptext11 0E84                 __ptext12 0686  
               __ptext13 0EFB                 __ptext14 0027                 __ptext15 0D4A  
               __ptext16 036C                 __ptext17 0DE6      __end_of_setupINTOSC 0E84  
           ??_modomanual 0067                 _tmr1high 00A2               _HIGHpulse1 007A  
           ??_setup_PWM1 0072             ??_setup_PWM2 0072       __end_of_modomanual 07E3  
             _INTCONbits 000B                 intlevel1 0000       __end_of_setup_PWM1 07F8  
     __end_of_setup_PWM2 0D37               _OSCCONbits 008F              ??_setupTMR0 0072  
            ??_setupTMR1 0072              ??_setup_ADC 0072   __Umul8_16@multiplicand 0072  
            _setupINTOSC 0E25            ___fladd@signs 0050             ___fladd@aexp 0051  
           ___fladd@bexp 0052     __Umul8_16@multiplier 0024        __Umul8_16@product 0020  
